ARM GAS  C:\Users\ANDREW~1\AppData\Local\Temp\cchQxSpu.s 			page 1


   1              		.cpu cortex-m0
   2              		.fpu softvfp
   3              		.eabi_attribute 20, 1
   4              		.eabi_attribute 21, 1
   5              		.eabi_attribute 23, 3
   6              		.eabi_attribute 24, 1
   7              		.eabi_attribute 25, 1
   8              		.eabi_attribute 26, 1
   9              		.eabi_attribute 30, 6
  10              		.eabi_attribute 34, 0
  11              		.eabi_attribute 18, 4
  12              		.code	16
  13              		.file	"ADC.c"
  14              		.text
  15              	.Ltext0:
  16              		.cfi_sections	.debug_frame
  17              		.global	ADC_initVar
  18              		.bss
  19              		.type	ADC_initVar, %object
  20              		.size	ADC_initVar, 1
  21              	ADC_initVar:
  22 0000 00       		.space	1
  23              		.comm	ADC_offset,8,4
  24              		.comm	ADC_countsPer10Volt,16,4
  25              		.section	.rodata
  26              		.align	2
  27              		.type	ADC_channelsConfig, %object
  28              		.size	ADC_channelsConfig, 16
  29              	ADC_channelsConfig:
  30 0000 00040000 		.word	1024
  31 0004 00040000 		.word	1024
  32 0008 00040000 		.word	1024
  33 000c 00040000 		.word	1024
  34              		.section	.text.ADC_Start,"ax",%progbits
  35              		.align	2
  36              		.global	ADC_Start
  37              		.code	16
  38              		.thumb_func
  39              		.type	ADC_Start, %function
  40              	ADC_Start:
  41              	.LFB2:
  42              		.file 1 "Generated_Source\\PSoC4\\ADC.c"
   1:Generated_Source\PSoC4/ADC.c **** /*******************************************************************************
   2:Generated_Source\PSoC4/ADC.c **** * File Name: ADC.c
   3:Generated_Source\PSoC4/ADC.c **** * Version 2.40
   4:Generated_Source\PSoC4/ADC.c **** *
   5:Generated_Source\PSoC4/ADC.c **** * Description:
   6:Generated_Source\PSoC4/ADC.c **** *  This file provides the source code to the API for the Sequencing Successive
   7:Generated_Source\PSoC4/ADC.c **** *  Approximation ADC Component Component.
   8:Generated_Source\PSoC4/ADC.c **** *
   9:Generated_Source\PSoC4/ADC.c **** * Note:
  10:Generated_Source\PSoC4/ADC.c **** *
  11:Generated_Source\PSoC4/ADC.c **** ********************************************************************************
  12:Generated_Source\PSoC4/ADC.c **** * Copyright 2008-2015, Cypress Semiconductor Corporation.  All rights reserved.
  13:Generated_Source\PSoC4/ADC.c **** * You may use this file only in accordance with the license, terms, conditions,
  14:Generated_Source\PSoC4/ADC.c **** * disclaimers, and limitations in the end user license agreement accompanying
  15:Generated_Source\PSoC4/ADC.c **** * the software package with which this file was provided.
ARM GAS  C:\Users\ANDREW~1\AppData\Local\Temp\cchQxSpu.s 			page 2


  16:Generated_Source\PSoC4/ADC.c **** *******************************************************************************/
  17:Generated_Source\PSoC4/ADC.c **** 
  18:Generated_Source\PSoC4/ADC.c **** #include "ADC.h"
  19:Generated_Source\PSoC4/ADC.c **** 
  20:Generated_Source\PSoC4/ADC.c **** 
  21:Generated_Source\PSoC4/ADC.c **** /***************************************
  22:Generated_Source\PSoC4/ADC.c **** * Global data allocation
  23:Generated_Source\PSoC4/ADC.c **** ***************************************/
  24:Generated_Source\PSoC4/ADC.c **** uint8 ADC_initVar = 0u;
  25:Generated_Source\PSoC4/ADC.c **** volatile int16 ADC_offset[ADC_TOTAL_CHANNELS_NUM];
  26:Generated_Source\PSoC4/ADC.c **** volatile int32 ADC_countsPer10Volt[ADC_TOTAL_CHANNELS_NUM];   /* Gain compensation */
  27:Generated_Source\PSoC4/ADC.c **** 
  28:Generated_Source\PSoC4/ADC.c **** 
  29:Generated_Source\PSoC4/ADC.c **** /***************************************
  30:Generated_Source\PSoC4/ADC.c **** * Local data allocation
  31:Generated_Source\PSoC4/ADC.c **** ***************************************/
  32:Generated_Source\PSoC4/ADC.c **** /* Channels configuration generated by customiser */
  33:Generated_Source\PSoC4/ADC.c **** static const uint32 CYCODE ADC_channelsConfig[] = { 0x00000400u, 0x00000400u, 0x00000400u, 0x000004
  34:Generated_Source\PSoC4/ADC.c **** 
  35:Generated_Source\PSoC4/ADC.c **** 
  36:Generated_Source\PSoC4/ADC.c **** /*******************************************************************************
  37:Generated_Source\PSoC4/ADC.c **** * Function Name: ADC_Start
  38:Generated_Source\PSoC4/ADC.c **** ********************************************************************************
  39:Generated_Source\PSoC4/ADC.c **** *
  40:Generated_Source\PSoC4/ADC.c **** * Summary:
  41:Generated_Source\PSoC4/ADC.c **** *  Performs all required initialization for this component
  42:Generated_Source\PSoC4/ADC.c **** *  and enables the power. The power will be set to the appropriate
  43:Generated_Source\PSoC4/ADC.c **** *  power based on the clock frequency.
  44:Generated_Source\PSoC4/ADC.c **** *
  45:Generated_Source\PSoC4/ADC.c **** * Parameters:
  46:Generated_Source\PSoC4/ADC.c **** *  None.
  47:Generated_Source\PSoC4/ADC.c **** *
  48:Generated_Source\PSoC4/ADC.c **** * Return:
  49:Generated_Source\PSoC4/ADC.c **** *  None.
  50:Generated_Source\PSoC4/ADC.c **** *
  51:Generated_Source\PSoC4/ADC.c **** * Global variables:
  52:Generated_Source\PSoC4/ADC.c **** *  The ADC_initVar variable is used to indicate when/if initial
  53:Generated_Source\PSoC4/ADC.c **** *  configuration of this component has happened. The variable is initialized to
  54:Generated_Source\PSoC4/ADC.c **** *  zero and set to 1 the first time ADC_Start() is called. This allows for
  55:Generated_Source\PSoC4/ADC.c **** *  component Re-Start without re-initialization in all subsequent calls to the
  56:Generated_Source\PSoC4/ADC.c **** *  ADC_Start() routine.
  57:Generated_Source\PSoC4/ADC.c **** *  If re-initialization of the component is required the variable should be set
  58:Generated_Source\PSoC4/ADC.c **** *  to zero before call of ADC_Start() routine, or the user may call
  59:Generated_Source\PSoC4/ADC.c **** *  ADC_Init() and ADC_Enable() as done in the
  60:Generated_Source\PSoC4/ADC.c **** *  ADC_Start() routine.
  61:Generated_Source\PSoC4/ADC.c **** *
  62:Generated_Source\PSoC4/ADC.c **** *******************************************************************************/
  63:Generated_Source\PSoC4/ADC.c **** void ADC_Start(void)
  64:Generated_Source\PSoC4/ADC.c **** {
  43              		.loc 1 64 0
  44              		.cfi_startproc
  45 0000 80B5     		push	{r7, lr}
  46              		.cfi_def_cfa_offset 8
  47              		.cfi_offset 7, -8
  48              		.cfi_offset 14, -4
  49 0002 00AF     		add	r7, sp, #0
  50              		.cfi_def_cfa_register 7
ARM GAS  C:\Users\ANDREW~1\AppData\Local\Temp\cchQxSpu.s 			page 3


  65:Generated_Source\PSoC4/ADC.c ****     /* If not Initialized then initialize all required hardware and software */
  66:Generated_Source\PSoC4/ADC.c ****     if(ADC_initVar == 0u)
  51              		.loc 1 66 0
  52 0004 064B     		ldr	r3, .L3
  53 0006 1B78     		ldrb	r3, [r3]
  54 0008 002B     		cmp	r3, #0
  55 000a 04D1     		bne	.L2
  67:Generated_Source\PSoC4/ADC.c ****     {
  68:Generated_Source\PSoC4/ADC.c ****         ADC_Init();
  56              		.loc 1 68 0
  57 000c FFF7FEFF 		bl	ADC_Init
  69:Generated_Source\PSoC4/ADC.c ****         ADC_initVar = 1u;
  58              		.loc 1 69 0
  59 0010 034B     		ldr	r3, .L3
  60 0012 0122     		mov	r2, #1
  61 0014 1A70     		strb	r2, [r3]
  62              	.L2:
  70:Generated_Source\PSoC4/ADC.c ****     }
  71:Generated_Source\PSoC4/ADC.c ****     ADC_Enable();
  63              		.loc 1 71 0
  64 0016 FFF7FEFF 		bl	ADC_Enable
  72:Generated_Source\PSoC4/ADC.c **** }
  65              		.loc 1 72 0
  66 001a BD46     		mov	sp, r7
  67              		@ sp needed
  68 001c 80BD     		pop	{r7, pc}
  69              	.L4:
  70 001e C046     		.align	2
  71              	.L3:
  72 0020 00000000 		.word	ADC_initVar
  73              		.cfi_endproc
  74              	.LFE2:
  75              		.size	ADC_Start, .-ADC_Start
  76              		.global	__aeabi_idiv
  77              		.section	.text.ADC_Init,"ax",%progbits
  78              		.align	2
  79              		.global	ADC_Init
  80              		.code	16
  81              		.thumb_func
  82              		.type	ADC_Init, %function
  83              	ADC_Init:
  84              	.LFB3:
  73:Generated_Source\PSoC4/ADC.c **** 
  74:Generated_Source\PSoC4/ADC.c **** 
  75:Generated_Source\PSoC4/ADC.c **** /*******************************************************************************
  76:Generated_Source\PSoC4/ADC.c **** * Function Name: ADC_Init
  77:Generated_Source\PSoC4/ADC.c **** ********************************************************************************
  78:Generated_Source\PSoC4/ADC.c **** *
  79:Generated_Source\PSoC4/ADC.c **** * Summary:
  80:Generated_Source\PSoC4/ADC.c **** *  Initialize component's parameters to the parameters set by user in the
  81:Generated_Source\PSoC4/ADC.c **** *  customizer of the component placed onto schematic. Usually called in
  82:Generated_Source\PSoC4/ADC.c **** *  ADC_Start().
  83:Generated_Source\PSoC4/ADC.c **** *
  84:Generated_Source\PSoC4/ADC.c **** * Parameters:
  85:Generated_Source\PSoC4/ADC.c **** *  None.
  86:Generated_Source\PSoC4/ADC.c **** *
  87:Generated_Source\PSoC4/ADC.c **** * Return:
ARM GAS  C:\Users\ANDREW~1\AppData\Local\Temp\cchQxSpu.s 			page 4


  88:Generated_Source\PSoC4/ADC.c **** *  None.
  89:Generated_Source\PSoC4/ADC.c **** *
  90:Generated_Source\PSoC4/ADC.c **** * Global variables:
  91:Generated_Source\PSoC4/ADC.c **** *  The ADC_offset variable is initialized.
  92:Generated_Source\PSoC4/ADC.c **** *
  93:Generated_Source\PSoC4/ADC.c **** *******************************************************************************/
  94:Generated_Source\PSoC4/ADC.c **** void ADC_Init(void)
  95:Generated_Source\PSoC4/ADC.c **** {
  85              		.loc 1 95 0
  86              		.cfi_startproc
  87 0000 80B5     		push	{r7, lr}
  88              		.cfi_def_cfa_offset 8
  89              		.cfi_offset 7, -8
  90              		.cfi_offset 14, -4
  91 0002 84B0     		sub	sp, sp, #16
  92              		.cfi_def_cfa_offset 24
  93 0004 00AF     		add	r7, sp, #0
  94              		.cfi_def_cfa_register 7
  96:Generated_Source\PSoC4/ADC.c ****     uint32 chNum;
  97:Generated_Source\PSoC4/ADC.c ****     uint32 tmpRegVal;
  98:Generated_Source\PSoC4/ADC.c ****     int32 counts;
  99:Generated_Source\PSoC4/ADC.c **** 
 100:Generated_Source\PSoC4/ADC.c ****     #if(ADC_TOTAL_CHANNELS_NUM > 1u)
 101:Generated_Source\PSoC4/ADC.c ****         static const uint8 CYCODE ADC_InputsPlacement[] =
 102:Generated_Source\PSoC4/ADC.c ****         {
 103:Generated_Source\PSoC4/ADC.c ****             (uint8)(ADC_cy_psoc4_sarmux_8__CH_0_PORT << 4u) |
 104:Generated_Source\PSoC4/ADC.c ****             (uint8)ADC_cy_psoc4_sarmux_8__CH_0_PIN
 105:Generated_Source\PSoC4/ADC.c ****             ,(uint8)(ADC_cy_psoc4_sarmux_8__CH_1_PORT << 4u) |
 106:Generated_Source\PSoC4/ADC.c ****              (uint8)ADC_cy_psoc4_sarmux_8__CH_1_PIN
 107:Generated_Source\PSoC4/ADC.c ****             #if(ADC_TOTAL_CHANNELS_NUM > 2u)
 108:Generated_Source\PSoC4/ADC.c ****                 ,(uint8)(ADC_cy_psoc4_sarmux_8__CH_2_PORT << 4u) |
 109:Generated_Source\PSoC4/ADC.c ****                  (uint8)ADC_cy_psoc4_sarmux_8__CH_2_PIN
 110:Generated_Source\PSoC4/ADC.c ****             #endif /* End ADC_TOTAL_CHANNELS_NUM > 2u */
 111:Generated_Source\PSoC4/ADC.c ****             #if(ADC_TOTAL_CHANNELS_NUM > 3u)
 112:Generated_Source\PSoC4/ADC.c ****                 ,(uint8)(ADC_cy_psoc4_sarmux_8__CH_3_PORT << 4u) |
 113:Generated_Source\PSoC4/ADC.c ****                  (uint8)ADC_cy_psoc4_sarmux_8__CH_3_PIN
 114:Generated_Source\PSoC4/ADC.c ****             #endif /* End ADC_TOTAL_CHANNELS_NUM > 3u */
 115:Generated_Source\PSoC4/ADC.c ****             #if(ADC_TOTAL_CHANNELS_NUM > 4u)
 116:Generated_Source\PSoC4/ADC.c ****                 ,(uint8)(ADC_cy_psoc4_sarmux_8__CH_4_PORT << 4u) |
 117:Generated_Source\PSoC4/ADC.c ****                  (uint8)ADC_cy_psoc4_sarmux_8__CH_4_PIN
 118:Generated_Source\PSoC4/ADC.c ****             #endif /* End ADC_TOTAL_CHANNELS_NUM > 4u */
 119:Generated_Source\PSoC4/ADC.c ****             #if(ADC_TOTAL_CHANNELS_NUM > 5u)
 120:Generated_Source\PSoC4/ADC.c ****                 ,(uint8)(ADC_cy_psoc4_sarmux_8__CH_5_PORT << 4u) |
 121:Generated_Source\PSoC4/ADC.c ****                  (uint8)ADC_cy_psoc4_sarmux_8__CH_5_PIN
 122:Generated_Source\PSoC4/ADC.c ****             #endif /* End ADC_TOTAL_CHANNELS_NUM > 5u */
 123:Generated_Source\PSoC4/ADC.c ****             #if(ADC_TOTAL_CHANNELS_NUM > 6u)
 124:Generated_Source\PSoC4/ADC.c ****                 ,(uint8)(ADC_cy_psoc4_sarmux_8__CH_6_PORT << 4u) |
 125:Generated_Source\PSoC4/ADC.c ****                  (uint8)ADC_cy_psoc4_sarmux_8__CH_6_PIN
 126:Generated_Source\PSoC4/ADC.c ****             #endif /* End ADC_TOTAL_CHANNELS_NUM > 6u */
 127:Generated_Source\PSoC4/ADC.c ****             #if(ADC_TOTAL_CHANNELS_NUM > 7u)
 128:Generated_Source\PSoC4/ADC.c ****                 ,(uint8)(ADC_cy_psoc4_sarmux_8__CH_7_PORT << 4u) |
 129:Generated_Source\PSoC4/ADC.c ****                  (uint8)ADC_cy_psoc4_sarmux_8__CH_7_PIN
 130:Generated_Source\PSoC4/ADC.c ****             #endif /* End ADC_TOTAL_CHANNELS_NUM > 7u */
 131:Generated_Source\PSoC4/ADC.c ****             #if(ADC_TOTAL_CHANNELS_NUM > 8u)
 132:Generated_Source\PSoC4/ADC.c ****                 ,(uint8)(ADC_cy_psoc4_sarmux_8__CH_8_PORT << 4u) |
 133:Generated_Source\PSoC4/ADC.c ****                  (uint8)ADC_cy_psoc4_sarmux_8__CH_8_PIN
 134:Generated_Source\PSoC4/ADC.c ****             #endif /* End ADC_TOTAL_CHANNELS_NUM > 8u */
ARM GAS  C:\Users\ANDREW~1\AppData\Local\Temp\cchQxSpu.s 			page 5


 135:Generated_Source\PSoC4/ADC.c ****             #if(ADC_TOTAL_CHANNELS_NUM > 9u)
 136:Generated_Source\PSoC4/ADC.c ****                 ,(uint8)(ADC_cy_psoc4_sarmux_8__CH_9_PORT << 4u) |
 137:Generated_Source\PSoC4/ADC.c ****                  (uint8)ADC_cy_psoc4_sarmux_8__CH_9_PIN
 138:Generated_Source\PSoC4/ADC.c ****             #endif /* End ADC_TOTAL_CHANNELS_NUM > 9u */
 139:Generated_Source\PSoC4/ADC.c ****             #if(ADC_TOTAL_CHANNELS_NUM > 10u)
 140:Generated_Source\PSoC4/ADC.c ****                 ,(uint8)(ADC_cy_psoc4_sarmux_8__CH_10_PORT << 4u) |
 141:Generated_Source\PSoC4/ADC.c ****                  (uint8)ADC_cy_psoc4_sarmux_8__CH_10_PIN
 142:Generated_Source\PSoC4/ADC.c ****             #endif /* End ADC_TOTAL_CHANNELS_NUM > 10u */
 143:Generated_Source\PSoC4/ADC.c ****             #if(ADC_TOTAL_CHANNELS_NUM > 11u)
 144:Generated_Source\PSoC4/ADC.c ****                 ,(uint8)(ADC_cy_psoc4_sarmux_8__CH_11_PORT << 4u) |
 145:Generated_Source\PSoC4/ADC.c ****                  (uint8)ADC_cy_psoc4_sarmux_8__CH_11_PIN
 146:Generated_Source\PSoC4/ADC.c ****             #endif /* End ADC_TOTAL_CHANNELS_NUM > 11u */
 147:Generated_Source\PSoC4/ADC.c ****             #if(ADC_TOTAL_CHANNELS_NUM > 12u)
 148:Generated_Source\PSoC4/ADC.c ****                 ,(uint8)(ADC_cy_psoc4_sarmux_8__CH_12_PORT << 4u) |
 149:Generated_Source\PSoC4/ADC.c ****                  (uint8)ADC_cy_psoc4_sarmux_8__CH_12_PIN
 150:Generated_Source\PSoC4/ADC.c ****             #endif /* End ADC_TOTAL_CHANNELS_NUM > 12u */
 151:Generated_Source\PSoC4/ADC.c ****             #if(ADC_TOTAL_CHANNELS_NUM > 13u)
 152:Generated_Source\PSoC4/ADC.c ****                 ,(uint8)(ADC_cy_psoc4_sarmux_8__CH_13_PORT << 4u) |
 153:Generated_Source\PSoC4/ADC.c ****                  (uint8)ADC_cy_psoc4_sarmux_8__CH_13_PIN
 154:Generated_Source\PSoC4/ADC.c ****             #endif /* End ADC_TOTAL_CHANNELS_NUM > 13u */
 155:Generated_Source\PSoC4/ADC.c ****             #if(ADC_TOTAL_CHANNELS_NUM > 14u)
 156:Generated_Source\PSoC4/ADC.c ****                 ,(uint8)(ADC_cy_psoc4_sarmux_8__CH_14_PORT << 4u) |
 157:Generated_Source\PSoC4/ADC.c ****                  (uint8)ADC_cy_psoc4_sarmux_8__CH_14_PIN
 158:Generated_Source\PSoC4/ADC.c ****             #endif /* End ADC_TOTAL_CHANNELS_NUM > 14u */
 159:Generated_Source\PSoC4/ADC.c ****             #if(ADC_TOTAL_CHANNELS_NUM > 15u)
 160:Generated_Source\PSoC4/ADC.c ****                 ,(uint8)(ADC_cy_psoc4_sarmux_8__CH_15_PORT << 4u) |
 161:Generated_Source\PSoC4/ADC.c ****                  (uint8)ADC_cy_psoc4_sarmux_8__CH_15_PIN
 162:Generated_Source\PSoC4/ADC.c ****             #endif /* End ADC_TOTAL_CHANNELS_NUM > 15u */
 163:Generated_Source\PSoC4/ADC.c ****             #if(ADC_TOTAL_CHANNELS_NUM > 16u)
 164:Generated_Source\PSoC4/ADC.c ****                 ,(uint8)(ADC_cy_psoc4_sarmux_8__CH_16_PORT << 4u) |
 165:Generated_Source\PSoC4/ADC.c ****                  (uint8)ADC_cy_psoc4_sarmux_8__CH_16_PIN
 166:Generated_Source\PSoC4/ADC.c ****             #endif /* End ADC_TOTAL_CHANNELS_NUM > 16u */
 167:Generated_Source\PSoC4/ADC.c ****         };
 168:Generated_Source\PSoC4/ADC.c ****     #endif /* End ADC_TOTAL_CHANNELS_NUM > 1u */
 169:Generated_Source\PSoC4/ADC.c **** 
 170:Generated_Source\PSoC4/ADC.c ****     #if(ADC_IRQ_REMOVE == 0u)
 171:Generated_Source\PSoC4/ADC.c ****         /* Start and set interrupt vector */
 172:Generated_Source\PSoC4/ADC.c ****         CyIntSetPriority(ADC_INTC_NUMBER, ADC_INTC_PRIOR_NUMBER);
  95              		.loc 1 172 0
  96 0006 0F20     		mov	r0, #15
  97 0008 0321     		mov	r1, #3
  98 000a FFF7FEFF 		bl	CyIntSetPriority
 173:Generated_Source\PSoC4/ADC.c ****         (void)CyIntSetVector(ADC_INTC_NUMBER, &ADC_ISR);
  99              		.loc 1 173 0
 100 000e 624B     		ldr	r3, .L16
 101 0010 0F20     		mov	r0, #15
 102 0012 191C     		mov	r1, r3
 103 0014 FFF7FEFF 		bl	CyIntSetVector
 174:Generated_Source\PSoC4/ADC.c ****     #endif   /* End ADC_IRQ_REMOVE */
 175:Generated_Source\PSoC4/ADC.c **** 
 176:Generated_Source\PSoC4/ADC.c ****     /* Init SAR and MUX registers */
 177:Generated_Source\PSoC4/ADC.c ****     ADC_SAR_CHAN_EN_REG = ADC_DEFAULT_EN_CHANNELS;
 104              		.loc 1 177 0
 105 0018 604B     		ldr	r3, .L16+4
 106 001a 0F22     		mov	r2, #15
 107 001c 1A60     		str	r2, [r3]
 178:Generated_Source\PSoC4/ADC.c ****     ADC_SAR_CTRL_REG |= ADC_DEFAULT_CTRL_REG_CFG | 
ARM GAS  C:\Users\ANDREW~1\AppData\Local\Temp\cchQxSpu.s 			page 6


 179:Generated_Source\PSoC4/ADC.c ****         /* Enable the SAR internal pump when global pump is enabled */
 180:Generated_Source\PSoC4/ADC.c ****         (((ADC_PUMP_CTRL_REG & ADC_PUMP_CTRL_ENABLED) != 0u) ? 
 108              		.loc 1 180 0
 109 001e 604B     		ldr	r3, .L16+8
 110 0020 1B68     		ldr	r3, [r3]
 178:Generated_Source\PSoC4/ADC.c ****     ADC_SAR_CTRL_REG |= ADC_DEFAULT_CTRL_REG_CFG | 
 111              		.loc 1 178 0
 112 0022 002B     		cmp	r3, #0
 113 0024 01DA     		bge	.L6
 178:Generated_Source\PSoC4/ADC.c ****     ADC_SAR_CTRL_REG |= ADC_DEFAULT_CTRL_REG_CFG | 
 114              		.loc 1 178 0 is_stmt 0 discriminator 1
 115 0026 5F49     		ldr	r1, .L16+12
 116 0028 00E0     		b	.L7
 117              	.L6:
 178:Generated_Source\PSoC4/ADC.c ****     ADC_SAR_CTRL_REG |= ADC_DEFAULT_CTRL_REG_CFG | 
 118              		.loc 1 178 0 discriminator 2
 119 002a 5F49     		ldr	r1, .L16+16
 120              	.L7:
 178:Generated_Source\PSoC4/ADC.c ****     ADC_SAR_CTRL_REG |= ADC_DEFAULT_CTRL_REG_CFG | 
 121              		.loc 1 178 0 discriminator 4
 122 002c 5F4B     		ldr	r3, .L16+20
 123 002e 5F4A     		ldr	r2, .L16+20
 124 0030 1268     		ldr	r2, [r2]
 125 0032 0A43     		orr	r2, r1
 126 0034 1A60     		str	r2, [r3]
 181:Generated_Source\PSoC4/ADC.c ****         ADC_BOOSTPUMP_EN : 0u);
 182:Generated_Source\PSoC4/ADC.c ****     ADC_SAR_SAMPLE_CTRL_REG = ADC_DEFAULT_SAMPLE_CTRL_REG_CFG;
 127              		.loc 1 182 0 is_stmt 1 discriminator 4
 128 0036 5E4B     		ldr	r3, .L16+24
 129 0038 5E4A     		ldr	r2, .L16+28
 130 003a 1A60     		str	r2, [r3]
 183:Generated_Source\PSoC4/ADC.c ****     ADC_SAR_RANGE_THRES_REG = ADC_DEFAULT_RANGE_THRES_REG_CFG;
 131              		.loc 1 183 0 discriminator 4
 132 003c 5E4B     		ldr	r3, .L16+32
 133 003e 5F4A     		ldr	r2, .L16+36
 134 0040 1A60     		str	r2, [r3]
 184:Generated_Source\PSoC4/ADC.c ****     ADC_SAR_RANGE_COND_REG  = ADC_COMPARE_MODE;
 135              		.loc 1 184 0 discriminator 4
 136 0042 5F4B     		ldr	r3, .L16+40
 137 0044 0022     		mov	r2, #0
 138 0046 1A60     		str	r2, [r3]
 185:Generated_Source\PSoC4/ADC.c ****     ADC_SAR_SAMPLE_TIME01_REG = ADC_DEFAULT_SAMPLE_TIME01_REG_CFG;
 139              		.loc 1 185 0 discriminator 4
 140 0048 5E4B     		ldr	r3, .L16+44
 141 004a 5F4A     		ldr	r2, .L16+48
 142 004c 1A60     		str	r2, [r3]
 186:Generated_Source\PSoC4/ADC.c ****     ADC_SAR_SAMPLE_TIME23_REG = ADC_DEFAULT_SAMPLE_TIME23_REG_CFG;
 143              		.loc 1 186 0 discriminator 4
 144 004e 5F4B     		ldr	r3, .L16+52
 145 0050 5D4A     		ldr	r2, .L16+48
 146 0052 1A60     		str	r2, [r3]
 187:Generated_Source\PSoC4/ADC.c ****     
 188:Generated_Source\PSoC4/ADC.c ****     /* Connect Vm to VSSA when even one channel is single-ended or multiple channels configured */
 189:Generated_Source\PSoC4/ADC.c ****     #if(ADC_DEFAULT_MUX_SWITCH0 != 0u)
 190:Generated_Source\PSoC4/ADC.c ****         ADC_MUX_SWITCH0_REG |= ADC_DEFAULT_MUX_SWITCH0;
 147              		.loc 1 190 0 discriminator 4
 148 0054 5E4B     		ldr	r3, .L16+56
ARM GAS  C:\Users\ANDREW~1\AppData\Local\Temp\cchQxSpu.s 			page 7


 149 0056 5E4A     		ldr	r2, .L16+56
 150 0058 1268     		ldr	r2, [r2]
 151 005a 8021     		mov	r1, #128
 152 005c 4902     		lsl	r1, r1, #9
 153 005e 0A43     		orr	r2, r1
 154 0060 1A60     		str	r2, [r3]
 191:Generated_Source\PSoC4/ADC.c ****         /* Set MUX_HW_CTRL_VSSA in MUX_SWITCH_HW_CTRL when multiple channels enabled */
 192:Generated_Source\PSoC4/ADC.c ****         #if(ADC_TOTAL_CHANNELS_NUM > 1u)
 193:Generated_Source\PSoC4/ADC.c ****             ADC_MUX_SWITCH_HW_CTRL_REG |= ADC_DEFAULT_MUX_SWITCH0;
 155              		.loc 1 193 0 discriminator 4
 156 0062 5C4B     		ldr	r3, .L16+60
 157 0064 5B4A     		ldr	r2, .L16+60
 158 0066 1268     		ldr	r2, [r2]
 159 0068 8021     		mov	r1, #128
 160 006a 4902     		lsl	r1, r1, #9
 161 006c 0A43     		orr	r2, r1
 162 006e 1A60     		str	r2, [r3]
 194:Generated_Source\PSoC4/ADC.c ****         #endif /* ADC_TOTAL_CHANNELS_NUM > 1u */
 195:Generated_Source\PSoC4/ADC.c ****     #endif /*ADC_CHANNELS_MODE !=0 */
 196:Generated_Source\PSoC4/ADC.c **** 
 197:Generated_Source\PSoC4/ADC.c ****     ADC_SAR_SATURATE_INTR_MASK_REG = 0u;
 163              		.loc 1 197 0 discriminator 4
 164 0070 594B     		ldr	r3, .L16+64
 165 0072 0022     		mov	r2, #0
 166 0074 1A60     		str	r2, [r3]
 198:Generated_Source\PSoC4/ADC.c ****     ADC_SAR_RANGE_INTR_MASK_REG = 0u;
 167              		.loc 1 198 0 discriminator 4
 168 0076 594B     		ldr	r3, .L16+68
 169 0078 0022     		mov	r2, #0
 170 007a 1A60     		str	r2, [r3]
 199:Generated_Source\PSoC4/ADC.c ****     ADC_SAR_INTR_MASK_REG = ADC_SAR_INTR_MASK;
 171              		.loc 1 199 0 discriminator 4
 172 007c 584B     		ldr	r3, .L16+72
 173 007e 0122     		mov	r2, #1
 174 0080 1A60     		str	r2, [r3]
 200:Generated_Source\PSoC4/ADC.c **** 
 201:Generated_Source\PSoC4/ADC.c ****     #if(ADC_CY_SAR_IP_VER == ADC_CY_SAR_IP_VER0)
 202:Generated_Source\PSoC4/ADC.c ****         ADC_ANA_TRIM_REG = ADC_TRIM_COEF;
 203:Generated_Source\PSoC4/ADC.c ****     #endif /* (ADC_CY_SAR_IP_VER == ADC_CY_SAR_IP_VER0) */
 204:Generated_Source\PSoC4/ADC.c **** 
 205:Generated_Source\PSoC4/ADC.c ****     /* Read and modify default configuration based on characterization */
 206:Generated_Source\PSoC4/ADC.c ****     tmpRegVal = ADC_SAR_DFT_CTRL_REG;
 175              		.loc 1 206 0 discriminator 4
 176 0082 584B     		ldr	r3, .L16+76
 177 0084 1B68     		ldr	r3, [r3]
 178 0086 7B60     		str	r3, [r7, #4]
 207:Generated_Source\PSoC4/ADC.c ****     tmpRegVal &= (uint32)~ADC_DCEN;
 179              		.loc 1 207 0 discriminator 4
 180 0088 7B68     		ldr	r3, [r7, #4]
 181 008a 574A     		ldr	r2, .L16+80
 182 008c 1340     		and	r3, r2
 183 008e 7B60     		str	r3, [r7, #4]
 208:Generated_Source\PSoC4/ADC.c ****     
 209:Generated_Source\PSoC4/ADC.c ****     #if(ADC_CY_SAR_IP_VER == ADC_CY_SAR_IP_VER0)
 210:Generated_Source\PSoC4/ADC.c ****         #if(ADC_NOMINAL_CLOCK_FREQ > (ADC_MAX_FREQUENCY / 2))
 211:Generated_Source\PSoC4/ADC.c ****             tmpRegVal |= ADC_SEL_CSEL_DFT_CHAR;
 212:Generated_Source\PSoC4/ADC.c ****         #else  /* clock speed < 9 Mhz */
ARM GAS  C:\Users\ANDREW~1\AppData\Local\Temp\cchQxSpu.s 			page 8


 213:Generated_Source\PSoC4/ADC.c ****             tmpRegVal |= ADC_DLY_INC;
 214:Generated_Source\PSoC4/ADC.c ****         #endif /* clock speed > 9 Mhz */
 215:Generated_Source\PSoC4/ADC.c ****     #else
 216:Generated_Source\PSoC4/ADC.c ****         #if ((ADC_DEFAULT_VREF_SEL == ADC__INTERNAL1024) || \
 217:Generated_Source\PSoC4/ADC.c ****              (ADC_DEFAULT_VREF_SEL == ADC__INTERNALVREF))
 218:Generated_Source\PSoC4/ADC.c ****             tmpRegVal |= ADC_DLY_INC;
 219:Generated_Source\PSoC4/ADC.c ****         #else
 220:Generated_Source\PSoC4/ADC.c ****             tmpRegVal |= ADC_DCEN;
 184              		.loc 1 220 0 discriminator 4
 185 0090 7B68     		ldr	r3, [r7, #4]
 186 0092 8022     		mov	r2, #128
 187 0094 9205     		lsl	r2, r2, #22
 188 0096 1343     		orr	r3, r2
 189 0098 7B60     		str	r3, [r7, #4]
 221:Generated_Source\PSoC4/ADC.c ****             tmpRegVal &= (uint32)~ADC_DLY_INC;
 190              		.loc 1 221 0 discriminator 4
 191 009a 7B68     		ldr	r3, [r7, #4]
 192 009c 0122     		mov	r2, #1
 193 009e 9343     		bic	r3, r2
 194 00a0 7B60     		str	r3, [r7, #4]
 222:Generated_Source\PSoC4/ADC.c ****         #endif /* ((ADC_DEFAULT_VREF_SEL == ADC__INTERNAL1024) || \
 223:Generated_Source\PSoC4/ADC.c ****                    (ADC_DEFAULT_VREF_SEL == ADC__INTERNALVREF)) */
 224:Generated_Source\PSoC4/ADC.c ****     #endif /* (ADC_CY_SAR_IP_VER == ADC_CY_SAR_IP_VER0) */
 225:Generated_Source\PSoC4/ADC.c ****     
 226:Generated_Source\PSoC4/ADC.c ****     ADC_SAR_DFT_CTRL_REG = tmpRegVal;
 195              		.loc 1 226 0 discriminator 4
 196 00a2 504B     		ldr	r3, .L16+76
 197 00a4 7A68     		ldr	r2, [r7, #4]
 198 00a6 1A60     		str	r2, [r3]
 227:Generated_Source\PSoC4/ADC.c **** 
 228:Generated_Source\PSoC4/ADC.c ****     #if(ADC_MAX_RESOLUTION != ADC_RESOLUTION_12)
 229:Generated_Source\PSoC4/ADC.c ****         ADC_WOUNDING_REG = ADC_ALT_WOUNDING;
 230:Generated_Source\PSoC4/ADC.c ****     #endif /* ADC_MAX_RESOLUTION != ADC_RESOLUTION_12 */
 231:Generated_Source\PSoC4/ADC.c **** 
 232:Generated_Source\PSoC4/ADC.c ****     for(chNum = 0u; chNum < ADC_TOTAL_CHANNELS_NUM; chNum++)
 199              		.loc 1 232 0 discriminator 4
 200 00a8 0023     		mov	r3, #0
 201 00aa FB60     		str	r3, [r7, #12]
 202 00ac 6EE0     		b	.L8
 203              	.L15:
 233:Generated_Source\PSoC4/ADC.c ****     {
 234:Generated_Source\PSoC4/ADC.c ****         tmpRegVal = (ADC_channelsConfig[chNum] & ADC_CHANNEL_CONFIG_MASK);
 204              		.loc 1 234 0
 205 00ae 4F4B     		ldr	r3, .L16+84
 206 00b0 FA68     		ldr	r2, [r7, #12]
 207 00b2 9200     		lsl	r2, r2, #2
 208 00b4 D258     		ldr	r2, [r2, r3]
 209 00b6 DC23     		mov	r3, #220
 210 00b8 9B01     		lsl	r3, r3, #6
 211 00ba 1340     		and	r3, r2
 212 00bc 7B60     		str	r3, [r7, #4]
 235:Generated_Source\PSoC4/ADC.c ****         #if(ADC_TOTAL_CHANNELS_NUM > 1u)
 236:Generated_Source\PSoC4/ADC.c ****             tmpRegVal |= ADC_InputsPlacement[chNum];
 213              		.loc 1 236 0
 214 00be 4C4A     		ldr	r2, .L16+88
 215 00c0 FB68     		ldr	r3, [r7, #12]
 216 00c2 D318     		add	r3, r2, r3
ARM GAS  C:\Users\ANDREW~1\AppData\Local\Temp\cchQxSpu.s 			page 9


 217 00c4 1B78     		ldrb	r3, [r3]
 218 00c6 1A1C     		mov	r2, r3
 219 00c8 7B68     		ldr	r3, [r7, #4]
 220 00ca 1343     		orr	r3, r2
 221 00cc 7B60     		str	r3, [r7, #4]
 237:Generated_Source\PSoC4/ADC.c ****         #endif /* End ADC_TOTAL_CHANNELS_NUM > 1u */
 238:Generated_Source\PSoC4/ADC.c ****         
 239:Generated_Source\PSoC4/ADC.c ****         
 240:Generated_Source\PSoC4/ADC.c ****         /* When the part is limited to 10-bit then the SUB_RESOLUTION bit
 241:Generated_Source\PSoC4/ADC.c ****         *  will be ignored and the RESOLUTION bit selects between 10-bit
 242:Generated_Source\PSoC4/ADC.c ****         *  (0) and 8-bit (1) resolution.
 243:Generated_Source\PSoC4/ADC.c ****         */
 244:Generated_Source\PSoC4/ADC.c ****         #if((ADC_MAX_RESOLUTION != ADC_RESOLUTION_12) && \
 245:Generated_Source\PSoC4/ADC.c ****             (ADC_ALT_WOUNDING == ADC_WOUNDING_10BIT))
 246:Generated_Source\PSoC4/ADC.c ****             tmpRegVal &= (uint32)(~ADC_ALT_RESOLUTION_ON);
 247:Generated_Source\PSoC4/ADC.c ****         #endif /* ADC_MAX_RESOLUTION != ADC_RESOLUTION_12 */
 248:Generated_Source\PSoC4/ADC.c **** 
 249:Generated_Source\PSoC4/ADC.c ****         #if(ADC_INJ_CHANNEL_ENABLED)
 250:Generated_Source\PSoC4/ADC.c ****         if(chNum < ADC_SEQUENCED_CHANNELS_NUM)
 251:Generated_Source\PSoC4/ADC.c ****         #endif /* ADC_INJ_CHANNEL_ENABLED */
 252:Generated_Source\PSoC4/ADC.c ****         {
 253:Generated_Source\PSoC4/ADC.c ****             CY_SET_REG32((reg32 *)(ADC_SAR_CHAN_CONFIG_IND + (uint32)(chNum << 2)), tmpRegVal);
 222              		.loc 1 253 0
 223 00ce FB68     		ldr	r3, [r7, #12]
 224 00d0 9B00     		lsl	r3, r3, #2
 225 00d2 484A     		ldr	r2, .L16+92
 226 00d4 9446     		mov	ip, r2
 227 00d6 6344     		add	r3, r3, ip
 228 00d8 7A68     		ldr	r2, [r7, #4]
 229 00da 1A60     		str	r2, [r3]
 254:Generated_Source\PSoC4/ADC.c **** 
 255:Generated_Source\PSoC4/ADC.c ****             if((ADC_channelsConfig[chNum] & ADC_IS_SATURATE_EN_MASK) != 0u)
 230              		.loc 1 255 0
 231 00dc 434B     		ldr	r3, .L16+84
 232 00de FA68     		ldr	r2, [r7, #12]
 233 00e0 9200     		lsl	r2, r2, #2
 234 00e2 D358     		ldr	r3, [r2, r3]
 235 00e4 0122     		mov	r2, #1
 236 00e6 1340     		and	r3, r2
 237 00e8 09D0     		beq	.L9
 256:Generated_Source\PSoC4/ADC.c ****             {
 257:Generated_Source\PSoC4/ADC.c ****                 ADC_SAR_SATURATE_INTR_MASK_REG |= (uint16)((uint16)1 << chNum);
 238              		.loc 1 257 0
 239 00ea 3B4B     		ldr	r3, .L16+64
 240 00ec 3A4A     		ldr	r2, .L16+64
 241 00ee 1268     		ldr	r2, [r2]
 242 00f0 F968     		ldr	r1, [r7, #12]
 243 00f2 0120     		mov	r0, #1
 244 00f4 8840     		lsl	r0, r0, r1
 245 00f6 011C     		mov	r1, r0
 246 00f8 89B2     		uxth	r1, r1
 247 00fa 0A43     		orr	r2, r1
 248 00fc 1A60     		str	r2, [r3]
 249              	.L9:
 258:Generated_Source\PSoC4/ADC.c ****             }
 259:Generated_Source\PSoC4/ADC.c **** 
 260:Generated_Source\PSoC4/ADC.c ****             if((ADC_channelsConfig[chNum] & ADC_IS_RANGE_CTRL_EN_MASK) != 0u)
ARM GAS  C:\Users\ANDREW~1\AppData\Local\Temp\cchQxSpu.s 			page 10


 250              		.loc 1 260 0
 251 00fe 3B4B     		ldr	r3, .L16+84
 252 0100 FA68     		ldr	r2, [r7, #12]
 253 0102 9200     		lsl	r2, r2, #2
 254 0104 D358     		ldr	r3, [r2, r3]
 255 0106 0222     		mov	r2, #2
 256 0108 1340     		and	r3, r2
 257 010a 09D0     		beq	.L10
 261:Generated_Source\PSoC4/ADC.c ****             {
 262:Generated_Source\PSoC4/ADC.c ****                 ADC_SAR_RANGE_INTR_MASK_REG |= (uint16)((uint16)1 << chNum);
 258              		.loc 1 262 0
 259 010c 334B     		ldr	r3, .L16+68
 260 010e 334A     		ldr	r2, .L16+68
 261 0110 1268     		ldr	r2, [r2]
 262 0112 F968     		ldr	r1, [r7, #12]
 263 0114 0120     		mov	r0, #1
 264 0116 8840     		lsl	r0, r0, r1
 265 0118 011C     		mov	r1, r0
 266 011a 89B2     		uxth	r1, r1
 267 011c 0A43     		orr	r2, r1
 268 011e 1A60     		str	r2, [r3]
 269              	.L10:
 263:Generated_Source\PSoC4/ADC.c ****             }
 264:Generated_Source\PSoC4/ADC.c ****         }
 265:Generated_Source\PSoC4/ADC.c ****         #if(ADC_INJ_CHANNEL_ENABLED)
 266:Generated_Source\PSoC4/ADC.c ****             else
 267:Generated_Source\PSoC4/ADC.c ****             {
 268:Generated_Source\PSoC4/ADC.c ****                 CY_SET_REG32(ADC_SAR_INJ_CHAN_CONFIG_PTR, tmpRegVal | ADC_INJ_TAILGATING);
 269:Generated_Source\PSoC4/ADC.c **** 
 270:Generated_Source\PSoC4/ADC.c ****                 if((ADC_channelsConfig[chNum] & ADC_IS_SATURATE_EN_MASK) != 0u)
 271:Generated_Source\PSoC4/ADC.c ****                 {
 272:Generated_Source\PSoC4/ADC.c ****                     ADC_SAR_INTR_MASK_REG |= ADC_INJ_SATURATE_MASK;
 273:Generated_Source\PSoC4/ADC.c ****                 }
 274:Generated_Source\PSoC4/ADC.c **** 
 275:Generated_Source\PSoC4/ADC.c ****                 if((ADC_channelsConfig[chNum] & ADC_IS_RANGE_CTRL_EN_MASK) != 0u)
 276:Generated_Source\PSoC4/ADC.c ****                 {
 277:Generated_Source\PSoC4/ADC.c ****                     ADC_SAR_INTR_MASK_REG |= ADC_INJ_RANGE_MASK;
 278:Generated_Source\PSoC4/ADC.c ****                 }
 279:Generated_Source\PSoC4/ADC.c ****             }
 280:Generated_Source\PSoC4/ADC.c ****         #endif /* ADC_INJ_CHANNEL_ENABLED */
 281:Generated_Source\PSoC4/ADC.c **** 
 282:Generated_Source\PSoC4/ADC.c ****         if((ADC_channelsConfig[chNum] & ADC_ALT_RESOLUTION_ON) != 0u)
 270              		.loc 1 282 0
 271 0120 324B     		ldr	r3, .L16+84
 272 0122 FA68     		ldr	r2, [r7, #12]
 273 0124 9200     		lsl	r2, r2, #2
 274 0126 D258     		ldr	r2, [r2, r3]
 275 0128 8023     		mov	r3, #128
 276 012a 9B00     		lsl	r3, r3, #2
 277 012c 1340     		and	r3, r2
 278 012e 03D0     		beq	.L11
 283:Generated_Source\PSoC4/ADC.c ****         {
 284:Generated_Source\PSoC4/ADC.c ****                counts = (int32)ADC_DEFAULT_MAX_WRK_ALT;
 279              		.loc 1 284 0
 280 0130 8023     		mov	r3, #128
 281 0132 5B00     		lsl	r3, r3, #1
 282 0134 BB60     		str	r3, [r7, #8]
ARM GAS  C:\Users\ANDREW~1\AppData\Local\Temp\cchQxSpu.s 			page 11


 283 0136 02E0     		b	.L12
 284              	.L11:
 285:Generated_Source\PSoC4/ADC.c ****         }
 286:Generated_Source\PSoC4/ADC.c ****         else
 287:Generated_Source\PSoC4/ADC.c ****         {
 288:Generated_Source\PSoC4/ADC.c ****                counts = (int32)ADC_SAR_WRK_MAX_12BIT;
 285              		.loc 1 288 0
 286 0138 8023     		mov	r3, #128
 287 013a 5B01     		lsl	r3, r3, #5
 288 013c BB60     		str	r3, [r7, #8]
 289              	.L12:
 289:Generated_Source\PSoC4/ADC.c ****         }
 290:Generated_Source\PSoC4/ADC.c **** 
 291:Generated_Source\PSoC4/ADC.c ****         if((ADC_channelsConfig[chNum] & ADC_DIFFERENTIAL_EN) == 0u)
 290              		.loc 1 291 0
 291 013e 2B4B     		ldr	r3, .L16+84
 292 0140 FA68     		ldr	r2, [r7, #12]
 293 0142 9200     		lsl	r2, r2, #2
 294 0144 D258     		ldr	r2, [r2, r3]
 295 0146 8023     		mov	r3, #128
 296 0148 5B00     		lsl	r3, r3, #1
 297 014a 1340     		and	r3, r2
 298 014c 05D1     		bne	.L13
 292:Generated_Source\PSoC4/ADC.c ****         {
 293:Generated_Source\PSoC4/ADC.c ****             #if((ADC_DEFAULT_SE_RESULT_FORMAT_SEL == ADC__FSIGNED) && \
 294:Generated_Source\PSoC4/ADC.c ****                 (ADC_DEFAULT_NEG_INPUT_SEL == ADC__VREF))
 295:Generated_Source\PSoC4/ADC.c ****                 /* Set offset to the minus half scale to convert results to unsigned format */
 296:Generated_Source\PSoC4/ADC.c ****                 ADC_offset[chNum] = (int16)(counts / -2);
 297:Generated_Source\PSoC4/ADC.c ****             #else
 298:Generated_Source\PSoC4/ADC.c ****                 ADC_offset[chNum] = 0;
 299              		.loc 1 298 0
 300 014e 2A4B     		ldr	r3, .L16+96
 301 0150 FA68     		ldr	r2, [r7, #12]
 302 0152 5200     		lsl	r2, r2, #1
 303 0154 0021     		mov	r1, #0
 304 0156 D152     		strh	r1, [r2, r3]
 305 0158 04E0     		b	.L14
 306              	.L13:
 299:Generated_Source\PSoC4/ADC.c ****             #endif /* end DEFAULT_SE_RESULT_FORMAT_SEL == ADC__FSIGNED */
 300:Generated_Source\PSoC4/ADC.c ****         }
 301:Generated_Source\PSoC4/ADC.c ****         else    /* Differential channel */
 302:Generated_Source\PSoC4/ADC.c ****         {
 303:Generated_Source\PSoC4/ADC.c ****             #if(ADC_DEFAULT_DIFF_RESULT_FORMAT_SEL == ADC__FUNSIGNED)
 304:Generated_Source\PSoC4/ADC.c ****                 /* Set offset to the half scale to convert results to signed format */
 305:Generated_Source\PSoC4/ADC.c ****                 ADC_offset[chNum] = (int16)(counts / 2);
 306:Generated_Source\PSoC4/ADC.c ****             #else
 307:Generated_Source\PSoC4/ADC.c ****                 ADC_offset[chNum] = 0;
 307              		.loc 1 307 0
 308 015a 274B     		ldr	r3, .L16+96
 309 015c FA68     		ldr	r2, [r7, #12]
 310 015e 5200     		lsl	r2, r2, #1
 311 0160 0021     		mov	r1, #0
 312 0162 D152     		strh	r1, [r2, r3]
 313              	.L14:
 308:Generated_Source\PSoC4/ADC.c ****             #endif /* end ADC_DEFAULT_DIFF_RESULT_FORMAT_SEL == ADC__FUNSIGNED */
 309:Generated_Source\PSoC4/ADC.c ****         }
 310:Generated_Source\PSoC4/ADC.c ****         /* Calculate gain in counts per 10 volts with rounding */
ARM GAS  C:\Users\ANDREW~1\AppData\Local\Temp\cchQxSpu.s 			page 12


 311:Generated_Source\PSoC4/ADC.c ****         ADC_countsPer10Volt[chNum] = (int16)(((counts * ADC_10MV_COUNTS) +
 314              		.loc 1 311 0 discriminator 2
 315 0164 BB68     		ldr	r3, [r7, #8]
 316 0166 254A     		ldr	r2, .L16+100
 317 0168 5343     		mul	r3, r2
 318 016a 254A     		ldr	r2, .L16+104
 319 016c 9446     		mov	ip, r2
 320 016e 6344     		add	r3, r3, ip
 312:Generated_Source\PSoC4/ADC.c ****                             ADC_DEFAULT_VREF_MV_VALUE) / (ADC_DEFAULT_VREF_MV_VALUE * 2));
 321              		.loc 1 312 0 discriminator 2
 322 0170 181C     		mov	r0, r3
 323 0172 2449     		ldr	r1, .L16+108
 324 0174 FFF7FEFF 		bl	__aeabi_idiv
 325 0178 031C     		mov	r3, r0
 311:Generated_Source\PSoC4/ADC.c ****                             ADC_DEFAULT_VREF_MV_VALUE) / (ADC_DEFAULT_VREF_MV_VALUE * 2));
 326              		.loc 1 311 0 discriminator 2
 327 017a 9BB2     		uxth	r3, r3
 328 017c 19B2     		sxth	r1, r3
 329 017e 224B     		ldr	r3, .L16+112
 330 0180 FA68     		ldr	r2, [r7, #12]
 331 0182 9200     		lsl	r2, r2, #2
 332 0184 D150     		str	r1, [r2, r3]
 232:Generated_Source\PSoC4/ADC.c ****     {
 333              		.loc 1 232 0 discriminator 2
 334 0186 FB68     		ldr	r3, [r7, #12]
 335 0188 0133     		add	r3, r3, #1
 336 018a FB60     		str	r3, [r7, #12]
 337              	.L8:
 232:Generated_Source\PSoC4/ADC.c ****     {
 338              		.loc 1 232 0 is_stmt 0 discriminator 1
 339 018c FB68     		ldr	r3, [r7, #12]
 340 018e 032B     		cmp	r3, #3
 341 0190 8DD9     		bls	.L15
 313:Generated_Source\PSoC4/ADC.c ****     }
 314:Generated_Source\PSoC4/ADC.c **** }
 342              		.loc 1 314 0 is_stmt 1
 343 0192 BD46     		mov	sp, r7
 344 0194 04B0     		add	sp, sp, #16
 345              		@ sp needed
 346 0196 80BD     		pop	{r7, pc}
 347              	.L17:
 348              		.align	2
 349              	.L16:
 350 0198 00000000 		.word	ADC_ISR
 351 019c 20003A40 		.word	1077542944
 352 01a0 80033A40 		.word	1077543808
 353 01a4 70201010 		.word	269492336
 354 01a8 70200010 		.word	268443760
 355 01ac 00003A40 		.word	1077542912
 356 01b0 04003A40 		.word	1077542916
 357 01b4 CC000080 		.word	-2147483444
 358 01b8 18003A40 		.word	1077542936
 359 01bc 0000FF07 		.word	134152192
 360 01c0 1C003A40 		.word	1077542940
 361 01c4 10003A40 		.word	1077542928
 362 01c8 02000200 		.word	131074
 363 01cc 14003A40 		.word	1077542932
ARM GAS  C:\Users\ANDREW~1\AppData\Local\Temp\cchQxSpu.s 			page 13


 364 01d0 00033A40 		.word	1077543680
 365 01d4 40033A40 		.word	1077543744
 366 01d8 28023A40 		.word	1077543464
 367 01dc 38023A40 		.word	1077543480
 368 01e0 18023A40 		.word	1077543448
 369 01e4 30003A40 		.word	1077542960
 370 01e8 FFFFFFDF 		.word	-536870913
 371 01ec 00000000 		.word	ADC_channelsConfig
 372 01f0 10000000 		.word	ADC_InputsPlacement.4788
 373 01f4 80003A40 		.word	1077543040
 374 01f8 00000000 		.word	ADC_offset
 375 01fc 10270000 		.word	10000
 376 0200 E40C0000 		.word	3300
 377 0204 C8190000 		.word	6600
 378 0208 00000000 		.word	ADC_countsPer10Volt
 379              		.cfi_endproc
 380              	.LFE3:
 381              		.size	ADC_Init, .-ADC_Init
 382              		.section	.text.ADC_Enable,"ax",%progbits
 383              		.align	2
 384              		.global	ADC_Enable
 385              		.code	16
 386              		.thumb_func
 387              		.type	ADC_Enable, %function
 388              	ADC_Enable:
 389              	.LFB4:
 315:Generated_Source\PSoC4/ADC.c **** 
 316:Generated_Source\PSoC4/ADC.c **** /*******************************************************************************
 317:Generated_Source\PSoC4/ADC.c **** * Function Name: ADC_SAR_1_Enable
 318:Generated_Source\PSoC4/ADC.c **** ********************************************************************************
 319:Generated_Source\PSoC4/ADC.c **** *
 320:Generated_Source\PSoC4/ADC.c **** * Summary:
 321:Generated_Source\PSoC4/ADC.c **** *  Enables the clock and analog power for SAR ADC.
 322:Generated_Source\PSoC4/ADC.c **** *
 323:Generated_Source\PSoC4/ADC.c **** * Parameters:
 324:Generated_Source\PSoC4/ADC.c **** *  None.
 325:Generated_Source\PSoC4/ADC.c **** *
 326:Generated_Source\PSoC4/ADC.c **** * Return:
 327:Generated_Source\PSoC4/ADC.c **** *  None.
 328:Generated_Source\PSoC4/ADC.c **** *
 329:Generated_Source\PSoC4/ADC.c **** *******************************************************************************/
 330:Generated_Source\PSoC4/ADC.c **** void ADC_Enable(void)
 331:Generated_Source\PSoC4/ADC.c **** {
 390              		.loc 1 331 0
 391              		.cfi_startproc
 392 0000 80B5     		push	{r7, lr}
 393              		.cfi_def_cfa_offset 8
 394              		.cfi_offset 7, -8
 395              		.cfi_offset 14, -4
 396 0002 00AF     		add	r7, sp, #0
 397              		.cfi_def_cfa_register 7
 332:Generated_Source\PSoC4/ADC.c ****     if (0u == (ADC_SAR_CTRL_REG & ADC_ENABLE))
 398              		.loc 1 332 0
 399 0004 0A4B     		ldr	r3, .L21
 400 0006 1B68     		ldr	r3, [r3]
 401 0008 002B     		cmp	r3, #0
 402 000a 0EDB     		blt	.L18
ARM GAS  C:\Users\ANDREW~1\AppData\Local\Temp\cchQxSpu.s 			page 14


 333:Generated_Source\PSoC4/ADC.c ****     {
 334:Generated_Source\PSoC4/ADC.c ****         #if(ADC_CY_SAR_IP_VER != ADC_CY_SAR_IP_VER0)
 335:Generated_Source\PSoC4/ADC.c **** 
 336:Generated_Source\PSoC4/ADC.c ****             while (0u != (ADC_SAR_STATUS_REG & ADC_STATUS_BUSY))
 403              		.loc 1 336 0
 404 000c C046     		mov	r8, r8
 405              	.L20:
 406              		.loc 1 336 0 is_stmt 0 discriminator 1
 407 000e 094B     		ldr	r3, .L21+4
 408 0010 1B68     		ldr	r3, [r3]
 409 0012 002B     		cmp	r3, #0
 410 0014 FBDB     		blt	.L20
 337:Generated_Source\PSoC4/ADC.c ****             {
 338:Generated_Source\PSoC4/ADC.c ****                 /* wait for SAR to go idle to avoid deadlock */
 339:Generated_Source\PSoC4/ADC.c ****             }
 340:Generated_Source\PSoC4/ADC.c ****         #endif /* (ADC_CY_SAR_IP_VER != ADC_CY_SAR_IP_VER0) */
 341:Generated_Source\PSoC4/ADC.c ****         
 342:Generated_Source\PSoC4/ADC.c ****         ADC_SAR_CTRL_REG |= ADC_ENABLE;
 411              		.loc 1 342 0 is_stmt 1
 412 0016 064B     		ldr	r3, .L21
 413 0018 054A     		ldr	r2, .L21
 414 001a 1268     		ldr	r2, [r2]
 415 001c 8021     		mov	r1, #128
 416 001e 0906     		lsl	r1, r1, #24
 417 0020 0A43     		orr	r2, r1
 418 0022 1A60     		str	r2, [r3]
 343:Generated_Source\PSoC4/ADC.c ****         
 344:Generated_Source\PSoC4/ADC.c ****         /* The block is ready to use 10 us after the enable signal is set high. */
 345:Generated_Source\PSoC4/ADC.c ****         CyDelayUs(ADC_10US_DELAY);         
 419              		.loc 1 345 0
 420 0024 0A20     		mov	r0, #10
 421 0026 FFF7FEFF 		bl	CyDelayUs
 422              	.L18:
 346:Generated_Source\PSoC4/ADC.c ****     }
 347:Generated_Source\PSoC4/ADC.c **** }
 423              		.loc 1 347 0
 424 002a BD46     		mov	sp, r7
 425              		@ sp needed
 426 002c 80BD     		pop	{r7, pc}
 427              	.L22:
 428 002e C046     		.align	2
 429              	.L21:
 430 0030 00003A40 		.word	1077542912
 431 0034 08023A40 		.word	1077543432
 432              		.cfi_endproc
 433              	.LFE4:
 434              		.size	ADC_Enable, .-ADC_Enable
 435              		.section	.text.ADC_Stop,"ax",%progbits
 436              		.align	2
 437              		.global	ADC_Stop
 438              		.code	16
 439              		.thumb_func
 440              		.type	ADC_Stop, %function
 441              	ADC_Stop:
 442              	.LFB5:
 348:Generated_Source\PSoC4/ADC.c **** 
 349:Generated_Source\PSoC4/ADC.c **** 
ARM GAS  C:\Users\ANDREW~1\AppData\Local\Temp\cchQxSpu.s 			page 15


 350:Generated_Source\PSoC4/ADC.c **** /*******************************************************************************
 351:Generated_Source\PSoC4/ADC.c **** * Function Name: ADC_Stop
 352:Generated_Source\PSoC4/ADC.c **** ********************************************************************************
 353:Generated_Source\PSoC4/ADC.c **** *
 354:Generated_Source\PSoC4/ADC.c **** * Summary:
 355:Generated_Source\PSoC4/ADC.c **** *  This function stops ADC conversions and puts the ADC into its lowest power
 356:Generated_Source\PSoC4/ADC.c **** *  mode.
 357:Generated_Source\PSoC4/ADC.c **** *
 358:Generated_Source\PSoC4/ADC.c **** * Parameters:
 359:Generated_Source\PSoC4/ADC.c **** *  None.
 360:Generated_Source\PSoC4/ADC.c **** *
 361:Generated_Source\PSoC4/ADC.c **** * Return:
 362:Generated_Source\PSoC4/ADC.c **** *  None.
 363:Generated_Source\PSoC4/ADC.c **** *
 364:Generated_Source\PSoC4/ADC.c **** *******************************************************************************/
 365:Generated_Source\PSoC4/ADC.c **** void ADC_Stop(void)
 366:Generated_Source\PSoC4/ADC.c **** {
 443              		.loc 1 366 0
 444              		.cfi_startproc
 445 0000 80B5     		push	{r7, lr}
 446              		.cfi_def_cfa_offset 8
 447              		.cfi_offset 7, -8
 448              		.cfi_offset 14, -4
 449 0002 00AF     		add	r7, sp, #0
 450              		.cfi_def_cfa_register 7
 367:Generated_Source\PSoC4/ADC.c ****     ADC_SAR_CTRL_REG &= (uint32)~ADC_ENABLE;
 451              		.loc 1 367 0
 452 0004 034B     		ldr	r3, .L24
 453 0006 034A     		ldr	r2, .L24
 454 0008 1268     		ldr	r2, [r2]
 455 000a 5200     		lsl	r2, r2, #1
 456 000c 5208     		lsr	r2, r2, #1
 457 000e 1A60     		str	r2, [r3]
 368:Generated_Source\PSoC4/ADC.c **** }
 458              		.loc 1 368 0
 459 0010 BD46     		mov	sp, r7
 460              		@ sp needed
 461 0012 80BD     		pop	{r7, pc}
 462              	.L25:
 463              		.align	2
 464              	.L24:
 465 0014 00003A40 		.word	1077542912
 466              		.cfi_endproc
 467              	.LFE5:
 468              		.size	ADC_Stop, .-ADC_Stop
 469              		.section	.text.ADC_StartConvert,"ax",%progbits
 470              		.align	2
 471              		.global	ADC_StartConvert
 472              		.code	16
 473              		.thumb_func
 474              		.type	ADC_StartConvert, %function
 475              	ADC_StartConvert:
 476              	.LFB6:
 369:Generated_Source\PSoC4/ADC.c **** 
 370:Generated_Source\PSoC4/ADC.c **** 
 371:Generated_Source\PSoC4/ADC.c **** /*******************************************************************************
 372:Generated_Source\PSoC4/ADC.c **** * Function Name: ADC_StartConvert
ARM GAS  C:\Users\ANDREW~1\AppData\Local\Temp\cchQxSpu.s 			page 16


 373:Generated_Source\PSoC4/ADC.c **** ********************************************************************************
 374:Generated_Source\PSoC4/ADC.c **** *
 375:Generated_Source\PSoC4/ADC.c **** * Summary:
 376:Generated_Source\PSoC4/ADC.c **** *  Description:
 377:Generated_Source\PSoC4/ADC.c **** *  For free running mode, this API starts the conversion process and it
 378:Generated_Source\PSoC4/ADC.c **** *  runs continuously.
 379:Generated_Source\PSoC4/ADC.c **** *
 380:Generated_Source\PSoC4/ADC.c **** *  In a triggered mode, this routine triggers every conversion by
 381:Generated_Source\PSoC4/ADC.c **** *  writing into the FW_TRIGGER bit in SAR_START_CTRL reg. In triggered mode,
 382:Generated_Source\PSoC4/ADC.c **** *  every conversion has to start by this API.
 383:Generated_Source\PSoC4/ADC.c **** *
 384:Generated_Source\PSoC4/ADC.c **** * Parameters:
 385:Generated_Source\PSoC4/ADC.c **** *  None.
 386:Generated_Source\PSoC4/ADC.c **** *
 387:Generated_Source\PSoC4/ADC.c **** * Return:
 388:Generated_Source\PSoC4/ADC.c **** *  None.
 389:Generated_Source\PSoC4/ADC.c **** *
 390:Generated_Source\PSoC4/ADC.c **** *******************************************************************************/
 391:Generated_Source\PSoC4/ADC.c **** void ADC_StartConvert(void)
 392:Generated_Source\PSoC4/ADC.c **** {
 477              		.loc 1 392 0
 478              		.cfi_startproc
 479 0000 80B5     		push	{r7, lr}
 480              		.cfi_def_cfa_offset 8
 481              		.cfi_offset 7, -8
 482              		.cfi_offset 14, -4
 483 0002 00AF     		add	r7, sp, #0
 484              		.cfi_def_cfa_register 7
 393:Generated_Source\PSoC4/ADC.c ****     #if(ADC_DEFAULT_SAMPLE_MODE_SEL == ADC__FREERUNNING)
 394:Generated_Source\PSoC4/ADC.c ****         ADC_SAR_SAMPLE_CTRL_REG |= ADC_CONTINUOUS_EN;
 485              		.loc 1 394 0
 486 0004 044B     		ldr	r3, .L27
 487 0006 044A     		ldr	r2, .L27
 488 0008 1268     		ldr	r2, [r2]
 489 000a 8021     		mov	r1, #128
 490 000c 4902     		lsl	r1, r1, #9
 491 000e 0A43     		orr	r2, r1
 492 0010 1A60     		str	r2, [r3]
 395:Generated_Source\PSoC4/ADC.c ****     #else /* Firmware trigger */
 396:Generated_Source\PSoC4/ADC.c ****         ADC_SAR_START_CTRL_REG = ADC_FW_TRIGGER;
 397:Generated_Source\PSoC4/ADC.c ****     #endif /* End ADC_DEFAULT_SAMPLE_MODE == ADC__FREERUNNING */
 398:Generated_Source\PSoC4/ADC.c **** 
 399:Generated_Source\PSoC4/ADC.c **** }
 493              		.loc 1 399 0
 494 0012 BD46     		mov	sp, r7
 495              		@ sp needed
 496 0014 80BD     		pop	{r7, pc}
 497              	.L28:
 498 0016 C046     		.align	2
 499              	.L27:
 500 0018 04003A40 		.word	1077542916
 501              		.cfi_endproc
 502              	.LFE6:
 503              		.size	ADC_StartConvert, .-ADC_StartConvert
 504              		.section	.text.ADC_StopConvert,"ax",%progbits
 505              		.align	2
 506              		.global	ADC_StopConvert
ARM GAS  C:\Users\ANDREW~1\AppData\Local\Temp\cchQxSpu.s 			page 17


 507              		.code	16
 508              		.thumb_func
 509              		.type	ADC_StopConvert, %function
 510              	ADC_StopConvert:
 511              	.LFB7:
 400:Generated_Source\PSoC4/ADC.c **** 
 401:Generated_Source\PSoC4/ADC.c **** 
 402:Generated_Source\PSoC4/ADC.c **** /*******************************************************************************
 403:Generated_Source\PSoC4/ADC.c **** * Function Name: ADC_StopConvert
 404:Generated_Source\PSoC4/ADC.c **** ********************************************************************************
 405:Generated_Source\PSoC4/ADC.c **** *
 406:Generated_Source\PSoC4/ADC.c **** * Summary:
 407:Generated_Source\PSoC4/ADC.c **** *  Forces the ADC to stop all conversions.
 408:Generated_Source\PSoC4/ADC.c **** *
 409:Generated_Source\PSoC4/ADC.c **** * Parameters:
 410:Generated_Source\PSoC4/ADC.c **** *  None.
 411:Generated_Source\PSoC4/ADC.c **** *
 412:Generated_Source\PSoC4/ADC.c **** * Return:
 413:Generated_Source\PSoC4/ADC.c **** *  None.
 414:Generated_Source\PSoC4/ADC.c **** *
 415:Generated_Source\PSoC4/ADC.c **** *******************************************************************************/
 416:Generated_Source\PSoC4/ADC.c **** void ADC_StopConvert(void)
 417:Generated_Source\PSoC4/ADC.c **** {
 512              		.loc 1 417 0
 513              		.cfi_startproc
 514 0000 80B5     		push	{r7, lr}
 515              		.cfi_def_cfa_offset 8
 516              		.cfi_offset 7, -8
 517              		.cfi_offset 14, -4
 518 0002 00AF     		add	r7, sp, #0
 519              		.cfi_def_cfa_register 7
 418:Generated_Source\PSoC4/ADC.c ****     #if(ADC_DEFAULT_SAMPLE_MODE_SEL == ADC__FREERUNNING)
 419:Generated_Source\PSoC4/ADC.c ****         ADC_SAR_SAMPLE_CTRL_REG &= (uint32)(~ADC_CONTINUOUS_EN);
 520              		.loc 1 419 0
 521 0004 034B     		ldr	r3, .L30
 522 0006 034A     		ldr	r2, .L30
 523 0008 1268     		ldr	r2, [r2]
 524 000a 0349     		ldr	r1, .L30+4
 525 000c 0A40     		and	r2, r1
 526 000e 1A60     		str	r2, [r3]
 420:Generated_Source\PSoC4/ADC.c ****     #endif /* ADC_DEFAULT_SAMPLE_MODE == ADC__FREERUNNING */
 421:Generated_Source\PSoC4/ADC.c **** }
 527              		.loc 1 421 0
 528 0010 BD46     		mov	sp, r7
 529              		@ sp needed
 530 0012 80BD     		pop	{r7, pc}
 531              	.L31:
 532              		.align	2
 533              	.L30:
 534 0014 04003A40 		.word	1077542916
 535 0018 FFFFFEFF 		.word	-65537
 536              		.cfi_endproc
 537              	.LFE7:
 538              		.size	ADC_StopConvert, .-ADC_StopConvert
 539              		.section	.text.ADC_IsEndConversion,"ax",%progbits
 540              		.align	2
 541              		.global	ADC_IsEndConversion
ARM GAS  C:\Users\ANDREW~1\AppData\Local\Temp\cchQxSpu.s 			page 18


 542              		.code	16
 543              		.thumb_func
 544              		.type	ADC_IsEndConversion, %function
 545              	ADC_IsEndConversion:
 546              	.LFB8:
 422:Generated_Source\PSoC4/ADC.c **** 
 423:Generated_Source\PSoC4/ADC.c **** 
 424:Generated_Source\PSoC4/ADC.c **** /*******************************************************************************
 425:Generated_Source\PSoC4/ADC.c **** * Function Name: ADC_IsEndConversion
 426:Generated_Source\PSoC4/ADC.c **** ********************************************************************************
 427:Generated_Source\PSoC4/ADC.c **** *
 428:Generated_Source\PSoC4/ADC.c **** * Summary:
 429:Generated_Source\PSoC4/ADC.c **** *  Description: Checks for ADC end of conversion for the case one
 430:Generated_Source\PSoC4/ADC.c **** *  channel and end of scan for the case of multiple channels. It acts
 431:Generated_Source\PSoC4/ADC.c **** *  as a software version of the EOC. This function provides the
 432:Generated_Source\PSoC4/ADC.c **** *  programmer with two options. In one mode this function
 433:Generated_Source\PSoC4/ADC.c **** *  immediately returns with the conversion status. In the other mode,
 434:Generated_Source\PSoC4/ADC.c **** *  the function does not return (blocking) until the conversion has
 435:Generated_Source\PSoC4/ADC.c **** *  completed.
 436:Generated_Source\PSoC4/ADC.c **** *
 437:Generated_Source\PSoC4/ADC.c **** * Parameters:
 438:Generated_Source\PSoC4/ADC.c **** *  ADC_RETURN_STATUS        -> Immediately returns conversion result status
 439:Generated_Source\PSoC4/ADC.c **** *  ADC_WAIT_FOR_RESULT      -> Does not return until ADC complete
 440:Generated_Source\PSoC4/ADC.c **** *  ADC_RETURN_STATUS_INJ    -> Immediately returns conversion result status
 441:Generated_Source\PSoC4/ADC.c **** *                              for injection channel
 442:Generated_Source\PSoC4/ADC.c **** *  ADC_WAIT_FOR_RESULT_INJ  -> Does not return until ADC completes injection
 443:Generated_Source\PSoC4/ADC.c **** *                              channel conversion
 444:Generated_Source\PSoC4/ADC.c **** *
 445:Generated_Source\PSoC4/ADC.c **** * Return:
 446:Generated_Source\PSoC4/ADC.c **** *  If a non-zero value is returned, the last conversion or scan has completed.
 447:Generated_Source\PSoC4/ADC.c **** *  If the returned value is zero, the ADC is still in the process of a scan.
 448:Generated_Source\PSoC4/ADC.c **** *
 449:Generated_Source\PSoC4/ADC.c **** *******************************************************************************/
 450:Generated_Source\PSoC4/ADC.c **** uint32 ADC_IsEndConversion(uint32 retMode)
 451:Generated_Source\PSoC4/ADC.c **** {
 547              		.loc 1 451 0
 548              		.cfi_startproc
 549 0000 80B5     		push	{r7, lr}
 550              		.cfi_def_cfa_offset 8
 551              		.cfi_offset 7, -8
 552              		.cfi_offset 14, -4
 553 0002 84B0     		sub	sp, sp, #16
 554              		.cfi_def_cfa_offset 24
 555 0004 00AF     		add	r7, sp, #0
 556              		.cfi_def_cfa_register 7
 557 0006 7860     		str	r0, [r7, #4]
 452:Generated_Source\PSoC4/ADC.c ****     uint32 status = 0u;
 558              		.loc 1 452 0
 559 0008 0023     		mov	r3, #0
 560 000a FB60     		str	r3, [r7, #12]
 453:Generated_Source\PSoC4/ADC.c **** 
 454:Generated_Source\PSoC4/ADC.c ****     if((retMode & (ADC_RETURN_STATUS | ADC_WAIT_FOR_RESULT)) != 0u)
 561              		.loc 1 454 0
 562 000c 7B68     		ldr	r3, [r7, #4]
 563 000e 0322     		mov	r2, #3
 564 0010 1340     		and	r3, r2
 565 0012 11D0     		beq	.L33
ARM GAS  C:\Users\ANDREW~1\AppData\Local\Temp\cchQxSpu.s 			page 19


 566              	.L35:
 455:Generated_Source\PSoC4/ADC.c ****     {
 456:Generated_Source\PSoC4/ADC.c ****         do
 457:Generated_Source\PSoC4/ADC.c ****         {
 458:Generated_Source\PSoC4/ADC.c ****             status = ADC_SAR_INTR_REG & ADC_EOS_MASK;
 567              		.loc 1 458 0 discriminator 2
 568 0014 0B4B     		ldr	r3, .L37
 569 0016 1B68     		ldr	r3, [r3]
 570 0018 0122     		mov	r2, #1
 571 001a 1340     		and	r3, r2
 572 001c FB60     		str	r3, [r7, #12]
 459:Generated_Source\PSoC4/ADC.c ****         }while((status == 0u) && ((retMode & ADC_WAIT_FOR_RESULT) != 0u));
 573              		.loc 1 459 0 discriminator 2
 574 001e FB68     		ldr	r3, [r7, #12]
 575 0020 002B     		cmp	r3, #0
 576 0022 03D1     		bne	.L34
 577              		.loc 1 459 0 is_stmt 0 discriminator 1
 578 0024 7B68     		ldr	r3, [r7, #4]
 579 0026 0222     		mov	r2, #2
 580 0028 1340     		and	r3, r2
 581 002a F3D1     		bne	.L35
 582              	.L34:
 460:Generated_Source\PSoC4/ADC.c **** 
 461:Generated_Source\PSoC4/ADC.c ****         if(status != 0u)
 583              		.loc 1 461 0 is_stmt 1
 584 002c FB68     		ldr	r3, [r7, #12]
 585 002e 002B     		cmp	r3, #0
 586 0030 02D0     		beq	.L33
 462:Generated_Source\PSoC4/ADC.c ****         {
 463:Generated_Source\PSoC4/ADC.c ****             /* Clear EOS bit */
 464:Generated_Source\PSoC4/ADC.c ****             ADC_SAR_INTR_REG = ADC_EOS_MASK;
 587              		.loc 1 464 0
 588 0032 044B     		ldr	r3, .L37
 589 0034 0122     		mov	r2, #1
 590 0036 1A60     		str	r2, [r3]
 591              	.L33:
 465:Generated_Source\PSoC4/ADC.c ****         }
 466:Generated_Source\PSoC4/ADC.c ****     }
 467:Generated_Source\PSoC4/ADC.c **** 
 468:Generated_Source\PSoC4/ADC.c ****     #if(ADC_INJ_CHANNEL_ENABLED)
 469:Generated_Source\PSoC4/ADC.c ****         if((retMode & (ADC_RETURN_STATUS_INJ | ADC_WAIT_FOR_RESULT_INJ)) != 0u)
 470:Generated_Source\PSoC4/ADC.c ****         {
 471:Generated_Source\PSoC4/ADC.c ****             do
 472:Generated_Source\PSoC4/ADC.c ****             {
 473:Generated_Source\PSoC4/ADC.c ****                 status |= ADC_SAR_INTR_REG & ADC_INJ_EOC_MASK;
 474:Generated_Source\PSoC4/ADC.c ****             }while(((status & ADC_INJ_EOC_MASK) == 0u) &&
 475:Generated_Source\PSoC4/ADC.c ****                    ((retMode & ADC_WAIT_FOR_RESULT_INJ) != 0u));
 476:Generated_Source\PSoC4/ADC.c **** 
 477:Generated_Source\PSoC4/ADC.c ****             if((status & ADC_INJ_EOC_MASK) != 0u)
 478:Generated_Source\PSoC4/ADC.c ****             {
 479:Generated_Source\PSoC4/ADC.c ****                 /* Clear Injection EOS bit */
 480:Generated_Source\PSoC4/ADC.c ****                 ADC_SAR_INTR_REG = ADC_INJ_EOC_MASK;
 481:Generated_Source\PSoC4/ADC.c ****             }
 482:Generated_Source\PSoC4/ADC.c ****         }
 483:Generated_Source\PSoC4/ADC.c ****     #endif /* ADC_INJ_CHANNEL_ENABLED */
 484:Generated_Source\PSoC4/ADC.c **** 
 485:Generated_Source\PSoC4/ADC.c ****     return (status);
ARM GAS  C:\Users\ANDREW~1\AppData\Local\Temp\cchQxSpu.s 			page 20


 592              		.loc 1 485 0
 593 0038 FB68     		ldr	r3, [r7, #12]
 486:Generated_Source\PSoC4/ADC.c **** }
 594              		.loc 1 486 0
 595 003a 181C     		mov	r0, r3
 596 003c BD46     		mov	sp, r7
 597 003e 04B0     		add	sp, sp, #16
 598              		@ sp needed
 599 0040 80BD     		pop	{r7, pc}
 600              	.L38:
 601 0042 C046     		.align	2
 602              	.L37:
 603 0044 10023A40 		.word	1077543440
 604              		.cfi_endproc
 605              	.LFE8:
 606              		.size	ADC_IsEndConversion, .-ADC_IsEndConversion
 607              		.section	.text.ADC_GetResult16,"ax",%progbits
 608              		.align	2
 609              		.global	ADC_GetResult16
 610              		.code	16
 611              		.thumb_func
 612              		.type	ADC_GetResult16, %function
 613              	ADC_GetResult16:
 614              	.LFB9:
 487:Generated_Source\PSoC4/ADC.c **** 
 488:Generated_Source\PSoC4/ADC.c **** 
 489:Generated_Source\PSoC4/ADC.c **** /*******************************************************************************
 490:Generated_Source\PSoC4/ADC.c **** * Function Name: ADC_GetResult16
 491:Generated_Source\PSoC4/ADC.c **** ********************************************************************************
 492:Generated_Source\PSoC4/ADC.c **** *
 493:Generated_Source\PSoC4/ADC.c **** * Summary:
 494:Generated_Source\PSoC4/ADC.c **** *  Gets the data available in the SAR DATA register.
 495:Generated_Source\PSoC4/ADC.c **** *
 496:Generated_Source\PSoC4/ADC.c **** * Parameters:
 497:Generated_Source\PSoC4/ADC.c **** *  chan: The ADC channel in which to return the result. The first channel
 498:Generated_Source\PSoC4/ADC.c **** *  is 0 and the injection channel if enabled is the number of valid channels.
 499:Generated_Source\PSoC4/ADC.c **** *
 500:Generated_Source\PSoC4/ADC.c **** * Return:
 501:Generated_Source\PSoC4/ADC.c **** *  Returns converted data as a signed 16-bit integer
 502:Generated_Source\PSoC4/ADC.c **** *
 503:Generated_Source\PSoC4/ADC.c **** *******************************************************************************/
 504:Generated_Source\PSoC4/ADC.c **** int16 ADC_GetResult16(uint32 chan)
 505:Generated_Source\PSoC4/ADC.c **** {
 615              		.loc 1 505 0
 616              		.cfi_startproc
 617 0000 80B5     		push	{r7, lr}
 618              		.cfi_def_cfa_offset 8
 619              		.cfi_offset 7, -8
 620              		.cfi_offset 14, -4
 621 0002 84B0     		sub	sp, sp, #16
 622              		.cfi_def_cfa_offset 24
 623 0004 00AF     		add	r7, sp, #0
 624              		.cfi_def_cfa_register 7
 625 0006 7860     		str	r0, [r7, #4]
 506:Generated_Source\PSoC4/ADC.c ****     uint32 result;
 507:Generated_Source\PSoC4/ADC.c **** 
 508:Generated_Source\PSoC4/ADC.c ****     /* Halt CPU in debug mode if channel is out of valid range */
ARM GAS  C:\Users\ANDREW~1\AppData\Local\Temp\cchQxSpu.s 			page 21


 509:Generated_Source\PSoC4/ADC.c ****     CYASSERT(chan < ADC_TOTAL_CHANNELS_NUM);
 626              		.loc 1 509 0
 627 0008 7B68     		ldr	r3, [r7, #4]
 628 000a 032B     		cmp	r3, #3
 629 000c 02D9     		bls	.L40
 630              		.loc 1 509 0 is_stmt 0 discriminator 1
 631 000e 0020     		mov	r0, #0
 632 0010 FFF7FEFF 		bl	CyHalt
 633              	.L40:
 510:Generated_Source\PSoC4/ADC.c **** 
 511:Generated_Source\PSoC4/ADC.c ****     if(chan < ADC_SEQUENCED_CHANNELS_NUM)
 634              		.loc 1 511 0 is_stmt 1
 635 0014 7B68     		ldr	r3, [r7, #4]
 636 0016 032B     		cmp	r3, #3
 637 0018 09D8     		bhi	.L41
 512:Generated_Source\PSoC4/ADC.c ****     {
 513:Generated_Source\PSoC4/ADC.c ****         result = CY_GET_REG32((reg32 *)(ADC_SAR_CHAN_RESULT_IND + (uint32)(chan << 2u))) &
 638              		.loc 1 513 0
 639 001a 7B68     		ldr	r3, [r7, #4]
 640 001c 9B00     		lsl	r3, r3, #2
 641 001e 084A     		ldr	r2, .L44
 642 0020 9446     		mov	ip, r2
 643 0022 6344     		add	r3, r3, ip
 644 0024 1B68     		ldr	r3, [r3]
 645 0026 1B04     		lsl	r3, r3, #16
 646 0028 1B0C     		lsr	r3, r3, #16
 647 002a FB60     		str	r3, [r7, #12]
 648 002c 01E0     		b	.L42
 649              	.L41:
 514:Generated_Source\PSoC4/ADC.c ****                 ADC_RESULT_MASK;
 515:Generated_Source\PSoC4/ADC.c ****     }
 516:Generated_Source\PSoC4/ADC.c ****     else
 517:Generated_Source\PSoC4/ADC.c ****     {
 518:Generated_Source\PSoC4/ADC.c ****         #if(ADC_INJ_CHANNEL_ENABLED)
 519:Generated_Source\PSoC4/ADC.c ****             result = ADC_SAR_INJ_RESULT_REG & ADC_RESULT_MASK;
 520:Generated_Source\PSoC4/ADC.c ****         #else
 521:Generated_Source\PSoC4/ADC.c ****             result = 0u;
 650              		.loc 1 521 0
 651 002e 0023     		mov	r3, #0
 652 0030 FB60     		str	r3, [r7, #12]
 653              	.L42:
 522:Generated_Source\PSoC4/ADC.c ****         #endif /* ADC_INJ_CHANNEL_ENABLED */
 523:Generated_Source\PSoC4/ADC.c ****     }
 524:Generated_Source\PSoC4/ADC.c **** 
 525:Generated_Source\PSoC4/ADC.c ****     return ( (int16)result );
 654              		.loc 1 525 0
 655 0032 FB68     		ldr	r3, [r7, #12]
 656 0034 9BB2     		uxth	r3, r3
 657 0036 1BB2     		sxth	r3, r3
 526:Generated_Source\PSoC4/ADC.c **** }
 658              		.loc 1 526 0
 659 0038 181C     		mov	r0, r3
 660 003a BD46     		mov	sp, r7
 661 003c 04B0     		add	sp, sp, #16
 662              		@ sp needed
 663 003e 80BD     		pop	{r7, pc}
 664              	.L45:
ARM GAS  C:\Users\ANDREW~1\AppData\Local\Temp\cchQxSpu.s 			page 22


 665              		.align	2
 666              	.L44:
 667 0040 80013A40 		.word	1077543296
 668              		.cfi_endproc
 669              	.LFE9:
 670              		.size	ADC_GetResult16, .-ADC_GetResult16
 671              		.section	.text.ADC_SetChanMask,"ax",%progbits
 672              		.align	2
 673              		.global	ADC_SetChanMask
 674              		.code	16
 675              		.thumb_func
 676              		.type	ADC_SetChanMask, %function
 677              	ADC_SetChanMask:
 678              	.LFB10:
 527:Generated_Source\PSoC4/ADC.c **** 
 528:Generated_Source\PSoC4/ADC.c **** 
 529:Generated_Source\PSoC4/ADC.c **** /*******************************************************************************
 530:Generated_Source\PSoC4/ADC.c **** * Function Name: ADC_SetChanMask
 531:Generated_Source\PSoC4/ADC.c **** ********************************************************************************
 532:Generated_Source\PSoC4/ADC.c **** *
 533:Generated_Source\PSoC4/ADC.c **** * Summary:
 534:Generated_Source\PSoC4/ADC.c **** *  Sets the channel enable mask.
 535:Generated_Source\PSoC4/ADC.c **** *
 536:Generated_Source\PSoC4/ADC.c **** * Parameters:
 537:Generated_Source\PSoC4/ADC.c **** *  mask: Sets which channels that will be
 538:Generated_Source\PSoC4/ADC.c **** *  scanned. Setting bits for channels that do not exist will have no
 539:Generated_Source\PSoC4/ADC.c **** *  effect. For example, if only 6 channels were enabled, setting a
 540:Generated_Source\PSoC4/ADC.c **** *  mask of 0x0103 would only enable the last two channels (0 and 1).
 541:Generated_Source\PSoC4/ADC.c **** *  This API will not enable the injection channel.
 542:Generated_Source\PSoC4/ADC.c **** *  Examples: If the component is setup to sequence through 8
 543:Generated_Source\PSoC4/ADC.c **** *  channels, a mask of 0x000F would enable channels 0, 1, 2, and 3.
 544:Generated_Source\PSoC4/ADC.c **** *
 545:Generated_Source\PSoC4/ADC.c **** * Return:
 546:Generated_Source\PSoC4/ADC.c **** *  None.
 547:Generated_Source\PSoC4/ADC.c **** *
 548:Generated_Source\PSoC4/ADC.c **** *******************************************************************************/
 549:Generated_Source\PSoC4/ADC.c **** void ADC_SetChanMask(uint32 mask)
 550:Generated_Source\PSoC4/ADC.c **** {
 679              		.loc 1 550 0
 680              		.cfi_startproc
 681 0000 80B5     		push	{r7, lr}
 682              		.cfi_def_cfa_offset 8
 683              		.cfi_offset 7, -8
 684              		.cfi_offset 14, -4
 685 0002 82B0     		sub	sp, sp, #8
 686              		.cfi_def_cfa_offset 16
 687 0004 00AF     		add	r7, sp, #0
 688              		.cfi_def_cfa_register 7
 689 0006 7860     		str	r0, [r7, #4]
 551:Generated_Source\PSoC4/ADC.c ****     ADC_SAR_CHAN_EN_REG = mask & ADC_MAX_CHANNELS_EN_MASK;
 690              		.loc 1 551 0
 691 0008 034B     		ldr	r3, .L47
 692 000a 7A68     		ldr	r2, [r7, #4]
 693 000c 0F21     		mov	r1, #15
 694 000e 0A40     		and	r2, r1
 695 0010 1A60     		str	r2, [r3]
 552:Generated_Source\PSoC4/ADC.c **** }
ARM GAS  C:\Users\ANDREW~1\AppData\Local\Temp\cchQxSpu.s 			page 23


 696              		.loc 1 552 0
 697 0012 BD46     		mov	sp, r7
 698 0014 02B0     		add	sp, sp, #8
 699              		@ sp needed
 700 0016 80BD     		pop	{r7, pc}
 701              	.L48:
 702              		.align	2
 703              	.L47:
 704 0018 20003A40 		.word	1077542944
 705              		.cfi_endproc
 706              	.LFE10:
 707              		.size	ADC_SetChanMask, .-ADC_SetChanMask
 708              		.section	.text.ADC_SetLowLimit,"ax",%progbits
 709              		.align	2
 710              		.global	ADC_SetLowLimit
 711              		.code	16
 712              		.thumb_func
 713              		.type	ADC_SetLowLimit, %function
 714              	ADC_SetLowLimit:
 715              	.LFB11:
 553:Generated_Source\PSoC4/ADC.c **** 
 554:Generated_Source\PSoC4/ADC.c **** #if(ADC_INJ_CHANNEL_ENABLED)
 555:Generated_Source\PSoC4/ADC.c **** 
 556:Generated_Source\PSoC4/ADC.c **** 
 557:Generated_Source\PSoC4/ADC.c ****     /*******************************************************************************
 558:Generated_Source\PSoC4/ADC.c ****     * Function Name: ADC_EnableInjection
 559:Generated_Source\PSoC4/ADC.c ****     ********************************************************************************
 560:Generated_Source\PSoC4/ADC.c ****     *
 561:Generated_Source\PSoC4/ADC.c ****     * Summary:
 562:Generated_Source\PSoC4/ADC.c ****     *  Enables the injection channel for the next scan only.
 563:Generated_Source\PSoC4/ADC.c ****     *
 564:Generated_Source\PSoC4/ADC.c ****     * Parameters:
 565:Generated_Source\PSoC4/ADC.c ****     *  None.
 566:Generated_Source\PSoC4/ADC.c ****     *
 567:Generated_Source\PSoC4/ADC.c ****     * Return:
 568:Generated_Source\PSoC4/ADC.c ****     *  None.
 569:Generated_Source\PSoC4/ADC.c ****     *
 570:Generated_Source\PSoC4/ADC.c ****     *******************************************************************************/
 571:Generated_Source\PSoC4/ADC.c ****     void ADC_EnableInjection(void)
 572:Generated_Source\PSoC4/ADC.c ****     {
 573:Generated_Source\PSoC4/ADC.c ****         ADC_SAR_INJ_CHAN_CONFIG_REG |= ADC_INJ_CHAN_EN;
 574:Generated_Source\PSoC4/ADC.c ****     }
 575:Generated_Source\PSoC4/ADC.c **** 
 576:Generated_Source\PSoC4/ADC.c **** #endif /* ADC_INJ_CHANNEL_ENABLED */
 577:Generated_Source\PSoC4/ADC.c **** 
 578:Generated_Source\PSoC4/ADC.c **** 
 579:Generated_Source\PSoC4/ADC.c **** /*******************************************************************************
 580:Generated_Source\PSoC4/ADC.c **** * Function Name: ADC_SetLowLimit
 581:Generated_Source\PSoC4/ADC.c **** ********************************************************************************
 582:Generated_Source\PSoC4/ADC.c **** *
 583:Generated_Source\PSoC4/ADC.c **** * Summary:
 584:Generated_Source\PSoC4/ADC.c **** *  Sets the low limit parameter for a limit condition.
 585:Generated_Source\PSoC4/ADC.c **** *
 586:Generated_Source\PSoC4/ADC.c **** * Parameters:
 587:Generated_Source\PSoC4/ADC.c **** *  lowLimit: The low limit for a limit condition.
 588:Generated_Source\PSoC4/ADC.c **** *
 589:Generated_Source\PSoC4/ADC.c **** * Return:
ARM GAS  C:\Users\ANDREW~1\AppData\Local\Temp\cchQxSpu.s 			page 24


 590:Generated_Source\PSoC4/ADC.c **** *  None.
 591:Generated_Source\PSoC4/ADC.c **** *
 592:Generated_Source\PSoC4/ADC.c **** *******************************************************************************/
 593:Generated_Source\PSoC4/ADC.c **** void ADC_SetLowLimit(uint32 lowLimit)
 594:Generated_Source\PSoC4/ADC.c **** {
 716              		.loc 1 594 0
 717              		.cfi_startproc
 718 0000 80B5     		push	{r7, lr}
 719              		.cfi_def_cfa_offset 8
 720              		.cfi_offset 7, -8
 721              		.cfi_offset 14, -4
 722 0002 82B0     		sub	sp, sp, #8
 723              		.cfi_def_cfa_offset 16
 724 0004 00AF     		add	r7, sp, #0
 725              		.cfi_def_cfa_register 7
 726 0006 7860     		str	r0, [r7, #4]
 595:Generated_Source\PSoC4/ADC.c ****     ADC_SAR_RANGE_THRES_REG &= (uint32)(~ADC_RANGE_LOW_MASK);
 727              		.loc 1 595 0
 728 0008 084B     		ldr	r3, .L50
 729 000a 084A     		ldr	r2, .L50
 730 000c 1268     		ldr	r2, [r2]
 731 000e 120C     		lsr	r2, r2, #16
 732 0010 1204     		lsl	r2, r2, #16
 733 0012 1A60     		str	r2, [r3]
 596:Generated_Source\PSoC4/ADC.c ****     ADC_SAR_RANGE_THRES_REG |= lowLimit & ADC_RANGE_LOW_MASK;
 734              		.loc 1 596 0
 735 0014 054B     		ldr	r3, .L50
 736 0016 054A     		ldr	r2, .L50
 737 0018 1168     		ldr	r1, [r2]
 738 001a 7A68     		ldr	r2, [r7, #4]
 739 001c 1204     		lsl	r2, r2, #16
 740 001e 120C     		lsr	r2, r2, #16
 741 0020 0A43     		orr	r2, r1
 742 0022 1A60     		str	r2, [r3]
 597:Generated_Source\PSoC4/ADC.c **** }
 743              		.loc 1 597 0
 744 0024 BD46     		mov	sp, r7
 745 0026 02B0     		add	sp, sp, #8
 746              		@ sp needed
 747 0028 80BD     		pop	{r7, pc}
 748              	.L51:
 749 002a C046     		.align	2
 750              	.L50:
 751 002c 18003A40 		.word	1077542936
 752              		.cfi_endproc
 753              	.LFE11:
 754              		.size	ADC_SetLowLimit, .-ADC_SetLowLimit
 755              		.section	.text.ADC_SetHighLimit,"ax",%progbits
 756              		.align	2
 757              		.global	ADC_SetHighLimit
 758              		.code	16
 759              		.thumb_func
 760              		.type	ADC_SetHighLimit, %function
 761              	ADC_SetHighLimit:
 762              	.LFB12:
 598:Generated_Source\PSoC4/ADC.c **** 
 599:Generated_Source\PSoC4/ADC.c **** 
ARM GAS  C:\Users\ANDREW~1\AppData\Local\Temp\cchQxSpu.s 			page 25


 600:Generated_Source\PSoC4/ADC.c **** /*******************************************************************************
 601:Generated_Source\PSoC4/ADC.c **** * Function Name: ADC_SetHighLimit
 602:Generated_Source\PSoC4/ADC.c **** ********************************************************************************
 603:Generated_Source\PSoC4/ADC.c **** *
 604:Generated_Source\PSoC4/ADC.c **** * Summary:
 605:Generated_Source\PSoC4/ADC.c **** *  Sets the low limit parameter for a limit condition.
 606:Generated_Source\PSoC4/ADC.c **** *
 607:Generated_Source\PSoC4/ADC.c **** * Parameters:
 608:Generated_Source\PSoC4/ADC.c **** *  highLimit: The high limit for a limit condition.
 609:Generated_Source\PSoC4/ADC.c **** *
 610:Generated_Source\PSoC4/ADC.c **** * Return:
 611:Generated_Source\PSoC4/ADC.c **** *  None.
 612:Generated_Source\PSoC4/ADC.c **** *
 613:Generated_Source\PSoC4/ADC.c **** *******************************************************************************/
 614:Generated_Source\PSoC4/ADC.c **** void ADC_SetHighLimit(uint32 highLimit)
 615:Generated_Source\PSoC4/ADC.c **** {
 763              		.loc 1 615 0
 764              		.cfi_startproc
 765 0000 80B5     		push	{r7, lr}
 766              		.cfi_def_cfa_offset 8
 767              		.cfi_offset 7, -8
 768              		.cfi_offset 14, -4
 769 0002 82B0     		sub	sp, sp, #8
 770              		.cfi_def_cfa_offset 16
 771 0004 00AF     		add	r7, sp, #0
 772              		.cfi_def_cfa_register 7
 773 0006 7860     		str	r0, [r7, #4]
 616:Generated_Source\PSoC4/ADC.c ****     ADC_SAR_RANGE_THRES_REG &= (uint32)(~ADC_RANGE_HIGH_MASK);
 774              		.loc 1 616 0
 775 0008 074B     		ldr	r3, .L53
 776 000a 074A     		ldr	r2, .L53
 777 000c 1268     		ldr	r2, [r2]
 778 000e 1204     		lsl	r2, r2, #16
 779 0010 120C     		lsr	r2, r2, #16
 780 0012 1A60     		str	r2, [r3]
 617:Generated_Source\PSoC4/ADC.c ****     ADC_SAR_RANGE_THRES_REG |= (uint32)(highLimit << ADC_RANGE_HIGH_OFFSET);
 781              		.loc 1 617 0
 782 0014 044B     		ldr	r3, .L53
 783 0016 044A     		ldr	r2, .L53
 784 0018 1168     		ldr	r1, [r2]
 785 001a 7A68     		ldr	r2, [r7, #4]
 786 001c 1204     		lsl	r2, r2, #16
 787 001e 0A43     		orr	r2, r1
 788 0020 1A60     		str	r2, [r3]
 618:Generated_Source\PSoC4/ADC.c **** }
 789              		.loc 1 618 0
 790 0022 BD46     		mov	sp, r7
 791 0024 02B0     		add	sp, sp, #8
 792              		@ sp needed
 793 0026 80BD     		pop	{r7, pc}
 794              	.L54:
 795              		.align	2
 796              	.L53:
 797 0028 18003A40 		.word	1077542936
 798              		.cfi_endproc
 799              	.LFE12:
 800              		.size	ADC_SetHighLimit, .-ADC_SetHighLimit
ARM GAS  C:\Users\ANDREW~1\AppData\Local\Temp\cchQxSpu.s 			page 26


 801              		.section	.text.ADC_SetLimitMask,"ax",%progbits
 802              		.align	2
 803              		.global	ADC_SetLimitMask
 804              		.code	16
 805              		.thumb_func
 806              		.type	ADC_SetLimitMask, %function
 807              	ADC_SetLimitMask:
 808              	.LFB13:
 619:Generated_Source\PSoC4/ADC.c **** 
 620:Generated_Source\PSoC4/ADC.c **** 
 621:Generated_Source\PSoC4/ADC.c **** /*******************************************************************************
 622:Generated_Source\PSoC4/ADC.c **** * Function Name: ADC_SetLimitMask
 623:Generated_Source\PSoC4/ADC.c **** ********************************************************************************
 624:Generated_Source\PSoC4/ADC.c **** *
 625:Generated_Source\PSoC4/ADC.c **** * Summary:
 626:Generated_Source\PSoC4/ADC.c **** *  Sets the channel limit condition mask.
 627:Generated_Source\PSoC4/ADC.c **** *
 628:Generated_Source\PSoC4/ADC.c **** * Parameters:
 629:Generated_Source\PSoC4/ADC.c **** *  mask: Sets which channels that may cause a
 630:Generated_Source\PSoC4/ADC.c **** *  limit condition interrupt. Setting bits for channels that do not exist
 631:Generated_Source\PSoC4/ADC.c **** *  will have no effect. For example, if only 6 channels were enabled,
 632:Generated_Source\PSoC4/ADC.c **** *  setting a mask of 0x0103 would only enable the last two channels (0 and 1).
 633:Generated_Source\PSoC4/ADC.c **** *
 634:Generated_Source\PSoC4/ADC.c **** * Return:
 635:Generated_Source\PSoC4/ADC.c **** *  None.
 636:Generated_Source\PSoC4/ADC.c **** *
 637:Generated_Source\PSoC4/ADC.c **** *******************************************************************************/
 638:Generated_Source\PSoC4/ADC.c **** void ADC_SetLimitMask(uint32 mask)
 639:Generated_Source\PSoC4/ADC.c **** {
 809              		.loc 1 639 0
 810              		.cfi_startproc
 811 0000 80B5     		push	{r7, lr}
 812              		.cfi_def_cfa_offset 8
 813              		.cfi_offset 7, -8
 814              		.cfi_offset 14, -4
 815 0002 82B0     		sub	sp, sp, #8
 816              		.cfi_def_cfa_offset 16
 817 0004 00AF     		add	r7, sp, #0
 818              		.cfi_def_cfa_register 7
 819 0006 7860     		str	r0, [r7, #4]
 640:Generated_Source\PSoC4/ADC.c ****     ADC_SAR_RANGE_INTR_MASK_REG = mask & ADC_MAX_CHANNELS_EN_MASK;
 820              		.loc 1 640 0
 821 0008 034B     		ldr	r3, .L56
 822 000a 7A68     		ldr	r2, [r7, #4]
 823 000c 0F21     		mov	r1, #15
 824 000e 0A40     		and	r2, r1
 825 0010 1A60     		str	r2, [r3]
 641:Generated_Source\PSoC4/ADC.c **** }
 826              		.loc 1 641 0
 827 0012 BD46     		mov	sp, r7
 828 0014 02B0     		add	sp, sp, #8
 829              		@ sp needed
 830 0016 80BD     		pop	{r7, pc}
 831              	.L57:
 832              		.align	2
 833              	.L56:
 834 0018 38023A40 		.word	1077543480
ARM GAS  C:\Users\ANDREW~1\AppData\Local\Temp\cchQxSpu.s 			page 27


 835              		.cfi_endproc
 836              	.LFE13:
 837              		.size	ADC_SetLimitMask, .-ADC_SetLimitMask
 838              		.section	.text.ADC_SetSatMask,"ax",%progbits
 839              		.align	2
 840              		.global	ADC_SetSatMask
 841              		.code	16
 842              		.thumb_func
 843              		.type	ADC_SetSatMask, %function
 844              	ADC_SetSatMask:
 845              	.LFB14:
 642:Generated_Source\PSoC4/ADC.c **** 
 643:Generated_Source\PSoC4/ADC.c **** 
 644:Generated_Source\PSoC4/ADC.c **** /*******************************************************************************
 645:Generated_Source\PSoC4/ADC.c **** * Function Name: ADC_SetSatMask
 646:Generated_Source\PSoC4/ADC.c **** ********************************************************************************
 647:Generated_Source\PSoC4/ADC.c **** *
 648:Generated_Source\PSoC4/ADC.c **** * Summary:
 649:Generated_Source\PSoC4/ADC.c **** *  Sets the channel saturation event mask.
 650:Generated_Source\PSoC4/ADC.c **** *
 651:Generated_Source\PSoC4/ADC.c **** * Parameters:
 652:Generated_Source\PSoC4/ADC.c **** *  mask: Sets which channels that may cause a
 653:Generated_Source\PSoC4/ADC.c **** *  saturation event interrupt. Setting bits for channels that do not exist
 654:Generated_Source\PSoC4/ADC.c **** *  will have no effect. For example, if only 8 channels were enabled,
 655:Generated_Source\PSoC4/ADC.c **** *  setting a mask of 0x01C0 would only enable two channels (6 and 7).
 656:Generated_Source\PSoC4/ADC.c **** *
 657:Generated_Source\PSoC4/ADC.c **** * Return:
 658:Generated_Source\PSoC4/ADC.c **** *  None.
 659:Generated_Source\PSoC4/ADC.c **** *
 660:Generated_Source\PSoC4/ADC.c **** *******************************************************************************/
 661:Generated_Source\PSoC4/ADC.c **** void ADC_SetSatMask(uint32 mask)
 662:Generated_Source\PSoC4/ADC.c **** {
 846              		.loc 1 662 0
 847              		.cfi_startproc
 848 0000 80B5     		push	{r7, lr}
 849              		.cfi_def_cfa_offset 8
 850              		.cfi_offset 7, -8
 851              		.cfi_offset 14, -4
 852 0002 82B0     		sub	sp, sp, #8
 853              		.cfi_def_cfa_offset 16
 854 0004 00AF     		add	r7, sp, #0
 855              		.cfi_def_cfa_register 7
 856 0006 7860     		str	r0, [r7, #4]
 663:Generated_Source\PSoC4/ADC.c ****     ADC_SAR_SATURATE_INTR_MASK_REG = mask & ADC_MAX_CHANNELS_EN_MASK;
 857              		.loc 1 663 0
 858 0008 034B     		ldr	r3, .L59
 859 000a 7A68     		ldr	r2, [r7, #4]
 860 000c 0F21     		mov	r1, #15
 861 000e 0A40     		and	r2, r1
 862 0010 1A60     		str	r2, [r3]
 664:Generated_Source\PSoC4/ADC.c **** }
 863              		.loc 1 664 0
 864 0012 BD46     		mov	sp, r7
 865 0014 02B0     		add	sp, sp, #8
 866              		@ sp needed
 867 0016 80BD     		pop	{r7, pc}
 868              	.L60:
ARM GAS  C:\Users\ANDREW~1\AppData\Local\Temp\cchQxSpu.s 			page 28


 869              		.align	2
 870              	.L59:
 871 0018 28023A40 		.word	1077543464
 872              		.cfi_endproc
 873              	.LFE14:
 874              		.size	ADC_SetSatMask, .-ADC_SetSatMask
 875              		.section	.text.ADC_SetOffset,"ax",%progbits
 876              		.align	2
 877              		.global	ADC_SetOffset
 878              		.code	16
 879              		.thumb_func
 880              		.type	ADC_SetOffset, %function
 881              	ADC_SetOffset:
 882              	.LFB15:
 665:Generated_Source\PSoC4/ADC.c **** 
 666:Generated_Source\PSoC4/ADC.c **** 
 667:Generated_Source\PSoC4/ADC.c **** /*******************************************************************************
 668:Generated_Source\PSoC4/ADC.c **** * Function Name: ADC_SetOffset
 669:Generated_Source\PSoC4/ADC.c **** ********************************************************************************
 670:Generated_Source\PSoC4/ADC.c **** *
 671:Generated_Source\PSoC4/ADC.c **** * Summary:
 672:Generated_Source\PSoC4/ADC.c **** *   Description: Sets the ADC offset which is used by the functions
 673:Generated_Source\PSoC4/ADC.c **** *   ADC_CountsTo_uVolts, ADC_CountsTo_mVolts and ADC_CountsTo_Volts
 674:Generated_Source\PSoC4/ADC.c **** *   to substract the offset from the given reading
 675:Generated_Source\PSoC4/ADC.c **** *   before calculating the voltage conversion.
 676:Generated_Source\PSoC4/ADC.c **** *
 677:Generated_Source\PSoC4/ADC.c **** * Parameters:
 678:Generated_Source\PSoC4/ADC.c **** *  chan: ADC channel number.
 679:Generated_Source\PSoC4/ADC.c **** *  offset: This value is a measured value when the
 680:Generated_Source\PSoC4/ADC.c **** *          inputs are shorted or connected to the same input voltage.
 681:Generated_Source\PSoC4/ADC.c **** *
 682:Generated_Source\PSoC4/ADC.c **** * Return:
 683:Generated_Source\PSoC4/ADC.c **** *  None.
 684:Generated_Source\PSoC4/ADC.c **** *
 685:Generated_Source\PSoC4/ADC.c **** * Global variables:
 686:Generated_Source\PSoC4/ADC.c **** *  ADC_Offset:  Modified to set the user provided offset.
 687:Generated_Source\PSoC4/ADC.c **** *
 688:Generated_Source\PSoC4/ADC.c **** *******************************************************************************/
 689:Generated_Source\PSoC4/ADC.c **** void ADC_SetOffset(uint32 chan, int16 offset)
 690:Generated_Source\PSoC4/ADC.c **** {
 883              		.loc 1 690 0
 884              		.cfi_startproc
 885 0000 80B5     		push	{r7, lr}
 886              		.cfi_def_cfa_offset 8
 887              		.cfi_offset 7, -8
 888              		.cfi_offset 14, -4
 889 0002 82B0     		sub	sp, sp, #8
 890              		.cfi_def_cfa_offset 16
 891 0004 00AF     		add	r7, sp, #0
 892              		.cfi_def_cfa_register 7
 893 0006 7860     		str	r0, [r7, #4]
 894 0008 0A1C     		mov	r2, r1
 895 000a BB1C     		add	r3, r7, #2
 896 000c 1A80     		strh	r2, [r3]
 691:Generated_Source\PSoC4/ADC.c ****     /* Halt CPU in debug mode if channel is out of valid range */
 692:Generated_Source\PSoC4/ADC.c ****     CYASSERT(chan < ADC_TOTAL_CHANNELS_NUM);
 897              		.loc 1 692 0
ARM GAS  C:\Users\ANDREW~1\AppData\Local\Temp\cchQxSpu.s 			page 29


 898 000e 7B68     		ldr	r3, [r7, #4]
 899 0010 032B     		cmp	r3, #3
 900 0012 02D9     		bls	.L62
 901              		.loc 1 692 0 is_stmt 0 discriminator 1
 902 0014 0020     		mov	r0, #0
 903 0016 FFF7FEFF 		bl	CyHalt
 904              	.L62:
 693:Generated_Source\PSoC4/ADC.c **** 
 694:Generated_Source\PSoC4/ADC.c ****     ADC_offset[chan] = offset;
 905              		.loc 1 694 0 is_stmt 1
 906 001a 044B     		ldr	r3, .L63
 907 001c 7A68     		ldr	r2, [r7, #4]
 908 001e 5200     		lsl	r2, r2, #1
 909 0020 B91C     		add	r1, r7, #2
 910 0022 0988     		ldrh	r1, [r1]
 911 0024 D152     		strh	r1, [r2, r3]
 695:Generated_Source\PSoC4/ADC.c **** }
 912              		.loc 1 695 0
 913 0026 BD46     		mov	sp, r7
 914 0028 02B0     		add	sp, sp, #8
 915              		@ sp needed
 916 002a 80BD     		pop	{r7, pc}
 917              	.L64:
 918              		.align	2
 919              	.L63:
 920 002c 00000000 		.word	ADC_offset
 921              		.cfi_endproc
 922              	.LFE15:
 923              		.size	ADC_SetOffset, .-ADC_SetOffset
 924              		.section	.text.ADC_SetGain,"ax",%progbits
 925              		.align	2
 926              		.global	ADC_SetGain
 927              		.code	16
 928              		.thumb_func
 929              		.type	ADC_SetGain, %function
 930              	ADC_SetGain:
 931              	.LFB16:
 696:Generated_Source\PSoC4/ADC.c **** 
 697:Generated_Source\PSoC4/ADC.c **** 
 698:Generated_Source\PSoC4/ADC.c **** /*******************************************************************************
 699:Generated_Source\PSoC4/ADC.c **** * Function Name: ADC_SetGain
 700:Generated_Source\PSoC4/ADC.c **** ********************************************************************************
 701:Generated_Source\PSoC4/ADC.c **** *
 702:Generated_Source\PSoC4/ADC.c **** * Summary:
 703:Generated_Source\PSoC4/ADC.c **** *  Description: Sets the ADC gain in counts per 10 volt for the voltage
 704:Generated_Source\PSoC4/ADC.c **** *  conversion functions below. This value is set by default by the
 705:Generated_Source\PSoC4/ADC.c **** *  reference and input range settings. It should only be used to further
 706:Generated_Source\PSoC4/ADC.c **** *  calibrate the ADC with a known input or if an external reference is
 707:Generated_Source\PSoC4/ADC.c **** *  used. Affects the ADC_CountsTo_uVolts, ADC_CountsTo_mVolts
 708:Generated_Source\PSoC4/ADC.c **** *  and ADC_CountsTo_Volts functions by supplying the correct
 709:Generated_Source\PSoC4/ADC.c **** *  conversion between ADC counts and voltage.
 710:Generated_Source\PSoC4/ADC.c **** *
 711:Generated_Source\PSoC4/ADC.c **** * Parameters:
 712:Generated_Source\PSoC4/ADC.c **** *  chan: ADC channel number.
 713:Generated_Source\PSoC4/ADC.c **** *  adcGain: ADC gain in counts per 10 volts.
 714:Generated_Source\PSoC4/ADC.c **** *
 715:Generated_Source\PSoC4/ADC.c **** * Return:
ARM GAS  C:\Users\ANDREW~1\AppData\Local\Temp\cchQxSpu.s 			page 30


 716:Generated_Source\PSoC4/ADC.c **** *  None.
 717:Generated_Source\PSoC4/ADC.c **** *
 718:Generated_Source\PSoC4/ADC.c **** * Global variables:
 719:Generated_Source\PSoC4/ADC.c **** *  ADC_CountsPer10Volt:  modified to set the ADC gain in counts
 720:Generated_Source\PSoC4/ADC.c **** *   per 10 volt.
 721:Generated_Source\PSoC4/ADC.c **** *
 722:Generated_Source\PSoC4/ADC.c **** *******************************************************************************/
 723:Generated_Source\PSoC4/ADC.c **** void ADC_SetGain(uint32 chan, int32 adcGain)
 724:Generated_Source\PSoC4/ADC.c **** {
 932              		.loc 1 724 0
 933              		.cfi_startproc
 934 0000 80B5     		push	{r7, lr}
 935              		.cfi_def_cfa_offset 8
 936              		.cfi_offset 7, -8
 937              		.cfi_offset 14, -4
 938 0002 82B0     		sub	sp, sp, #8
 939              		.cfi_def_cfa_offset 16
 940 0004 00AF     		add	r7, sp, #0
 941              		.cfi_def_cfa_register 7
 942 0006 7860     		str	r0, [r7, #4]
 943 0008 3960     		str	r1, [r7]
 725:Generated_Source\PSoC4/ADC.c ****     /* Halt CPU in debug mode if channel is out of valid range */
 726:Generated_Source\PSoC4/ADC.c ****     CYASSERT(chan < ADC_TOTAL_CHANNELS_NUM);
 944              		.loc 1 726 0
 945 000a 7B68     		ldr	r3, [r7, #4]
 946 000c 032B     		cmp	r3, #3
 947 000e 02D9     		bls	.L66
 948              		.loc 1 726 0 is_stmt 0 discriminator 1
 949 0010 0020     		mov	r0, #0
 950 0012 FFF7FEFF 		bl	CyHalt
 951              	.L66:
 727:Generated_Source\PSoC4/ADC.c **** 
 728:Generated_Source\PSoC4/ADC.c ****     ADC_countsPer10Volt[chan] = adcGain;
 952              		.loc 1 728 0 is_stmt 1
 953 0016 044B     		ldr	r3, .L67
 954 0018 7A68     		ldr	r2, [r7, #4]
 955 001a 9200     		lsl	r2, r2, #2
 956 001c 3968     		ldr	r1, [r7]
 957 001e D150     		str	r1, [r2, r3]
 729:Generated_Source\PSoC4/ADC.c **** }
 958              		.loc 1 729 0
 959 0020 BD46     		mov	sp, r7
 960 0022 02B0     		add	sp, sp, #8
 961              		@ sp needed
 962 0024 80BD     		pop	{r7, pc}
 963              	.L68:
 964 0026 C046     		.align	2
 965              	.L67:
 966 0028 00000000 		.word	ADC_countsPer10Volt
 967              		.cfi_endproc
 968              	.LFE16:
 969              		.size	ADC_SetGain, .-ADC_SetGain
 970              		.section	.text.ADC_CountsTo_mVolts,"ax",%progbits
 971              		.align	2
 972              		.global	ADC_CountsTo_mVolts
 973              		.code	16
 974              		.thumb_func
ARM GAS  C:\Users\ANDREW~1\AppData\Local\Temp\cchQxSpu.s 			page 31


 975              		.type	ADC_CountsTo_mVolts, %function
 976              	ADC_CountsTo_mVolts:
 977              	.LFB17:
 730:Generated_Source\PSoC4/ADC.c **** 
 731:Generated_Source\PSoC4/ADC.c **** 
 732:Generated_Source\PSoC4/ADC.c **** #if(ADC_DEFAULT_JUSTIFICATION_SEL == ADC__RIGHT)
 733:Generated_Source\PSoC4/ADC.c **** 
 734:Generated_Source\PSoC4/ADC.c **** 
 735:Generated_Source\PSoC4/ADC.c ****     /*******************************************************************************
 736:Generated_Source\PSoC4/ADC.c ****     * Function Name: ADC_CountsTo_mVolts
 737:Generated_Source\PSoC4/ADC.c ****     ********************************************************************************
 738:Generated_Source\PSoC4/ADC.c ****     *
 739:Generated_Source\PSoC4/ADC.c ****     * Summary:
 740:Generated_Source\PSoC4/ADC.c ****     *  This function converts ADC counts to mVolts
 741:Generated_Source\PSoC4/ADC.c ****     *  This function is not available when left data format justification selected.
 742:Generated_Source\PSoC4/ADC.c ****     *
 743:Generated_Source\PSoC4/ADC.c ****     * Parameters:
 744:Generated_Source\PSoC4/ADC.c ****     *  chan: The ADC channel number.
 745:Generated_Source\PSoC4/ADC.c ****     *  adcCounts: Result from the ADC conversion
 746:Generated_Source\PSoC4/ADC.c ****     *
 747:Generated_Source\PSoC4/ADC.c ****     * Return:
 748:Generated_Source\PSoC4/ADC.c ****     *  Results in mVolts
 749:Generated_Source\PSoC4/ADC.c ****     *
 750:Generated_Source\PSoC4/ADC.c ****     * Global variables:
 751:Generated_Source\PSoC4/ADC.c ****     *  ADC_countsPer10Volt:  used to convert ADC counts to mVolts.
 752:Generated_Source\PSoC4/ADC.c ****     *  ADC_Offset:  Used as the offset while converting ADC counts
 753:Generated_Source\PSoC4/ADC.c ****     *   to mVolts.
 754:Generated_Source\PSoC4/ADC.c ****     *
 755:Generated_Source\PSoC4/ADC.c ****     *******************************************************************************/
 756:Generated_Source\PSoC4/ADC.c ****     int16 ADC_CountsTo_mVolts(uint32 chan, int16 adcCounts)
 757:Generated_Source\PSoC4/ADC.c ****     {
 978              		.loc 1 757 0
 979              		.cfi_startproc
 980 0000 80B5     		push	{r7, lr}
 981              		.cfi_def_cfa_offset 8
 982              		.cfi_offset 7, -8
 983              		.cfi_offset 14, -4
 984 0002 84B0     		sub	sp, sp, #16
 985              		.cfi_def_cfa_offset 24
 986 0004 00AF     		add	r7, sp, #0
 987              		.cfi_def_cfa_register 7
 988 0006 7860     		str	r0, [r7, #4]
 989 0008 0A1C     		mov	r2, r1
 990 000a BB1C     		add	r3, r7, #2
 991 000c 1A80     		strh	r2, [r3]
 758:Generated_Source\PSoC4/ADC.c ****         int16 mVolts;
 759:Generated_Source\PSoC4/ADC.c **** 
 760:Generated_Source\PSoC4/ADC.c ****         /* Halt CPU in debug mode if channel is out of valid range */
 761:Generated_Source\PSoC4/ADC.c ****         CYASSERT(chan < ADC_TOTAL_CHANNELS_NUM);
 992              		.loc 1 761 0
 993 000e 7B68     		ldr	r3, [r7, #4]
 994 0010 032B     		cmp	r3, #3
 995 0012 02D9     		bls	.L70
 996              		.loc 1 761 0 is_stmt 0 discriminator 1
 997 0014 0020     		mov	r0, #0
 998 0016 FFF7FEFF 		bl	CyHalt
 999              	.L70:
ARM GAS  C:\Users\ANDREW~1\AppData\Local\Temp\cchQxSpu.s 			page 32


 762:Generated_Source\PSoC4/ADC.c **** 
 763:Generated_Source\PSoC4/ADC.c ****         /* Divide the adcCount when accumulate averaging mode selected */
 764:Generated_Source\PSoC4/ADC.c ****         #if(ADC_DEFAULT_AVG_MODE == ADC__ACCUMULATE)
 765:Generated_Source\PSoC4/ADC.c ****             if((ADC_channelsConfig[chan] & ADC_AVERAGING_EN) != 0u)
 766:Generated_Source\PSoC4/ADC.c ****             {
 767:Generated_Source\PSoC4/ADC.c ****                 adcCounts /= ADC_DEFAULT_AVG_SAMPLES_DIV;
 768:Generated_Source\PSoC4/ADC.c ****             }
 769:Generated_Source\PSoC4/ADC.c ****         #endif /* ADC_DEFAULT_AVG_MODE == ADC__ACCUMULATE */
 770:Generated_Source\PSoC4/ADC.c **** 
 771:Generated_Source\PSoC4/ADC.c ****         /* Subtract ADC offset */
 772:Generated_Source\PSoC4/ADC.c ****         adcCounts -= ADC_offset[chan];
 1000              		.loc 1 772 0 is_stmt 1
 1001 001a 1F4B     		ldr	r3, .L76
 1002 001c 7A68     		ldr	r2, [r7, #4]
 1003 001e 5200     		lsl	r2, r2, #1
 1004 0020 D35A     		ldrh	r3, [r2, r3]
 1005 0022 99B2     		uxth	r1, r3
 1006 0024 BB1C     		add	r3, r7, #2
 1007 0026 1A88     		ldrh	r2, [r3]
 1008 0028 8BB2     		uxth	r3, r1
 1009 002a D31A     		sub	r3, r2, r3
 1010 002c 9AB2     		uxth	r2, r3
 1011 002e BB1C     		add	r3, r7, #2
 1012 0030 1A80     		strh	r2, [r3]
 773:Generated_Source\PSoC4/ADC.c **** 
 774:Generated_Source\PSoC4/ADC.c ****         mVolts = (int16)((((int32)adcCounts * ADC_10MV_COUNTS) + ( (adcCounts > 0) ?
 1013              		.loc 1 774 0
 1014 0032 BB1C     		add	r3, r7, #2
 1015 0034 0022     		mov	r2, #0
 1016 0036 9B5E     		ldrsh	r3, [r3, r2]
 1017 0038 184A     		ldr	r2, .L76+4
 1018 003a 5A43     		mul	r2, r3
 775:Generated_Source\PSoC4/ADC.c ****                  (ADC_countsPer10Volt[chan] / 2) : (-(ADC_countsPer10Volt[chan] / 2)) ))
 1019              		.loc 1 775 0
 1020 003c BB1C     		add	r3, r7, #2
 1021 003e 0021     		mov	r1, #0
 1022 0040 5B5E     		ldrsh	r3, [r3, r1]
 1023 0042 002B     		cmp	r3, #0
 1024 0044 08DD     		ble	.L71
 1025              		.loc 1 775 0 is_stmt 0 discriminator 1
 1026 0046 164B     		ldr	r3, .L76+8
 1027 0048 7968     		ldr	r1, [r7, #4]
 1028 004a 8900     		lsl	r1, r1, #2
 1029 004c CB58     		ldr	r3, [r1, r3]
 1030 004e 002B     		cmp	r3, #0
 1031 0050 00DA     		bge	.L72
 1032 0052 0133     		add	r3, r3, #1
 1033              	.L72:
 1034 0054 5B10     		asr	r3, r3, #1
 1035 0056 08E0     		b	.L73
 1036              	.L71:
 1037              		.loc 1 775 0 discriminator 2
 1038 0058 114B     		ldr	r3, .L76+8
 1039 005a 7968     		ldr	r1, [r7, #4]
 1040 005c 8900     		lsl	r1, r1, #2
 1041 005e CB58     		ldr	r3, [r1, r3]
 1042 0060 002B     		cmp	r3, #0
ARM GAS  C:\Users\ANDREW~1\AppData\Local\Temp\cchQxSpu.s 			page 33


 1043 0062 00DA     		bge	.L74
 1044 0064 0133     		add	r3, r3, #1
 1045              	.L74:
 1046 0066 5B10     		asr	r3, r3, #1
 1047 0068 5B42     		neg	r3, r3
 1048              	.L73:
 774:Generated_Source\PSoC4/ADC.c ****                  (ADC_countsPer10Volt[chan] / 2) : (-(ADC_countsPer10Volt[chan] / 2)) ))
 1049              		.loc 1 774 0 is_stmt 1
 1050 006a D118     		add	r1, r2, r3
 776:Generated_Source\PSoC4/ADC.c ****                  / ADC_countsPer10Volt[chan]);
 1051              		.loc 1 776 0
 1052 006c 0C4B     		ldr	r3, .L76+8
 1053 006e 7A68     		ldr	r2, [r7, #4]
 1054 0070 9200     		lsl	r2, r2, #2
 1055 0072 D358     		ldr	r3, [r2, r3]
 1056 0074 081C     		mov	r0, r1
 1057 0076 191C     		mov	r1, r3
 1058 0078 FFF7FEFF 		bl	__aeabi_idiv
 1059 007c 031C     		mov	r3, r0
 1060 007e 1A1C     		mov	r2, r3
 774:Generated_Source\PSoC4/ADC.c ****                  (ADC_countsPer10Volt[chan] / 2) : (-(ADC_countsPer10Volt[chan] / 2)) ))
 1061              		.loc 1 774 0
 1062 0080 0E23     		mov	r3, #14
 1063 0082 FB18     		add	r3, r7, r3
 1064 0084 1A80     		strh	r2, [r3]
 777:Generated_Source\PSoC4/ADC.c **** 
 778:Generated_Source\PSoC4/ADC.c ****         return( mVolts );
 1065              		.loc 1 778 0
 1066 0086 0E23     		mov	r3, #14
 1067 0088 FB18     		add	r3, r7, r3
 1068 008a 1B88     		ldrh	r3, [r3]
 1069 008c 1BB2     		sxth	r3, r3
 779:Generated_Source\PSoC4/ADC.c ****     }
 1070              		.loc 1 779 0
 1071 008e 181C     		mov	r0, r3
 1072 0090 BD46     		mov	sp, r7
 1073 0092 04B0     		add	sp, sp, #16
 1074              		@ sp needed
 1075 0094 80BD     		pop	{r7, pc}
 1076              	.L77:
 1077 0096 C046     		.align	2
 1078              	.L76:
 1079 0098 00000000 		.word	ADC_offset
 1080 009c 10270000 		.word	10000
 1081 00a0 00000000 		.word	ADC_countsPer10Volt
 1082              		.cfi_endproc
 1083              	.LFE17:
 1084              		.size	ADC_CountsTo_mVolts, .-ADC_CountsTo_mVolts
 1085              		.global	__aeabi_lmul
 1086              		.global	__aeabi_ldivmod
 1087              		.section	.text.ADC_CountsTo_uVolts,"ax",%progbits
 1088              		.align	2
 1089              		.global	ADC_CountsTo_uVolts
 1090              		.code	16
 1091              		.thumb_func
 1092              		.type	ADC_CountsTo_uVolts, %function
 1093              	ADC_CountsTo_uVolts:
ARM GAS  C:\Users\ANDREW~1\AppData\Local\Temp\cchQxSpu.s 			page 34


 1094              	.LFB18:
 780:Generated_Source\PSoC4/ADC.c **** 
 781:Generated_Source\PSoC4/ADC.c **** 
 782:Generated_Source\PSoC4/ADC.c ****     /*******************************************************************************
 783:Generated_Source\PSoC4/ADC.c ****     * Function Name: ADC_CountsTo_uVolts
 784:Generated_Source\PSoC4/ADC.c ****     ********************************************************************************
 785:Generated_Source\PSoC4/ADC.c ****     *
 786:Generated_Source\PSoC4/ADC.c ****     * Summary:
 787:Generated_Source\PSoC4/ADC.c ****     *  This function converts ADC counts to micro Volts
 788:Generated_Source\PSoC4/ADC.c ****     *  This function is not available when left data format justification selected.
 789:Generated_Source\PSoC4/ADC.c ****     *
 790:Generated_Source\PSoC4/ADC.c ****     * Parameters:
 791:Generated_Source\PSoC4/ADC.c ****     *  chan: The ADC channel number.
 792:Generated_Source\PSoC4/ADC.c ****     *  adcCounts: Result from the ADC conversion
 793:Generated_Source\PSoC4/ADC.c ****     *
 794:Generated_Source\PSoC4/ADC.c ****     * Return:
 795:Generated_Source\PSoC4/ADC.c ****     *  Results in uVolts
 796:Generated_Source\PSoC4/ADC.c ****     *
 797:Generated_Source\PSoC4/ADC.c ****     * Global variables:
 798:Generated_Source\PSoC4/ADC.c ****     *  ADC_countsPer10Volt:  used to convert ADC counts to uVolts.
 799:Generated_Source\PSoC4/ADC.c ****     *  ADC_Offset:  Used as the offset while converting ADC counts
 800:Generated_Source\PSoC4/ADC.c ****     *   to mVolts.
 801:Generated_Source\PSoC4/ADC.c ****     *
 802:Generated_Source\PSoC4/ADC.c ****     * Theory:
 803:Generated_Source\PSoC4/ADC.c ****     *  Care must be taken to not exceed the maximum value for a 31 bit signed
 804:Generated_Source\PSoC4/ADC.c ****     *  number in the conversion to uVolts and at the same time not loose
 805:Generated_Source\PSoC4/ADC.c ****     *  resolution.
 806:Generated_Source\PSoC4/ADC.c ****     *  To convert adcCounts to microVolts it is required to be multiplied
 807:Generated_Source\PSoC4/ADC.c ****     *  on 10 million and later divide on gain in counts per 10V.
 808:Generated_Source\PSoC4/ADC.c ****     *
 809:Generated_Source\PSoC4/ADC.c ****     *******************************************************************************/
 810:Generated_Source\PSoC4/ADC.c ****     int32 ADC_CountsTo_uVolts(uint32 chan, int16 adcCounts)
 811:Generated_Source\PSoC4/ADC.c ****     {
 1095              		.loc 1 811 0
 1096              		.cfi_startproc
 1097 0000 B0B5     		push	{r4, r5, r7, lr}
 1098              		.cfi_def_cfa_offset 16
 1099              		.cfi_offset 4, -16
 1100              		.cfi_offset 5, -12
 1101              		.cfi_offset 7, -8
 1102              		.cfi_offset 14, -4
 1103 0002 86B0     		sub	sp, sp, #24
 1104              		.cfi_def_cfa_offset 40
 1105 0004 00AF     		add	r7, sp, #0
 1106              		.cfi_def_cfa_register 7
 1107 0006 F860     		str	r0, [r7, #12]
 1108 0008 0A1C     		mov	r2, r1
 1109 000a 0A23     		mov	r3, #10
 1110 000c FB18     		add	r3, r7, r3
 1111 000e 1A80     		strh	r2, [r3]
 812:Generated_Source\PSoC4/ADC.c ****         int64 uVolts;
 813:Generated_Source\PSoC4/ADC.c **** 
 814:Generated_Source\PSoC4/ADC.c ****         /* Halt CPU in debug mode if channel is out of valid range */
 815:Generated_Source\PSoC4/ADC.c ****         CYASSERT(chan < ADC_TOTAL_CHANNELS_NUM);
 1112              		.loc 1 815 0
 1113 0010 FB68     		ldr	r3, [r7, #12]
 1114 0012 032B     		cmp	r3, #3
ARM GAS  C:\Users\ANDREW~1\AppData\Local\Temp\cchQxSpu.s 			page 35


 1115 0014 02D9     		bls	.L79
 1116              		.loc 1 815 0 is_stmt 0 discriminator 1
 1117 0016 0020     		mov	r0, #0
 1118 0018 FFF7FEFF 		bl	CyHalt
 1119              	.L79:
 816:Generated_Source\PSoC4/ADC.c **** 
 817:Generated_Source\PSoC4/ADC.c ****         /* Divide the adcCount when accumulate averaging mode selected */
 818:Generated_Source\PSoC4/ADC.c ****         #if(ADC_DEFAULT_AVG_MODE == ADC__ACCUMULATE)
 819:Generated_Source\PSoC4/ADC.c ****             if((ADC_channelsConfig[chan] & ADC_AVERAGING_EN) != 0u)
 820:Generated_Source\PSoC4/ADC.c ****             {
 821:Generated_Source\PSoC4/ADC.c ****                 adcCounts /= ADC_DEFAULT_AVG_SAMPLES_DIV;
 822:Generated_Source\PSoC4/ADC.c ****             }
 823:Generated_Source\PSoC4/ADC.c ****         #endif /* ADC_DEFAULT_AVG_MODE == ADC__ACCUMULATE */
 824:Generated_Source\PSoC4/ADC.c **** 
 825:Generated_Source\PSoC4/ADC.c ****         /* Subtract ADC offset */
 826:Generated_Source\PSoC4/ADC.c ****         adcCounts -= ADC_offset[chan];
 1120              		.loc 1 826 0 is_stmt 1
 1121 001c 194B     		ldr	r3, .L81
 1122 001e FA68     		ldr	r2, [r7, #12]
 1123 0020 5200     		lsl	r2, r2, #1
 1124 0022 D35A     		ldrh	r3, [r2, r3]
 1125 0024 99B2     		uxth	r1, r3
 1126 0026 0A23     		mov	r3, #10
 1127 0028 FB18     		add	r3, r7, r3
 1128 002a 1A88     		ldrh	r2, [r3]
 1129 002c 8BB2     		uxth	r3, r1
 1130 002e D31A     		sub	r3, r2, r3
 1131 0030 9AB2     		uxth	r2, r3
 1132 0032 0A23     		mov	r3, #10
 1133 0034 FB18     		add	r3, r7, r3
 1134 0036 1A80     		strh	r2, [r3]
 827:Generated_Source\PSoC4/ADC.c **** 
 828:Generated_Source\PSoC4/ADC.c ****         uVolts = ((int64)adcCounts * ADC_10UV_COUNTS) / ADC_countsPer10Volt[chan];
 1135              		.loc 1 828 0
 1136 0038 0A23     		mov	r3, #10
 1137 003a FB18     		add	r3, r7, r3
 1138 003c 1B88     		ldrh	r3, [r3]
 1139 003e 1BB2     		sxth	r3, r3
 1140 0040 3B60     		str	r3, [r7]
 1141 0042 DB17     		asr	r3, r3, #31
 1142 0044 7B60     		str	r3, [r7, #4]
 1143 0046 3868     		ldr	r0, [r7]
 1144 0048 7968     		ldr	r1, [r7, #4]
 1145 004a 0F4A     		ldr	r2, .L81+4
 1146 004c 0023     		mov	r3, #0
 1147 004e FFF7FEFF 		bl	__aeabi_lmul
 1148 0052 021C     		mov	r2, r0
 1149 0054 0B1C     		mov	r3, r1
 1150 0056 101C     		mov	r0, r2
 1151 0058 191C     		mov	r1, r3
 1152 005a 0C4B     		ldr	r3, .L81+8
 1153 005c FA68     		ldr	r2, [r7, #12]
 1154 005e 9200     		lsl	r2, r2, #2
 1155 0060 D358     		ldr	r3, [r2, r3]
 1156 0062 1C1C     		mov	r4, r3
 1157 0064 DB17     		asr	r3, r3, #31
 1158 0066 1D1C     		mov	r5, r3
ARM GAS  C:\Users\ANDREW~1\AppData\Local\Temp\cchQxSpu.s 			page 36


 1159 0068 221C     		mov	r2, r4
 1160 006a 2B1C     		mov	r3, r5
 1161 006c FFF7FEFF 		bl	__aeabi_ldivmod
 1162 0070 031C     		mov	r3, r0
 1163 0072 0C1C     		mov	r4, r1
 1164 0074 3B61     		str	r3, [r7, #16]
 1165 0076 7C61     		str	r4, [r7, #20]
 829:Generated_Source\PSoC4/ADC.c **** 
 830:Generated_Source\PSoC4/ADC.c ****         return( (int32)uVolts );
 1166              		.loc 1 830 0
 1167 0078 3B69     		ldr	r3, [r7, #16]
 831:Generated_Source\PSoC4/ADC.c ****     }
 1168              		.loc 1 831 0
 1169 007a 181C     		mov	r0, r3
 1170 007c BD46     		mov	sp, r7
 1171 007e 06B0     		add	sp, sp, #24
 1172              		@ sp needed
 1173 0080 B0BD     		pop	{r4, r5, r7, pc}
 1174              	.L82:
 1175 0082 C046     		.align	2
 1176              	.L81:
 1177 0084 00000000 		.word	ADC_offset
 1178 0088 80969800 		.word	10000000
 1179 008c 00000000 		.word	ADC_countsPer10Volt
 1180              		.cfi_endproc
 1181              	.LFE18:
 1182              		.size	ADC_CountsTo_uVolts, .-ADC_CountsTo_uVolts
 1183              		.global	__aeabi_i2f
 1184              		.global	__aeabi_fmul
 1185              		.global	__aeabi_fdiv
 1186              		.section	.text.ADC_CountsTo_Volts,"ax",%progbits
 1187              		.align	2
 1188              		.global	ADC_CountsTo_Volts
 1189              		.code	16
 1190              		.thumb_func
 1191              		.type	ADC_CountsTo_Volts, %function
 1192              	ADC_CountsTo_Volts:
 1193              	.LFB19:
 832:Generated_Source\PSoC4/ADC.c **** 
 833:Generated_Source\PSoC4/ADC.c **** 
 834:Generated_Source\PSoC4/ADC.c ****     /*******************************************************************************
 835:Generated_Source\PSoC4/ADC.c ****     * Function Name: ADC_CountsTo_Volts
 836:Generated_Source\PSoC4/ADC.c ****     ********************************************************************************
 837:Generated_Source\PSoC4/ADC.c ****     *
 838:Generated_Source\PSoC4/ADC.c ****     * Summary:
 839:Generated_Source\PSoC4/ADC.c ****     *  Converts the ADC output to Volts as a floating point number.
 840:Generated_Source\PSoC4/ADC.c ****     *  This function is not available when left data format justification selected.
 841:Generated_Source\PSoC4/ADC.c ****     *
 842:Generated_Source\PSoC4/ADC.c ****     * Parameters:
 843:Generated_Source\PSoC4/ADC.c ****     *  chan: The ADC channel number.
 844:Generated_Source\PSoC4/ADC.c ****     *  Result from the ADC conversion
 845:Generated_Source\PSoC4/ADC.c ****     *
 846:Generated_Source\PSoC4/ADC.c ****     * Return:
 847:Generated_Source\PSoC4/ADC.c ****     *  Results in Volts
 848:Generated_Source\PSoC4/ADC.c ****     *
 849:Generated_Source\PSoC4/ADC.c ****     * Global variables:
 850:Generated_Source\PSoC4/ADC.c ****     *  ADC_countsPer10Volt:  used to convert ADC counts to Volts.
ARM GAS  C:\Users\ANDREW~1\AppData\Local\Temp\cchQxSpu.s 			page 37


 851:Generated_Source\PSoC4/ADC.c ****     *  ADC_Offset:  Used as the offset while converting ADC counts
 852:Generated_Source\PSoC4/ADC.c ****     *   to mVolts.
 853:Generated_Source\PSoC4/ADC.c ****     *
 854:Generated_Source\PSoC4/ADC.c ****     *******************************************************************************/
 855:Generated_Source\PSoC4/ADC.c ****     float32 ADC_CountsTo_Volts(uint32 chan, int16 adcCounts)
 856:Generated_Source\PSoC4/ADC.c ****     {
 1194              		.loc 1 856 0
 1195              		.cfi_startproc
 1196 0000 90B5     		push	{r4, r7, lr}
 1197              		.cfi_def_cfa_offset 12
 1198              		.cfi_offset 4, -12
 1199              		.cfi_offset 7, -8
 1200              		.cfi_offset 14, -4
 1201 0002 85B0     		sub	sp, sp, #20
 1202              		.cfi_def_cfa_offset 32
 1203 0004 00AF     		add	r7, sp, #0
 1204              		.cfi_def_cfa_register 7
 1205 0006 7860     		str	r0, [r7, #4]
 1206 0008 0A1C     		mov	r2, r1
 1207 000a BB1C     		add	r3, r7, #2
 1208 000c 1A80     		strh	r2, [r3]
 857:Generated_Source\PSoC4/ADC.c ****         float32 volts;
 858:Generated_Source\PSoC4/ADC.c **** 
 859:Generated_Source\PSoC4/ADC.c ****         /* Halt CPU in debug mode if channel is out of valid range */
 860:Generated_Source\PSoC4/ADC.c ****         CYASSERT(chan < ADC_TOTAL_CHANNELS_NUM);
 1209              		.loc 1 860 0
 1210 000e 7B68     		ldr	r3, [r7, #4]
 1211 0010 032B     		cmp	r3, #3
 1212 0012 02D9     		bls	.L84
 1213              		.loc 1 860 0 is_stmt 0 discriminator 1
 1214 0014 0020     		mov	r0, #0
 1215 0016 FFF7FEFF 		bl	CyHalt
 1216              	.L84:
 861:Generated_Source\PSoC4/ADC.c **** 
 862:Generated_Source\PSoC4/ADC.c ****         /* Divide the adcCount when accumulate averaging mode selected */
 863:Generated_Source\PSoC4/ADC.c ****         #if(ADC_DEFAULT_AVG_MODE == ADC__ACCUMULATE)
 864:Generated_Source\PSoC4/ADC.c ****             if((ADC_channelsConfig[chan] & ADC_AVERAGING_EN) != 0u)
 865:Generated_Source\PSoC4/ADC.c ****             {
 866:Generated_Source\PSoC4/ADC.c ****                 adcCounts /= ADC_DEFAULT_AVG_SAMPLES_DIV;
 867:Generated_Source\PSoC4/ADC.c ****             }
 868:Generated_Source\PSoC4/ADC.c ****         #endif /* ADC_DEFAULT_AVG_MODE == ADC__ACCUMULATE */
 869:Generated_Source\PSoC4/ADC.c **** 
 870:Generated_Source\PSoC4/ADC.c ****         /* Subtract ADC offset */
 871:Generated_Source\PSoC4/ADC.c ****         adcCounts -= ADC_offset[chan];
 1217              		.loc 1 871 0 is_stmt 1
 1218 001a 164B     		ldr	r3, .L86
 1219 001c 7A68     		ldr	r2, [r7, #4]
 1220 001e 5200     		lsl	r2, r2, #1
 1221 0020 D35A     		ldrh	r3, [r2, r3]
 1222 0022 99B2     		uxth	r1, r3
 1223 0024 BB1C     		add	r3, r7, #2
 1224 0026 1A88     		ldrh	r2, [r3]
 1225 0028 8BB2     		uxth	r3, r1
 1226 002a D31A     		sub	r3, r2, r3
 1227 002c 9AB2     		uxth	r2, r3
 1228 002e BB1C     		add	r3, r7, #2
 1229 0030 1A80     		strh	r2, [r3]
ARM GAS  C:\Users\ANDREW~1\AppData\Local\Temp\cchQxSpu.s 			page 38


 872:Generated_Source\PSoC4/ADC.c **** 
 873:Generated_Source\PSoC4/ADC.c ****         volts = ((float32)adcCounts * ADC_10V_COUNTS) / (float32)ADC_countsPer10Volt[chan];
 1230              		.loc 1 873 0
 1231 0032 BB1C     		add	r3, r7, #2
 1232 0034 0022     		mov	r2, #0
 1233 0036 9B5E     		ldrsh	r3, [r3, r2]
 1234 0038 181C     		mov	r0, r3
 1235 003a FFF7FEFF 		bl	__aeabi_i2f
 1236 003e 031C     		add	r3, r0, #0
 1237 0040 181C     		add	r0, r3, #0
 1238 0042 0D49     		ldr	r1, .L86+4
 1239 0044 FFF7FEFF 		bl	__aeabi_fmul
 1240 0048 031C     		add	r3, r0, #0
 1241 004a 1C1C     		add	r4, r3, #0
 1242 004c 0B4B     		ldr	r3, .L86+8
 1243 004e 7A68     		ldr	r2, [r7, #4]
 1244 0050 9200     		lsl	r2, r2, #2
 1245 0052 D358     		ldr	r3, [r2, r3]
 1246 0054 181C     		mov	r0, r3
 1247 0056 FFF7FEFF 		bl	__aeabi_i2f
 1248 005a 031C     		add	r3, r0, #0
 1249 005c 201C     		add	r0, r4, #0
 1250 005e 191C     		add	r1, r3, #0
 1251 0060 FFF7FEFF 		bl	__aeabi_fdiv
 1252 0064 031C     		add	r3, r0, #0
 1253 0066 FB60     		str	r3, [r7, #12]
 874:Generated_Source\PSoC4/ADC.c **** 
 875:Generated_Source\PSoC4/ADC.c ****         return( volts );
 1254              		.loc 1 875 0
 1255 0068 FB68     		ldr	r3, [r7, #12]
 876:Generated_Source\PSoC4/ADC.c ****     }
 1256              		.loc 1 876 0
 1257 006a 181C     		add	r0, r3, #0
 1258 006c BD46     		mov	sp, r7
 1259 006e 05B0     		add	sp, sp, #20
 1260              		@ sp needed
 1261 0070 90BD     		pop	{r4, r7, pc}
 1262              	.L87:
 1263 0072 C046     		.align	2
 1264              	.L86:
 1265 0074 00000000 		.word	ADC_offset
 1266 0078 00002041 		.word	1092616192
 1267 007c 00000000 		.word	ADC_countsPer10Volt
 1268              		.cfi_endproc
 1269              	.LFE19:
 1270              		.size	ADC_CountsTo_Volts, .-ADC_CountsTo_Volts
 1271              		.section	.rodata
 1272              		.align	2
 1273              		.type	ADC_InputsPlacement.4788, %object
 1274              		.size	ADC_InputsPlacement.4788, 4
 1275              	ADC_InputsPlacement.4788:
 1276 0010 02       		.byte	2
 1277 0011 03       		.byte	3
 1278 0012 06       		.byte	6
 1279 0013 07       		.byte	7
 1280              		.text
 1281              	.Letext0:
ARM GAS  C:\Users\ANDREW~1\AppData\Local\Temp\cchQxSpu.s 			page 39


 1282              		.file 2 "Generated_Source\\PSoC4\\cytypes.h"