ARM GAS  C:\Users\ANDREW~1\AppData\Local\Temp\ccx2l6Eu.s 			page 1


   1              		.cpu cortex-m0
   2              		.fpu softvfp
   3              		.eabi_attribute 20, 1
   4              		.eabi_attribute 21, 1
   5              		.eabi_attribute 23, 3
   6              		.eabi_attribute 24, 1
   7              		.eabi_attribute 25, 1
   8              		.eabi_attribute 26, 1
   9              		.eabi_attribute 30, 6
  10              		.eabi_attribute 34, 0
  11              		.eabi_attribute 18, 4
  12              		.code	16
  13              		.file	"app_Ble.c"
  14              		.text
  15              	.Ltext0:
  16              		.cfi_sections	.debug_frame
  17              		.global	txCharHandle
  18              		.bss
  19              		.align	1
  20              		.type	txCharHandle, %object
  21              		.size	txCharHandle, 2
  22              	txCharHandle:
  23 0000 0000     		.space	2
  24              		.global	rxCharHandle
  25              		.align	1
  26              		.type	rxCharHandle, %object
  27              		.size	rxCharHandle, 2
  28              	rxCharHandle:
  29 0002 0000     		.space	2
  30              		.global	txCharDescHandle
  31              		.align	1
  32              		.type	txCharDescHandle, %object
  33              		.size	txCharDescHandle, 2
  34              	txCharDescHandle:
  35 0004 0000     		.space	2
  36              		.global	bleUartServiceHandle
  37              		.align	1
  38              		.type	bleUartServiceHandle, %object
  39              		.size	bleUartServiceHandle, 2
  40              	bleUartServiceHandle:
  41 0006 0000     		.space	2
  42              		.global	bleUartServiceEndHandle
  43              		.align	1
  44              		.type	bleUartServiceEndHandle, %object
  45              		.size	bleUartServiceEndHandle, 2
  46              	bleUartServiceEndHandle:
  47 0008 0000     		.space	2
  48              		.global	mtuSize
  49              		.data
  50              		.align	1
  51              		.type	mtuSize, %object
  52              		.size	mtuSize, 2
  53              	mtuSize:
  54 0000 1700     		.short	23
  55              		.global	enableNotificationParam
  56              		.section	.rodata
  57              		.align	2
ARM GAS  C:\Users\ANDREW~1\AppData\Local\Temp\ccx2l6Eu.s 			page 2


  58              		.type	enableNotificationParam, %object
  59              		.size	enableNotificationParam, 2
  60              	enableNotificationParam:
  61 0000 01       		.byte	1
  62 0001 00       		.byte	0
  63              		.bss
  64              	peerDeviceFound:
  65 000a 00       		.space	1
  66              	notificationEnabled:
  67 000b 00       		.space	1
  68              		.align	2
  69              	peerAddr:
  70 000c 00000000 		.space	7
  70      000000
  71              	infoExchangeState:
  72 0013 00       		.space	1
  73              		.comm	attrHandleRange,4,4
  74              		.comm	charDescHandleRange,4,4
  75              		.global	bleUartServiceUuid
  76              		.section	.rodata
  77 0002 0000     		.align	2
  78              		.type	bleUartServiceUuid, %object
  79              		.size	bleUartServiceUuid, 16
  80              	bleUartServiceUuid:
  81 0004 31       		.byte	49
  82 0005 01       		.byte	1
  83 0006 9B       		.byte	-101
  84 0007 5F       		.byte	95
  85 0008 80       		.byte	-128
  86 0009 00       		.byte	0
  87 000a 00       		.byte	0
  88 000b 80       		.byte	-128
  89 000c 00       		.byte	0
  90 000d 10       		.byte	16
  91 000e 00       		.byte	0
  92 000f 00       		.byte	0
  93 0010 D0       		.byte	-48
  94 0011 CD       		.byte	-51
  95 0012 03       		.byte	3
  96 0013 00       		.byte	0
  97              		.global	uartTxAttrUuid
  98              		.align	2
  99              		.type	uartTxAttrUuid, %object
 100              		.size	uartTxAttrUuid, 16
 101              	uartTxAttrUuid:
 102 0014 31       		.byte	49
 103 0015 01       		.byte	1
 104 0016 9B       		.byte	-101
 105 0017 5F       		.byte	95
 106 0018 80       		.byte	-128
 107 0019 00       		.byte	0
 108 001a 00       		.byte	0
 109 001b 80       		.byte	-128
 110 001c 00       		.byte	0
 111 001d 10       		.byte	16
 112 001e 00       		.byte	0
 113 001f 00       		.byte	0
ARM GAS  C:\Users\ANDREW~1\AppData\Local\Temp\ccx2l6Eu.s 			page 3


 114 0020 D1       		.byte	-47
 115 0021 CD       		.byte	-51
 116 0022 03       		.byte	3
 117 0023 00       		.byte	0
 118              		.global	uartRxAttrUuid
 119              		.align	2
 120              		.type	uartRxAttrUuid, %object
 121              		.size	uartRxAttrUuid, 16
 122              	uartRxAttrUuid:
 123 0024 31       		.byte	49
 124 0025 01       		.byte	1
 125 0026 9B       		.byte	-101
 126 0027 5F       		.byte	95
 127 0028 80       		.byte	-128
 128 0029 00       		.byte	0
 129 002a 00       		.byte	0
 130 002b 80       		.byte	-128
 131 002c 00       		.byte	0
 132 002d 10       		.byte	16
 133 002e 00       		.byte	0
 134 002f 00       		.byte	0
 135 0030 D2       		.byte	-46
 136 0031 CD       		.byte	-51
 137 0032 03       		.byte	3
 138 0033 00       		.byte	0
 139              		.global	bleUartServiceUuidInfo
 140              		.align	2
 141              		.type	bleUartServiceUuidInfo, %object
 142              		.size	bleUartServiceUuidInfo, 8
 143              	bleUartServiceUuidInfo:
 144 0034 00000000 		.word	bleUartServiceUuid
 145 0038 1000     		.short	16
 146 003a 1000     		.short	16
 147              		.global	enableNotificationReqParam
 148              		.data
 149 0002 0000     		.align	2
 150              		.type	enableNotificationReqParam, %object
 151              		.size	enableNotificationReqParam, 12
 152              	enableNotificationReqParam:
 153 0004 00000000 		.word	enableNotificationParam
 154 0008 0200     		.short	2
 155 000a 0200     		.short	2
 156 000c 0000     		.short	0
 157 000e 0000     		.space	2
 158              		.section	.text.HandleBleProcessing,"ax",%progbits
 159              		.align	2
 160              		.global	HandleBleProcessing
 161              		.code	16
 162              		.thumb_func
 163              		.type	HandleBleProcessing, %function
 164              	HandleBleProcessing:
 165              	.LFB37:
 166              		.file 1 "app_Ble.c"
   1:app_Ble.c     **** /*******************************************************************************
   2:app_Ble.c     **** * File Name: app_Ble.c
   3:app_Ble.c     **** *
   4:app_Ble.c     **** * Description:
ARM GAS  C:\Users\ANDREW~1\AppData\Local\Temp\ccx2l6Eu.s 			page 4


   5:app_Ble.c     **** *  Common BLE application code for client devices.
   6:app_Ble.c     **** *
   7:app_Ble.c     **** *******************************************************************************
   8:app_Ble.c     **** * Copyright 2015, Cypress Semiconductor Corporation.  All rights reserved.
   9:app_Ble.c     **** * You may use this file only in accordance with the license, terms, conditions,
  10:app_Ble.c     **** * disclaimers, and limitations in the end user license agreement accompanying
  11:app_Ble.c     **** * the software package with which this file was provided.
  12:app_Ble.c     **** *******************************************************************************/
  13:app_Ble.c     **** 
  14:app_Ble.c     **** #include "app_Ble.h"
  15:app_Ble.c     **** 
  16:app_Ble.c     **** uint16 txCharHandle             = 0;                /* Handle for the TX data characteristic */
  17:app_Ble.c     **** uint16 rxCharHandle             = 0;                /* Handle for the RX data characteristic */
  18:app_Ble.c     **** uint16 txCharDescHandle         = 0;                /* Handle for the TX data characteristic descri
  19:app_Ble.c     **** uint16 bleUartServiceHandle     = 0;                /* Handle for the BLE UART service */
  20:app_Ble.c     **** uint16 bleUartServiceEndHandle  = 0;                /* End handle for the BLE UART service */
  21:app_Ble.c     **** uint16 mtuSize                  = CYBLE_GATT_MTU;   /* MTU size to be used by Client and Server aft
  22:app_Ble.c     **** 
  23:app_Ble.c     **** const uint8 enableNotificationParam[2] = {0x01, 0x00};
  24:app_Ble.c     **** 
  25:app_Ble.c     **** volatile static bool peerDeviceFound         = false;
  26:app_Ble.c     **** volatile static bool notificationEnabled     = false;
  27:app_Ble.c     **** 
  28:app_Ble.c     **** static CYBLE_GAP_BD_ADDR_T      peerAddr;           /* BD address of the peer device */
  29:app_Ble.c     **** static INFO_EXCHANGE_STATE_T    infoExchangeState   = INFO_EXCHANGE_START;
  30:app_Ble.c     **** 
  31:app_Ble.c     **** CYBLE_GATT_ATTR_HANDLE_RANGE_T  attrHandleRange;
  32:app_Ble.c     **** CYBLE_GATTC_FIND_INFO_REQ_T     charDescHandleRange;
  33:app_Ble.c     **** 
  34:app_Ble.c     **** /* UUID of the custom BLE UART service */
  35:app_Ble.c     **** const uint8 bleUartServiceUuid[16]    = {
  36:app_Ble.c     ****                                             0x31, 0x01, 0x9b, 0x5f, 0x80, 0x00, 0x00,0x80, \
  37:app_Ble.c     ****                                             0x00, 0x10, 0x00, 0x00, 0xd0, 0xcd, 0x03, 0x00 \
  38:app_Ble.c     ****                                         };
  39:app_Ble.c     **** 
  40:app_Ble.c     **** /* UUID of the TX attribute of the custom BLE UART service */
  41:app_Ble.c     **** const uint8 uartTxAttrUuid[16]        = {
  42:app_Ble.c     ****                                             0x31, 0x01, 0x9b, 0x5f, 0x80, 0x00, 0x00,0x80, \
  43:app_Ble.c     ****                                             0x00, 0x10, 0x00, 0x00, 0xd1, 0xcd, 0x03, 0x00 \
  44:app_Ble.c     ****                                         };
  45:app_Ble.c     **** 
  46:app_Ble.c     **** /* UUID of the RX attribute of the custom BLE UART service */
  47:app_Ble.c     **** const uint8 uartRxAttrUuid[16]        = {
  48:app_Ble.c     ****                                             0x31, 0x01, 0x9b, 0x5f, 0x80, 0x00, 0x00,0x80, \
  49:app_Ble.c     ****                                             0x00, 0x10, 0x00, 0x00, 0xd2, 0xcd, 0x03, 0x00 \
  50:app_Ble.c     ****                                         };
  51:app_Ble.c     **** 
  52:app_Ble.c     **** /* structure to be passed for discovering service by UUID */
  53:app_Ble.c     **** const CYBLE_GATT_VALUE_T    bleUartServiceUuidInfo = { 
  54:app_Ble.c     ****                                                         (uint8 *) bleUartServiceUuid, \
  55:app_Ble.c     ****                                                         CYBLE_GATT_128_BIT_UUID_SIZE,\
  56:app_Ble.c     ****                                                         CYBLE_GATT_128_BIT_UUID_SIZE \
  57:app_Ble.c     ****                                                       };
  58:app_Ble.c     **** 
  59:app_Ble.c     **** /* structure to be passed for the enable notification request */
  60:app_Ble.c     **** CYBLE_GATTC_WRITE_REQ_T     enableNotificationReqParam   = {
  61:app_Ble.c     ****                                                                 {(uint8*)enableNotificationParam, 2
ARM GAS  C:\Users\ANDREW~1\AppData\Local\Temp\ccx2l6Eu.s 			page 5


  62:app_Ble.c     ****                                                                 0
  63:app_Ble.c     ****                                                             };
  64:app_Ble.c     **** 
  65:app_Ble.c     **** 
  66:app_Ble.c     **** /*******************************************************************************
  67:app_Ble.c     **** * Function Name: HandleBleProcessing
  68:app_Ble.c     **** ********************************************************************************
  69:app_Ble.c     **** *
  70:app_Ble.c     **** * Summary:
  71:app_Ble.c     **** *   Handles the BLE state machine for intiating different procedures
  72:app_Ble.c     **** *   during different states of BLESS.
  73:app_Ble.c     **** *
  74:app_Ble.c     **** * Parameters:
  75:app_Ble.c     **** *   None.
  76:app_Ble.c     **** *
  77:app_Ble.c     **** * Return:
  78:app_Ble.c     **** *   None.
  79:app_Ble.c     **** *
  80:app_Ble.c     **** *******************************************************************************/
  81:app_Ble.c     **** void HandleBleProcessing(void)
  82:app_Ble.c     **** {    
 167              		.loc 1 82 0
 168              		.cfi_startproc
 169 0000 90B5     		push	{r4, r7, lr}
 170              		.cfi_def_cfa_offset 12
 171              		.cfi_offset 4, -12
 172              		.cfi_offset 7, -8
 173              		.cfi_offset 14, -4
 174 0002 83B0     		sub	sp, sp, #12
 175              		.cfi_def_cfa_offset 24
 176 0004 00AF     		add	r7, sp, #0
 177              		.cfi_def_cfa_register 7
  83:app_Ble.c     ****     CYBLE_API_RESULT_T      cyble_api_result;
  84:app_Ble.c     ****     
  85:app_Ble.c     ****     switch (cyBle_state)
 178              		.loc 1 85 0
 179 0006 244B     		ldr	r3, .L15
 180 0008 1B78     		ldrb	r3, [r3]
 181 000a 032B     		cmp	r3, #3
 182 000c 04D0     		beq	.L3
 183 000e 052B     		cmp	r3, #5
 184 0010 26D0     		beq	.L4
 185 0012 022B     		cmp	r3, #2
 186 0014 09D0     		beq	.L5
  86:app_Ble.c     ****     {
  87:app_Ble.c     ****         case CYBLE_STATE_SCANNING:
  88:app_Ble.c     ****             if(peerDeviceFound)
  89:app_Ble.c     ****             {
  90:app_Ble.c     ****                 CyBle_GapcStopScan();
  91:app_Ble.c     ****             }
  92:app_Ble.c     ****             break;
  93:app_Ble.c     ****     
  94:app_Ble.c     ****         case CYBLE_STATE_CONNECTED:
  95:app_Ble.c     ****             
  96:app_Ble.c     ****             /* if Client does not has all the information about attribute handles 
  97:app_Ble.c     ****              * call procedure for getting it */
  98:app_Ble.c     ****             if((INFO_EXCHANGE_COMPLETE != infoExchangeState))
ARM GAS  C:\Users\ANDREW~1\AppData\Local\Temp\ccx2l6Eu.s 			page 6


  99:app_Ble.c     ****             {
 100:app_Ble.c     ****                 attrHandleInit();
 101:app_Ble.c     ****             }
 102:app_Ble.c     ****             
 103:app_Ble.c     ****             /* enable notifications if not enabled already */
 104:app_Ble.c     ****             else if(false == notificationEnabled)
 105:app_Ble.c     ****             {
 106:app_Ble.c     ****                 enableNotifications();
 107:app_Ble.c     ****             }
 108:app_Ble.c     ****             
 109:app_Ble.c     ****             /* if client has all required info and stack is free, handle UART traffic */
 110:app_Ble.c     ****             else if(CyBle_GattGetBusStatus() != CYBLE_STACK_STATE_BUSY)
 111:app_Ble.c     ****             {
 112:app_Ble.c     ****                 HandleUartTxTraffic();
 113:app_Ble.c     ****             }
 114:app_Ble.c     ****             
 115:app_Ble.c     ****             break;
 116:app_Ble.c     ****                 
 117:app_Ble.c     ****         case CYBLE_STATE_DISCONNECTED:
 118:app_Ble.c     ****         {
 119:app_Ble.c     ****             if(peerDeviceFound)
 120:app_Ble.c     ****             {
 121:app_Ble.c     ****                 cyble_api_result = CyBle_GapcConnectDevice(&peerAddr);
 122:app_Ble.c     ****                 
 123:app_Ble.c     **** 			    if(CYBLE_ERROR_OK == cyble_api_result)
 124:app_Ble.c     **** 			    {
 125:app_Ble.c     **** 				    peerDeviceFound = false;
 126:app_Ble.c     **** 			    }
 127:app_Ble.c     ****             }
 128:app_Ble.c     ****             else
 129:app_Ble.c     ****             {
 130:app_Ble.c     ****                 CyBle_GapcStartScan(CYBLE_SCANNING_FAST);  
 131:app_Ble.c     ****             }
 132:app_Ble.c     ****             break;
 133:app_Ble.c     ****         }
 134:app_Ble.c     ****         
 135:app_Ble.c     ****         default:
 136:app_Ble.c     ****             break;       
 187              		.loc 1 136 0
 188 0016 3CE0     		b	.L1
 189              	.L3:
  88:app_Ble.c     ****             {
 190              		.loc 1 88 0
 191 0018 204B     		ldr	r3, .L15+4
 192 001a 1B78     		ldrb	r3, [r3]
 193 001c DBB2     		uxtb	r3, r3
 194 001e 002B     		cmp	r3, #0
 195 0020 02D0     		beq	.L6
  90:app_Ble.c     ****             }
 196              		.loc 1 90 0
 197 0022 FFF7FEFF 		bl	CyBle_GapcStopScan
  92:app_Ble.c     ****     
 198              		.loc 1 92 0
 199 0026 34E0     		b	.L1
 200              	.L6:
 201 0028 33E0     		b	.L1
 202              	.L5:
ARM GAS  C:\Users\ANDREW~1\AppData\Local\Temp\ccx2l6Eu.s 			page 7


  98:app_Ble.c     ****             {
 203              		.loc 1 98 0
 204 002a 1D4B     		ldr	r3, .L15+8
 205 002c 1B78     		ldrb	r3, [r3]
 206 002e 1F2B     		cmp	r3, #31
 207 0030 02D0     		beq	.L8
 100:app_Ble.c     ****             }
 208              		.loc 1 100 0
 209 0032 FFF7FEFF 		bl	attrHandleInit
 210 0036 12E0     		b	.L9
 211              	.L8:
 104:app_Ble.c     ****             {
 212              		.loc 1 104 0
 213 0038 1A4B     		ldr	r3, .L15+12
 214 003a 1B78     		ldrb	r3, [r3]
 215 003c DBB2     		uxtb	r3, r3
 216 003e 0122     		mov	r2, #1
 217 0040 5340     		eor	r3, r2
 218 0042 DBB2     		uxtb	r3, r3
 219 0044 002B     		cmp	r3, #0
 220 0046 02D0     		beq	.L10
 106:app_Ble.c     ****             }
 221              		.loc 1 106 0
 222 0048 FFF7FEFF 		bl	enableNotifications
 223 004c 07E0     		b	.L9
 224              	.L10:
 110:app_Ble.c     ****             {
 225              		.loc 1 110 0
 226 004e 164B     		ldr	r3, .L15+16
 227 0050 1B78     		ldrb	r3, [r3]
 228 0052 DBB2     		uxtb	r3, r3
 229 0054 012B     		cmp	r3, #1
 230 0056 02D0     		beq	.L9
 112:app_Ble.c     ****             }
 231              		.loc 1 112 0
 232 0058 FFF7FEFF 		bl	HandleUartTxTraffic
 115:app_Ble.c     ****                 
 233              		.loc 1 115 0
 234 005c 19E0     		b	.L1
 235              	.L9:
 236 005e 18E0     		b	.L1
 237              	.L4:
 119:app_Ble.c     ****             {
 238              		.loc 1 119 0
 239 0060 0E4B     		ldr	r3, .L15+4
 240 0062 1B78     		ldrb	r3, [r3]
 241 0064 DBB2     		uxtb	r3, r3
 242 0066 002B     		cmp	r3, #0
 243 0068 0ED0     		beq	.L11
 121:app_Ble.c     ****                 
 244              		.loc 1 121 0
 245 006a BC1D     		add	r4, r7, #6
 246 006c 0F4B     		ldr	r3, .L15+20
 247 006e 181C     		mov	r0, r3
 248 0070 FFF7FEFF 		bl	CyBle_GapcConnectDevice
 249 0074 031C     		mov	r3, r0
 250 0076 2380     		strh	r3, [r4]
ARM GAS  C:\Users\ANDREW~1\AppData\Local\Temp\ccx2l6Eu.s 			page 8


 123:app_Ble.c     **** 			    {
 251              		.loc 1 123 0
 252 0078 BB1D     		add	r3, r7, #6
 253 007a 1B88     		ldrh	r3, [r3]
 254 007c 002B     		cmp	r3, #0
 255 007e 07D1     		bne	.L13
 125:app_Ble.c     **** 			    }
 256              		.loc 1 125 0
 257 0080 064B     		ldr	r3, .L15+4
 258 0082 0022     		mov	r2, #0
 259 0084 1A70     		strb	r2, [r3]
 132:app_Ble.c     ****         }
 260              		.loc 1 132 0
 261 0086 03E0     		b	.L14
 262              	.L11:
 130:app_Ble.c     ****             }
 263              		.loc 1 130 0
 264 0088 0020     		mov	r0, #0
 265 008a FFF7FEFF 		bl	CyBle_GapcStartScan
 132:app_Ble.c     ****         }
 266              		.loc 1 132 0
 267 008e FFE7     		b	.L14
 268              	.L13:
 269              	.L14:
 270 0090 C046     		mov	r8, r8
 271              	.L1:
 137:app_Ble.c     ****     }
 138:app_Ble.c     **** }
 272              		.loc 1 138 0
 273 0092 BD46     		mov	sp, r7
 274 0094 03B0     		add	sp, sp, #12
 275              		@ sp needed
 276 0096 90BD     		pop	{r4, r7, pc}
 277              	.L16:
 278              		.align	2
 279              	.L15:
 280 0098 00000000 		.word	cyBle_state
 281 009c 0A000000 		.word	peerDeviceFound
 282 00a0 13000000 		.word	infoExchangeState
 283 00a4 0B000000 		.word	notificationEnabled
 284 00a8 00000000 		.word	cyBle_busyStatus
 285 00ac 0C000000 		.word	peerAddr
 286              		.cfi_endproc
 287              	.LFE37:
 288              		.size	HandleBleProcessing, .-HandleBleProcessing
 289              		.section	.rodata
 290              		.align	2
 291              	.LC9:
 292 003c 0A0D0A0D 		.ascii	"\012\015\012\015Server with matching custom service"
 292      53657276 
 292      65722077 
 292      69746820 
 292      6D617463 
 293 0063 20646973 		.ascii	" discovered...\000"
 293      636F7665 
 293      7265642E 
 293      2E2E00
ARM GAS  C:\Users\ANDREW~1\AppData\Local\Temp\ccx2l6Eu.s 			page 9


 294 0072 0000     		.align	2
 295              	.LC13:
 296 0074 0A0D2044 		.ascii	"\012\015 DISCONNECTED!!! \012\015 \000"
 296      4953434F 
 296      4E4E4543 
 296      54454421 
 296      2121200A 
 297 008b 00       		.align	2
 298              	.LC23:
 299 008c 0A0D4E6F 		.ascii	"\012\015Notifications enabled\012\015\000"
 299      74696669 
 299      63617469 
 299      6F6E7320 
 299      656E6162 
 300 00a6 0000     		.align	2
 301              	.LC25:
 302 00a8 0A0D5374 		.ascii	"\012\015Start entering data:\012\015\000"
 302      61727420 
 302      656E7465 
 302      72696E67 
 302      20646174 
 303 00c1 000000   		.align	2
 304              	.LC27:
 305 00c4 0A0D436F 		.ascii	"\012\015Connection established\000"
 305      6E6E6563 
 305      74696F6E 
 305      20657374 
 305      61626C69 
 306              		.section	.text.AppCallBack,"ax",%progbits
 307              		.align	2
 308              		.global	AppCallBack
 309              		.code	16
 310              		.thumb_func
 311              		.type	AppCallBack, %function
 312              	AppCallBack:
 313              	.LFB38:
 139:app_Ble.c     **** 
 140:app_Ble.c     **** 
 141:app_Ble.c     **** /*******************************************************************************
 142:app_Ble.c     **** * Function Name: AppCallBack
 143:app_Ble.c     **** ********************************************************************************
 144:app_Ble.c     **** *
 145:app_Ble.c     **** * Summary:
 146:app_Ble.c     **** *   Call back function for BLE stack to handle BLESS events
 147:app_Ble.c     **** *
 148:app_Ble.c     **** * Parameters:
 149:app_Ble.c     **** *   event       - the event generated by stack
 150:app_Ble.c     **** *   eventParam  - the parameters related to the corresponding event
 151:app_Ble.c     **** *
 152:app_Ble.c     **** * Return:
 153:app_Ble.c     **** *   None.
 154:app_Ble.c     **** *
 155:app_Ble.c     **** *******************************************************************************/
 156:app_Ble.c     **** void AppCallBack(uint32 event, void *eventParam)
 157:app_Ble.c     **** {
 314              		.loc 1 157 0
 315              		.cfi_startproc
ARM GAS  C:\Users\ANDREW~1\AppData\Local\Temp\ccx2l6Eu.s 			page 10


 316 0000 80B5     		push	{r7, lr}
 317              		.cfi_def_cfa_offset 8
 318              		.cfi_offset 7, -8
 319              		.cfi_offset 14, -4
 320 0002 86B0     		sub	sp, sp, #24
 321              		.cfi_def_cfa_offset 32
 322 0004 00AF     		add	r7, sp, #0
 323              		.cfi_def_cfa_register 7
 324 0006 7860     		str	r0, [r7, #4]
 325 0008 3960     		str	r1, [r7]
 158:app_Ble.c     ****     CYBLE_GATTC_READ_BY_TYPE_RSP_PARAM_T    *readResponse;
 159:app_Ble.c     ****     CYBLE_GAPC_ADV_REPORT_T		            *advReport;
 160:app_Ble.c     ****     CYBLE_GATTC_FIND_BY_TYPE_RSP_PARAM_T    *findResponse;
 161:app_Ble.c     ****     CYBLE_GATTC_FIND_INFO_RSP_PARAM_T       *findInfoResponse;
 162:app_Ble.c     ****     
 163:app_Ble.c     ****     switch (event)
 326              		.loc 1 163 0
 327 000a 7B68     		ldr	r3, [r7, #4]
 328 000c 522B     		cmp	r3, #82
 329 000e 00D9     		bls	.LCB145
 330 0010 34E1     		b	.L43	@long jump
 331              	.LCB145:
 332 0012 7B68     		ldr	r3, [r7, #4]
 333 0014 9A00     		lsl	r2, r3, #2
 334 0016 9B4B     		ldr	r3, .L44
 335 0018 D318     		add	r3, r2, r3
 336 001a 1B68     		ldr	r3, [r3]
 337 001c 9F46     		mov	pc, r3
 338              		.section	.rodata
 339 00dd 000000   		.align	2
 340              	.L20:
 341 00e0 7C020000 		.word	.L43
 342 00e4 7C020000 		.word	.L43
 343 00e8 7C020000 		.word	.L43
 344 00ec 7C020000 		.word	.L43
 345 00f0 7C020000 		.word	.L43
 346 00f4 7C020000 		.word	.L43
 347 00f8 7C020000 		.word	.L43
 348 00fc 7C020000 		.word	.L43
 349 0100 7C020000 		.word	.L43
 350 0104 7C020000 		.word	.L43
 351 0108 7C020000 		.word	.L43
 352 010c 7C020000 		.word	.L43
 353 0110 7C020000 		.word	.L43
 354 0114 7C020000 		.word	.L43
 355 0118 7C020000 		.word	.L43
 356 011c 7C020000 		.word	.L43
 357 0120 7C020000 		.word	.L43
 358 0124 7C020000 		.word	.L43
 359 0128 7C020000 		.word	.L43
 360 012c 7C020000 		.word	.L43
 361 0130 7C020000 		.word	.L43
 362 0134 7C020000 		.word	.L43
 363 0138 7C020000 		.word	.L43
 364 013c 7C020000 		.word	.L43
 365 0140 7C020000 		.word	.L43
 366 0144 7C020000 		.word	.L43
ARM GAS  C:\Users\ANDREW~1\AppData\Local\Temp\ccx2l6Eu.s 			page 11


 367 0148 7C020000 		.word	.L43
 368 014c 7C020000 		.word	.L43
 369 0150 7C020000 		.word	.L43
 370 0154 7C020000 		.word	.L43
 371 0158 7C020000 		.word	.L43
 372 015c 7C020000 		.word	.L43
 373 0160 1E000000 		.word	.L21
 374 0164 7C020000 		.word	.L43
 375 0168 7C020000 		.word	.L43
 376 016c 7C020000 		.word	.L43
 377 0170 7C020000 		.word	.L43
 378 0174 7C020000 		.word	.L43
 379 0178 7C020000 		.word	.L43
 380 017c 7C020000 		.word	.L43
 381 0180 9E000000 		.word	.L22
 382 0184 7C020000 		.word	.L43
 383 0188 7C020000 		.word	.L43
 384 018c 7C020000 		.word	.L43
 385 0190 7C020000 		.word	.L43
 386 0194 7C020000 		.word	.L43
 387 0198 7C020000 		.word	.L43
 388 019c 7C020000 		.word	.L43
 389 01a0 7C020000 		.word	.L43
 390 01a4 7C020000 		.word	.L43
 391 01a8 7C020000 		.word	.L43
 392 01ac 7C020000 		.word	.L43
 393 01b0 7C020000 		.word	.L43
 394 01b4 7C020000 		.word	.L43
 395 01b8 7C020000 		.word	.L43
 396 01bc 7C020000 		.word	.L43
 397 01c0 7C020000 		.word	.L43
 398 01c4 7C020000 		.word	.L43
 399 01c8 7C020000 		.word	.L43
 400 01cc 7C020000 		.word	.L43
 401 01d0 7C020000 		.word	.L43
 402 01d4 7C020000 		.word	.L43
 403 01d8 7C020000 		.word	.L43
 404 01dc 7C020000 		.word	.L43
 405 01e0 7C020000 		.word	.L43
 406 01e4 72020000 		.word	.L23
 407 01e8 7C020000 		.word	.L43
 408 01ec 40020000 		.word	.L24
 409 01f0 E6010000 		.word	.L25
 410 01f4 7C020000 		.word	.L43
 411 01f8 EA000000 		.word	.L26
 412 01fc 90010000 		.word	.L27
 413 0200 18020000 		.word	.L28
 414 0204 7C020000 		.word	.L43
 415 0208 7C020000 		.word	.L43
 416 020c 7C020000 		.word	.L43
 417 0210 7C020000 		.word	.L43
 418 0214 5A020000 		.word	.L29
 419 0218 7C020000 		.word	.L43
 420 021c 7C020000 		.word	.L43
 421 0220 7C020000 		.word	.L43
 422 0224 7C020000 		.word	.L43
 423 0228 0E020000 		.word	.L30
ARM GAS  C:\Users\ANDREW~1\AppData\Local\Temp\ccx2l6Eu.s 			page 12


 424              		.section	.text.AppCallBack
 425              	.L21:
 164:app_Ble.c     ****     {
 165:app_Ble.c     ****         case CYBLE_EVT_STACK_ON:
 166:app_Ble.c     ****       
 167:app_Ble.c     ****             break;
 168:app_Ble.c     ****         
 169:app_Ble.c     ****         case CYBLE_EVT_GAPC_SCAN_PROGRESS_RESULT:
 170:app_Ble.c     ****             
 171:app_Ble.c     ****             advReport = (CYBLE_GAPC_ADV_REPORT_T *) eventParam;
 426              		.loc 1 171 0
 427 001e 3B68     		ldr	r3, [r7]
 428 0020 7B61     		str	r3, [r7, #20]
 172:app_Ble.c     ****             
 173:app_Ble.c     ****             /* check if report has manfacturing data corresponding to the intended matching peer */
 174:app_Ble.c     ****             if((advReport->eventType == CYBLE_GAPC_SCAN_RSP) && (advReport->dataLen == 0x06) \
 429              		.loc 1 174 0
 430 0022 7B69     		ldr	r3, [r7, #20]
 431 0024 1B78     		ldrb	r3, [r3]
 432 0026 042B     		cmp	r3, #4
 433 0028 38D1     		bne	.L32
 434              		.loc 1 174 0 is_stmt 0 discriminator 1
 435 002a 7B69     		ldr	r3, [r7, #20]
 436 002c 1B7A     		ldrb	r3, [r3, #8]
 437 002e 062B     		cmp	r3, #6
 438 0030 34D1     		bne	.L32
 175:app_Ble.c     ****                     && (advReport->data[1] == 0xff) && (advReport->data[2] == 0x31)  \
 439              		.loc 1 175 0 is_stmt 1
 440 0032 7B69     		ldr	r3, [r7, #20]
 441 0034 DB68     		ldr	r3, [r3, #12]
 442 0036 0133     		add	r3, r3, #1
 443 0038 1B78     		ldrb	r3, [r3]
 444 003a FF2B     		cmp	r3, #255
 445 003c 2ED1     		bne	.L32
 446              		.loc 1 175 0 is_stmt 0 discriminator 1
 447 003e 7B69     		ldr	r3, [r7, #20]
 448 0040 DB68     		ldr	r3, [r3, #12]
 449 0042 0233     		add	r3, r3, #2
 450 0044 1B78     		ldrb	r3, [r3]
 451 0046 312B     		cmp	r3, #49
 452 0048 28D1     		bne	.L32
 176:app_Ble.c     ****                     && (advReport->data[3] == 0x01) && (advReport->data[4] == 0x3b) \
 453              		.loc 1 176 0 is_stmt 1
 454 004a 7B69     		ldr	r3, [r7, #20]
 455 004c DB68     		ldr	r3, [r3, #12]
 456 004e 0333     		add	r3, r3, #3
 457 0050 1B78     		ldrb	r3, [r3]
 458 0052 012B     		cmp	r3, #1
 459 0054 22D1     		bne	.L32
 460              		.loc 1 176 0 is_stmt 0 discriminator 1
 461 0056 7B69     		ldr	r3, [r7, #20]
 462 0058 DB68     		ldr	r3, [r3, #12]
 463 005a 0433     		add	r3, r3, #4
 464 005c 1B78     		ldrb	r3, [r3]
 465 005e 3B2B     		cmp	r3, #59
 466 0060 1CD1     		bne	.L32
 177:app_Ble.c     ****                     && (advReport->data[5] == 0x04))
ARM GAS  C:\Users\ANDREW~1\AppData\Local\Temp\ccx2l6Eu.s 			page 13


 467              		.loc 1 177 0 is_stmt 1
 468 0062 7B69     		ldr	r3, [r7, #20]
 469 0064 DB68     		ldr	r3, [r3, #12]
 470 0066 0533     		add	r3, r3, #5
 471 0068 1B78     		ldrb	r3, [r3]
 472 006a 042B     		cmp	r3, #4
 473 006c 16D1     		bne	.L32
 178:app_Ble.c     ****             {
 179:app_Ble.c     ****                 peerDeviceFound = true;
 474              		.loc 1 179 0
 475 006e 864B     		ldr	r3, .L44+4
 476 0070 0122     		mov	r2, #1
 477 0072 1A70     		strb	r2, [r3]
 180:app_Ble.c     ****                 
 181:app_Ble.c     ****                 memcpy(peerAddr.bdAddr, advReport->peerBdAddr, sizeof(peerAddr.bdAddr));
 478              		.loc 1 181 0
 479 0074 7B69     		ldr	r3, [r7, #20]
 480 0076 5B68     		ldr	r3, [r3, #4]
 481 0078 844A     		ldr	r2, .L44+8
 482 007a 111C     		mov	r1, r2
 483 007c 1A1C     		mov	r2, r3
 484 007e 0623     		mov	r3, #6
 485 0080 081C     		mov	r0, r1
 486 0082 111C     		mov	r1, r2
 487 0084 1A1C     		mov	r2, r3
 488 0086 FFF7FEFF 		bl	memcpy
 182:app_Ble.c     ****                 peerAddr.type = advReport->peerAddrType;
 489              		.loc 1 182 0
 490 008a 7B69     		ldr	r3, [r7, #20]
 491 008c 5A78     		ldrb	r2, [r3, #1]
 492 008e 7F4B     		ldr	r3, .L44+8
 493 0090 9A71     		strb	r2, [r3, #6]
 183:app_Ble.c     ****                 
 184:app_Ble.c     ****                 #ifdef PRINT_MESSAGE_LOG   
 185:app_Ble.c     ****                     UART_UartPutString("\n\r\n\rServer with matching custom service discovered...")
 494              		.loc 1 185 0
 495 0092 7F4B     		ldr	r3, .L44+12
 496 0094 181C     		mov	r0, r3
 497 0096 FFF7FEFF 		bl	UART_UartPutString
 186:app_Ble.c     ****                 #endif
 187:app_Ble.c     ****             }           
 188:app_Ble.c     ****             
 189:app_Ble.c     ****             break;    
 498              		.loc 1 189 0
 499 009a F0E0     		b	.L17
 500              	.L32:
 501 009c EFE0     		b	.L17
 502              	.L22:
 190:app_Ble.c     ****             
 191:app_Ble.c     ****         case CYBLE_EVT_GAP_DEVICE_DISCONNECTED:
 192:app_Ble.c     ****             
 193:app_Ble.c     ****             /* RESET all flags */
 194:app_Ble.c     ****             peerDeviceFound         = false;
 503              		.loc 1 194 0
 504 009e 7A4B     		ldr	r3, .L44+4
 505 00a0 0022     		mov	r2, #0
 506 00a2 1A70     		strb	r2, [r3]
ARM GAS  C:\Users\ANDREW~1\AppData\Local\Temp\ccx2l6Eu.s 			page 14


 195:app_Ble.c     ****             notificationEnabled     = false;
 507              		.loc 1 195 0
 508 00a4 7B4B     		ldr	r3, .L44+16
 509 00a6 0022     		mov	r2, #0
 510 00a8 1A70     		strb	r2, [r3]
 196:app_Ble.c     ****             infoExchangeState       = INFO_EXCHANGE_START;
 511              		.loc 1 196 0
 512 00aa 7B4B     		ldr	r3, .L44+20
 513 00ac 0022     		mov	r2, #0
 514 00ae 1A70     		strb	r2, [r3]
 197:app_Ble.c     ****             
 198:app_Ble.c     ****             #ifdef PRINT_MESSAGE_LOG   
 199:app_Ble.c     ****                 UART_UartPutString("\n\r DISCONNECTED!!! \n\r ");
 515              		.loc 1 199 0
 516 00b0 7A4B     		ldr	r3, .L44+24
 517 00b2 181C     		mov	r0, r3
 518 00b4 FFF7FEFF 		bl	UART_UartPutString
 200:app_Ble.c     ****                 while(0 != (UART_SpiUartGetTxBufferSize() + UART_GET_TX_FIFO_SR_VALID));
 519              		.loc 1 200 0
 520 00b8 C046     		mov	r8, r8
 521              	.L35:
 522              		.loc 1 200 0 is_stmt 0 discriminator 5
 523 00ba FFF7FEFF 		bl	UART_SpiUartGetTxBufferSize
 524 00be 011C     		mov	r1, r0
 525 00c0 774B     		ldr	r3, .L44+28
 526 00c2 1A68     		ldr	r2, [r3]
 527 00c4 8023     		mov	r3, #128
 528 00c6 1B02     		lsl	r3, r3, #8
 529 00c8 1340     		and	r3, r2
 530 00ca 01D0     		beq	.L33
 531              		.loc 1 200 0 discriminator 1
 532 00cc 0123     		mov	r3, #1
 533 00ce 00E0     		b	.L34
 534              	.L33:
 535              		.loc 1 200 0 discriminator 2
 536 00d0 0023     		mov	r3, #0
 537              	.L34:
 538              		.loc 1 200 0 discriminator 4
 539 00d2 CB18     		add	r3, r1, r3
 540 00d4 002B     		cmp	r3, #0
 541 00d6 F0D1     		bne	.L35
 201:app_Ble.c     ****             #endif
 202:app_Ble.c     ****             
 203:app_Ble.c     ****             /* RESET Uart and flush all buffers */
 204:app_Ble.c     ****             UART_Stop();
 542              		.loc 1 204 0 is_stmt 1
 543 00d8 FFF7FEFF 		bl	UART_Stop
 205:app_Ble.c     ****             UART_SpiUartClearTxBuffer();
 544              		.loc 1 205 0
 545 00dc FFF7FEFF 		bl	UART_SpiUartClearTxBuffer
 206:app_Ble.c     ****             UART_SpiUartClearRxBuffer();
 546              		.loc 1 206 0
 547 00e0 FFF7FEFF 		bl	UART_SpiUartClearRxBuffer
 207:app_Ble.c     ****             UART_Start();
 548              		.loc 1 207 0
 549 00e4 FFF7FEFF 		bl	UART_Start
 208:app_Ble.c     ****             
ARM GAS  C:\Users\ANDREW~1\AppData\Local\Temp\ccx2l6Eu.s 			page 15


 209:app_Ble.c     ****             break;
 550              		.loc 1 209 0
 551 00e8 C9E0     		b	.L17
 552              	.L26:
 210:app_Ble.c     ****         
 211:app_Ble.c     ****         case CYBLE_EVT_GATTC_READ_BY_TYPE_RSP:
 212:app_Ble.c     ****             
 213:app_Ble.c     ****             readResponse = (CYBLE_GATTC_READ_BY_TYPE_RSP_PARAM_T *) eventParam;
 553              		.loc 1 213 0
 554 00ea 3B68     		ldr	r3, [r7]
 555 00ec 3B61     		str	r3, [r7, #16]
 214:app_Ble.c     ****             
 215:app_Ble.c     ****             if(0 == memcmp((uint8 *)&(readResponse->attrData.attrValue[5]), (uint8 *)uartTxAttrUuid
 556              		.loc 1 215 0
 557 00ee 3B69     		ldr	r3, [r7, #16]
 558 00f0 5B68     		ldr	r3, [r3, #4]
 559 00f2 5A1D     		add	r2, r3, #5
 560 00f4 6B4B     		ldr	r3, .L44+32
 561 00f6 101C     		mov	r0, r2
 562 00f8 191C     		mov	r1, r3
 563 00fa 1022     		mov	r2, #16
 564 00fc FFF7FEFF 		bl	memcmp
 565 0100 031E     		sub	r3, r0, #0
 566 0102 1CD1     		bne	.L36
 216:app_Ble.c     ****             {
 217:app_Ble.c     ****                 txCharHandle = readResponse->attrData.attrValue[3];
 567              		.loc 1 217 0
 568 0104 3B69     		ldr	r3, [r7, #16]
 569 0106 5B68     		ldr	r3, [r3, #4]
 570 0108 0333     		add	r3, r3, #3
 571 010a 1B78     		ldrb	r3, [r3]
 572 010c 9AB2     		uxth	r2, r3
 573 010e 664B     		ldr	r3, .L44+36
 574 0110 1A80     		strh	r2, [r3]
 218:app_Ble.c     ****                 txCharHandle |= (readResponse->attrData.attrValue[4] << 8);
 575              		.loc 1 218 0
 576 0112 3B69     		ldr	r3, [r7, #16]
 577 0114 5B68     		ldr	r3, [r3, #4]
 578 0116 0433     		add	r3, r3, #4
 579 0118 1B78     		ldrb	r3, [r3]
 580 011a 1B02     		lsl	r3, r3, #8
 581 011c 9AB2     		uxth	r2, r3
 582 011e 624B     		ldr	r3, .L44+36
 583 0120 1B88     		ldrh	r3, [r3]
 584 0122 9BB2     		uxth	r3, r3
 585 0124 1343     		orr	r3, r2
 586 0126 9BB2     		uxth	r3, r3
 587 0128 9AB2     		uxth	r2, r3
 588 012a 5F4B     		ldr	r3, .L44+36
 589 012c 1A80     		strh	r2, [r3]
 219:app_Ble.c     ****                 
 220:app_Ble.c     ****                 infoExchangeState |= TX_ATTR_HANDLE_FOUND;
 590              		.loc 1 220 0
 591 012e 5A4B     		ldr	r3, .L44+20
 592 0130 1B78     		ldrb	r3, [r3]
 593 0132 0222     		mov	r2, #2
 594 0134 1343     		orr	r3, r2
ARM GAS  C:\Users\ANDREW~1\AppData\Local\Temp\ccx2l6Eu.s 			page 16


 595 0136 DAB2     		uxtb	r2, r3
 596 0138 574B     		ldr	r3, .L44+20
 597 013a 1A70     		strb	r2, [r3]
 598 013c 27E0     		b	.L37
 599              	.L36:
 221:app_Ble.c     ****             }
 222:app_Ble.c     ****             else if(0 == memcmp((uint8 *)&(readResponse->attrData.attrValue[5]), (uint8 *)uartRxAtt
 600              		.loc 1 222 0
 601 013e 3B69     		ldr	r3, [r7, #16]
 602 0140 5B68     		ldr	r3, [r3, #4]
 603 0142 5A1D     		add	r2, r3, #5
 604 0144 594B     		ldr	r3, .L44+40
 605 0146 101C     		mov	r0, r2
 606 0148 191C     		mov	r1, r3
 607 014a 1022     		mov	r2, #16
 608 014c FFF7FEFF 		bl	memcmp
 609 0150 031E     		sub	r3, r0, #0
 610 0152 1CD1     		bne	.L37
 223:app_Ble.c     ****             {
 224:app_Ble.c     ****                 rxCharHandle = readResponse->attrData.attrValue[3];
 611              		.loc 1 224 0
 612 0154 3B69     		ldr	r3, [r7, #16]
 613 0156 5B68     		ldr	r3, [r3, #4]
 614 0158 0333     		add	r3, r3, #3
 615 015a 1B78     		ldrb	r3, [r3]
 616 015c 9AB2     		uxth	r2, r3
 617 015e 544B     		ldr	r3, .L44+44
 618 0160 1A80     		strh	r2, [r3]
 225:app_Ble.c     ****                 rxCharHandle |= (readResponse->attrData.attrValue[4] << 8);
 619              		.loc 1 225 0
 620 0162 3B69     		ldr	r3, [r7, #16]
 621 0164 5B68     		ldr	r3, [r3, #4]
 622 0166 0433     		add	r3, r3, #4
 623 0168 1B78     		ldrb	r3, [r3]
 624 016a 1B02     		lsl	r3, r3, #8
 625 016c 9AB2     		uxth	r2, r3
 626 016e 504B     		ldr	r3, .L44+44
 627 0170 1B88     		ldrh	r3, [r3]
 628 0172 9BB2     		uxth	r3, r3
 629 0174 1343     		orr	r3, r2
 630 0176 9BB2     		uxth	r3, r3
 631 0178 9AB2     		uxth	r2, r3
 632 017a 4D4B     		ldr	r3, .L44+44
 633 017c 1A80     		strh	r2, [r3]
 226:app_Ble.c     ****                 
 227:app_Ble.c     ****                 infoExchangeState |= RX_ATTR_HANDLE_FOUND;
 634              		.loc 1 227 0
 635 017e 464B     		ldr	r3, .L44+20
 636 0180 1B78     		ldrb	r3, [r3]
 637 0182 0422     		mov	r2, #4
 638 0184 1343     		orr	r3, r2
 639 0186 DAB2     		uxtb	r2, r3
 640 0188 434B     		ldr	r3, .L44+20
 641 018a 1A70     		strb	r2, [r3]
 228:app_Ble.c     ****                
 229:app_Ble.c     ****             }
 230:app_Ble.c     ****             
ARM GAS  C:\Users\ANDREW~1\AppData\Local\Temp\ccx2l6Eu.s 			page 17


 231:app_Ble.c     ****             break;
 642              		.loc 1 231 0
 643 018c 77E0     		b	.L17
 644              	.L37:
 645 018e 76E0     		b	.L17
 646              	.L27:
 232:app_Ble.c     ****             
 233:app_Ble.c     ****         case CYBLE_EVT_GATTC_FIND_INFO_RSP:
 234:app_Ble.c     ****             
 235:app_Ble.c     ****             findInfoResponse = (CYBLE_GATTC_FIND_INFO_RSP_PARAM_T *) eventParam;
 647              		.loc 1 235 0
 648 0190 3B68     		ldr	r3, [r7]
 649 0192 FB60     		str	r3, [r7, #12]
 236:app_Ble.c     ****             
 237:app_Ble.c     ****             if((0x29 == findInfoResponse->handleValueList.list[3]) && \
 650              		.loc 1 237 0
 651 0194 FB68     		ldr	r3, [r7, #12]
 652 0196 5B68     		ldr	r3, [r3, #4]
 653 0198 0333     		add	r3, r3, #3
 654 019a 1B78     		ldrb	r3, [r3]
 655 019c 292B     		cmp	r3, #41
 656 019e 21D1     		bne	.L38
 238:app_Ble.c     ****                                 (0x02 == findInfoResponse->handleValueList.list[2]))
 657              		.loc 1 238 0 discriminator 1
 658 01a0 FB68     		ldr	r3, [r7, #12]
 659 01a2 5B68     		ldr	r3, [r3, #4]
 660 01a4 0233     		add	r3, r3, #2
 661 01a6 1B78     		ldrb	r3, [r3]
 237:app_Ble.c     ****                                 (0x02 == findInfoResponse->handleValueList.list[2]))
 662              		.loc 1 237 0 discriminator 1
 663 01a8 022B     		cmp	r3, #2
 664 01aa 1BD1     		bne	.L38
 239:app_Ble.c     ****             {
 240:app_Ble.c     ****                 txCharDescHandle = findInfoResponse->handleValueList.list[0];
 665              		.loc 1 240 0
 666 01ac FB68     		ldr	r3, [r7, #12]
 667 01ae 5B68     		ldr	r3, [r3, #4]
 668 01b0 1B78     		ldrb	r3, [r3]
 669 01b2 9AB2     		uxth	r2, r3
 670 01b4 3F4B     		ldr	r3, .L44+48
 671 01b6 1A80     		strh	r2, [r3]
 241:app_Ble.c     ****                 txCharDescHandle |= findInfoResponse->handleValueList.list[1] << 8;
 672              		.loc 1 241 0
 673 01b8 FB68     		ldr	r3, [r7, #12]
 674 01ba 5B68     		ldr	r3, [r3, #4]
 675 01bc 0133     		add	r3, r3, #1
 676 01be 1B78     		ldrb	r3, [r3]
 677 01c0 1B02     		lsl	r3, r3, #8
 678 01c2 9AB2     		uxth	r2, r3
 679 01c4 3B4B     		ldr	r3, .L44+48
 680 01c6 1B88     		ldrh	r3, [r3]
 681 01c8 9BB2     		uxth	r3, r3
 682 01ca 1343     		orr	r3, r2
 683 01cc 9BB2     		uxth	r3, r3
 684 01ce 9AB2     		uxth	r2, r3
 685 01d0 384B     		ldr	r3, .L44+48
 686 01d2 1A80     		strh	r2, [r3]
ARM GAS  C:\Users\ANDREW~1\AppData\Local\Temp\ccx2l6Eu.s 			page 18


 242:app_Ble.c     ****             
 243:app_Ble.c     ****                 infoExchangeState |= TX_CCCD_HANDLE_FOUND;
 687              		.loc 1 243 0
 688 01d4 304B     		ldr	r3, .L44+20
 689 01d6 1B78     		ldrb	r3, [r3]
 690 01d8 0822     		mov	r2, #8
 691 01da 1343     		orr	r3, r2
 692 01dc DAB2     		uxtb	r2, r3
 693 01de 2E4B     		ldr	r3, .L44+20
 694 01e0 1A70     		strb	r2, [r3]
 244:app_Ble.c     ****             }
 245:app_Ble.c     ****            
 246:app_Ble.c     ****             break;
 695              		.loc 1 246 0
 696 01e2 4CE0     		b	.L17
 697              	.L38:
 698 01e4 4BE0     		b	.L17
 699              	.L25:
 247:app_Ble.c     ****             
 248:app_Ble.c     ****         case CYBLE_EVT_GATTC_XCHNG_MTU_RSP:   
 249:app_Ble.c     ****             
 250:app_Ble.c     ****             /*set the 'mtuSize' variable based on the minimum MTU supported by both devices */
 251:app_Ble.c     ****             if(CYBLE_GATT_MTU > ((CYBLE_GATT_XCHG_MTU_PARAM_T *)eventParam)->mtu)
 700              		.loc 1 251 0
 701 01e6 3B68     		ldr	r3, [r7]
 702 01e8 5B88     		ldrh	r3, [r3, #2]
 703 01ea 162B     		cmp	r3, #22
 704 01ec 04D8     		bhi	.L39
 252:app_Ble.c     ****             {
 253:app_Ble.c     ****                 mtuSize = ((CYBLE_GATT_XCHG_MTU_PARAM_T *)eventParam)->mtu;
 705              		.loc 1 253 0
 706 01ee 3B68     		ldr	r3, [r7]
 707 01f0 5A88     		ldrh	r2, [r3, #2]
 708 01f2 314B     		ldr	r3, .L44+52
 709 01f4 1A80     		strh	r2, [r3]
 710 01f6 02E0     		b	.L40
 711              	.L39:
 254:app_Ble.c     ****             }
 255:app_Ble.c     ****             else
 256:app_Ble.c     ****             {
 257:app_Ble.c     ****                 mtuSize = CYBLE_GATT_MTU;
 712              		.loc 1 257 0
 713 01f8 2F4B     		ldr	r3, .L44+52
 714 01fa 1722     		mov	r2, #23
 715 01fc 1A80     		strh	r2, [r3]
 716              	.L40:
 258:app_Ble.c     ****             }
 259:app_Ble.c     ****             
 260:app_Ble.c     ****             infoExchangeState |= MTU_XCHNG_COMPLETE;
 717              		.loc 1 260 0
 718 01fe 264B     		ldr	r3, .L44+20
 719 0200 1B78     		ldrb	r3, [r3]
 720 0202 1022     		mov	r2, #16
 721 0204 1343     		orr	r3, r2
 722 0206 DAB2     		uxtb	r2, r3
 723 0208 234B     		ldr	r3, .L44+20
 724 020a 1A70     		strb	r2, [r3]
ARM GAS  C:\Users\ANDREW~1\AppData\Local\Temp\ccx2l6Eu.s 			page 19


 261:app_Ble.c     ****             
 262:app_Ble.c     ****             break;
 725              		.loc 1 262 0
 726 020c 37E0     		b	.L17
 727              	.L30:
 263:app_Ble.c     ****             
 264:app_Ble.c     ****         case CYBLE_EVT_GATTC_HANDLE_VALUE_NTF:
 265:app_Ble.c     ****             
 266:app_Ble.c     ****             HandleUartRxTraffic((CYBLE_GATTC_HANDLE_VALUE_NTF_PARAM_T *)eventParam);
 728              		.loc 1 266 0
 729 020e 3B68     		ldr	r3, [r7]
 730 0210 181C     		mov	r0, r3
 731 0212 FFF7FEFF 		bl	HandleUartRxTraffic
 267:app_Ble.c     **** 			
 268:app_Ble.c     ****             break;
 732              		.loc 1 268 0
 733 0216 32E0     		b	.L17
 734              	.L28:
 269:app_Ble.c     ****         
 270:app_Ble.c     ****         case CYBLE_EVT_GATTC_FIND_BY_TYPE_VALUE_RSP:
 271:app_Ble.c     ****             
 272:app_Ble.c     ****             findResponse            = (CYBLE_GATTC_FIND_BY_TYPE_RSP_PARAM_T *) eventParam;
 735              		.loc 1 272 0
 736 0218 3B68     		ldr	r3, [r7]
 737 021a BB60     		str	r3, [r7, #8]
 273:app_Ble.c     ****             
 274:app_Ble.c     ****             bleUartServiceHandle    = findResponse->range->startHandle;
 738              		.loc 1 274 0
 739 021c BB68     		ldr	r3, [r7, #8]
 740 021e 5B68     		ldr	r3, [r3, #4]
 741 0220 1A88     		ldrh	r2, [r3]
 742 0222 264B     		ldr	r3, .L44+56
 743 0224 1A80     		strh	r2, [r3]
 275:app_Ble.c     ****             bleUartServiceEndHandle = findResponse->range->endHandle;
 744              		.loc 1 275 0
 745 0226 BB68     		ldr	r3, [r7, #8]
 746 0228 5B68     		ldr	r3, [r3, #4]
 747 022a 5A88     		ldrh	r2, [r3, #2]
 748 022c 244B     		ldr	r3, .L44+60
 749 022e 1A80     		strh	r2, [r3]
 276:app_Ble.c     ****             
 277:app_Ble.c     ****             infoExchangeState |= BLE_UART_SERVICE_HANDLE_FOUND;
 750              		.loc 1 277 0
 751 0230 194B     		ldr	r3, .L44+20
 752 0232 1B78     		ldrb	r3, [r3]
 753 0234 0122     		mov	r2, #1
 754 0236 1343     		orr	r3, r2
 755 0238 DAB2     		uxtb	r2, r3
 756 023a 174B     		ldr	r3, .L44+20
 757 023c 1A70     		strb	r2, [r3]
 278:app_Ble.c     ****             
 279:app_Ble.c     ****             break;
 758              		.loc 1 279 0
 759 023e 1EE0     		b	.L17
 760              	.L24:
 280:app_Ble.c     ****         
 281:app_Ble.c     ****         case CYBLE_EVT_GATTS_XCNHG_MTU_REQ:
ARM GAS  C:\Users\ANDREW~1\AppData\Local\Temp\ccx2l6Eu.s 			page 20


 282:app_Ble.c     ****             
 283:app_Ble.c     ****             /*set the 'mtuSize' variable based on the minimum MTU supported by both devices */
 284:app_Ble.c     ****             if(CYBLE_GATT_MTU > ((CYBLE_GATT_XCHG_MTU_PARAM_T *)eventParam)->mtu)
 761              		.loc 1 284 0
 762 0240 3B68     		ldr	r3, [r7]
 763 0242 5B88     		ldrh	r3, [r3, #2]
 764 0244 162B     		cmp	r3, #22
 765 0246 04D8     		bhi	.L41
 285:app_Ble.c     ****             {
 286:app_Ble.c     ****                 mtuSize = ((CYBLE_GATT_XCHG_MTU_PARAM_T *)eventParam)->mtu;
 766              		.loc 1 286 0
 767 0248 3B68     		ldr	r3, [r7]
 768 024a 5A88     		ldrh	r2, [r3, #2]
 769 024c 1A4B     		ldr	r3, .L44+52
 770 024e 1A80     		strh	r2, [r3]
 287:app_Ble.c     ****             }
 288:app_Ble.c     ****             else
 289:app_Ble.c     ****             {
 290:app_Ble.c     ****                 mtuSize = CYBLE_GATT_MTU;
 291:app_Ble.c     ****             }
 292:app_Ble.c     ****             
 293:app_Ble.c     ****             break;    
 771              		.loc 1 293 0
 772 0250 15E0     		b	.L17
 773              	.L41:
 290:app_Ble.c     ****             }
 774              		.loc 1 290 0
 775 0252 194B     		ldr	r3, .L44+52
 776 0254 1722     		mov	r2, #23
 777 0256 1A80     		strh	r2, [r3]
 778              		.loc 1 293 0
 779 0258 11E0     		b	.L17
 780              	.L29:
 294:app_Ble.c     ****         
 295:app_Ble.c     ****         case CYBLE_EVT_GATTC_WRITE_RSP:
 296:app_Ble.c     ****             
 297:app_Ble.c     ****             notificationEnabled = true;
 781              		.loc 1 297 0
 782 025a 0E4B     		ldr	r3, .L44+16
 783 025c 0122     		mov	r2, #1
 784 025e 1A70     		strb	r2, [r3]
 298:app_Ble.c     ****             
 299:app_Ble.c     ****             #ifdef PRINT_MESSAGE_LOG   
 300:app_Ble.c     ****                 UART_UartPutString("\n\rNotifications enabled\n\r");
 785              		.loc 1 300 0
 786 0260 184B     		ldr	r3, .L44+64
 787 0262 181C     		mov	r0, r3
 788 0264 FFF7FEFF 		bl	UART_UartPutString
 301:app_Ble.c     ****                 UART_UartPutString("\n\rStart entering data:\n\r");
 789              		.loc 1 301 0
 790 0268 174B     		ldr	r3, .L44+68
 791 026a 181C     		mov	r0, r3
 792 026c FFF7FEFF 		bl	UART_UartPutString
 302:app_Ble.c     ****             #endif
 303:app_Ble.c     ****             
 304:app_Ble.c     ****             break;
 793              		.loc 1 304 0
ARM GAS  C:\Users\ANDREW~1\AppData\Local\Temp\ccx2l6Eu.s 			page 21


 794 0270 05E0     		b	.L17
 795              	.L23:
 305:app_Ble.c     ****         
 306:app_Ble.c     ****         case CYBLE_EVT_GATT_CONNECT_IND:
 307:app_Ble.c     ****             
 308:app_Ble.c     ****             #ifdef PRINT_MESSAGE_LOG   
 309:app_Ble.c     ****                 UART_UartPutString("\n\rConnection established");             
 796              		.loc 1 309 0
 797 0272 164B     		ldr	r3, .L44+72
 798 0274 181C     		mov	r0, r3
 799 0276 FFF7FEFF 		bl	UART_UartPutString
 310:app_Ble.c     ****             #endif
 311:app_Ble.c     ****             
 312:app_Ble.c     ****             break;
 800              		.loc 1 312 0
 801 027a 00E0     		b	.L17
 802              	.L43:
 313:app_Ble.c     ****             
 314:app_Ble.c     ****         default:            
 315:app_Ble.c     ****             break;
 803              		.loc 1 315 0
 804 027c C046     		mov	r8, r8
 805              	.L17:
 316:app_Ble.c     ****     }
 317:app_Ble.c     **** }
 806              		.loc 1 317 0
 807 027e BD46     		mov	sp, r7
 808 0280 06B0     		add	sp, sp, #24
 809              		@ sp needed
 810 0282 80BD     		pop	{r7, pc}
 811              	.L45:
 812              		.align	2
 813              	.L44:
 814 0284 E0000000 		.word	.L20
 815 0288 0A000000 		.word	peerDeviceFound
 816 028c 0C000000 		.word	peerAddr
 817 0290 3C000000 		.word	.LC9
 818 0294 0B000000 		.word	notificationEnabled
 819 0298 13000000 		.word	infoExchangeState
 820 029c 74000000 		.word	.LC13
 821 02a0 08022440 		.word	1076101640
 822 02a4 00000000 		.word	uartTxAttrUuid
 823 02a8 00000000 		.word	txCharHandle
 824 02ac 00000000 		.word	uartRxAttrUuid
 825 02b0 00000000 		.word	rxCharHandle
 826 02b4 00000000 		.word	txCharDescHandle
 827 02b8 00000000 		.word	mtuSize
 828 02bc 00000000 		.word	bleUartServiceHandle
 829 02c0 00000000 		.word	bleUartServiceEndHandle
 830 02c4 8C000000 		.word	.LC23
 831 02c8 A8000000 		.word	.LC25
 832 02cc C4000000 		.word	.LC27
 833              		.cfi_endproc
 834              	.LFE38:
 835              		.size	AppCallBack, .-AppCallBack
 836              		.section	.text.attrHandleInit,"ax",%progbits
 837              		.align	2
ARM GAS  C:\Users\ANDREW~1\AppData\Local\Temp\ccx2l6Eu.s 			page 22


 838              		.global	attrHandleInit
 839              		.code	16
 840              		.thumb_func
 841              		.type	attrHandleInit, %function
 842              	attrHandleInit:
 843              	.LFB39:
 318:app_Ble.c     **** 
 319:app_Ble.c     **** 
 320:app_Ble.c     **** /*******************************************************************************
 321:app_Ble.c     **** * Function Name: attrHandleInit
 322:app_Ble.c     **** ********************************************************************************
 323:app_Ble.c     **** *
 324:app_Ble.c     **** * Summary:
 325:app_Ble.c     **** *  This function gathhers all the information like attribute handles and MTU size
 326:app_Ble.c     **** *  from the server.
 327:app_Ble.c     **** *
 328:app_Ble.c     **** * Parameters:
 329:app_Ble.c     **** *  None.
 330:app_Ble.c     **** *
 331:app_Ble.c     **** * Return:
 332:app_Ble.c     **** *   None.
 333:app_Ble.c     **** *
 334:app_Ble.c     **** *******************************************************************************/
 335:app_Ble.c     **** void attrHandleInit()
 336:app_Ble.c     **** {
 844              		.loc 1 336 0
 845              		.cfi_startproc
 846 0000 80B5     		push	{r7, lr}
 847              		.cfi_def_cfa_offset 8
 848              		.cfi_offset 7, -8
 849              		.cfi_offset 14, -4
 850 0002 00AF     		add	r7, sp, #0
 851              		.cfi_def_cfa_register 7
 337:app_Ble.c     ****     switch(infoExchangeState)
 852              		.loc 1 337 0
 853 0004 354B     		ldr	r3, .L54
 854 0006 1B78     		ldrb	r3, [r3]
 855 0008 012B     		cmp	r3, #1
 856 000a 1AD0     		beq	.L48
 857 000c 02DC     		bgt	.L49
 858 000e 002B     		cmp	r3, #0
 859 0010 05D0     		beq	.L50
 338:app_Ble.c     ****     {
 339:app_Ble.c     ****         case INFO_EXCHANGE_START:        
 340:app_Ble.c     ****             CyBle_GattcDiscoverPrimaryServiceByUuid(cyBle_connHandle, bleUartServiceUuidInfo);
 341:app_Ble.c     ****             break;
 342:app_Ble.c     ****         
 343:app_Ble.c     ****         case BLE_UART_SERVICE_HANDLE_FOUND:
 344:app_Ble.c     ****             attrHandleRange.startHandle    = bleUartServiceHandle;
 345:app_Ble.c     ****             attrHandleRange.endHandle      = bleUartServiceEndHandle;
 346:app_Ble.c     **** 
 347:app_Ble.c     ****             CyBle_GattcDiscoverAllCharacteristics(cyBle_connHandle, attrHandleRange);
 348:app_Ble.c     ****             break;
 349:app_Ble.c     ****         
 350:app_Ble.c     ****         case (SERVICE_AND_CHAR_HANDLES_FOUND):
 351:app_Ble.c     ****             charDescHandleRange.startHandle = txCharHandle + 1;
 352:app_Ble.c     ****             charDescHandleRange.endHandle   = bleUartServiceEndHandle;
ARM GAS  C:\Users\ANDREW~1\AppData\Local\Temp\ccx2l6Eu.s 			page 23


 353:app_Ble.c     **** 
 354:app_Ble.c     ****             CyBle_GattcDiscoverAllCharacteristicDescriptors(cyBle_connHandle, &charDescHandleRange)
 355:app_Ble.c     ****             break;
 356:app_Ble.c     ****         
 357:app_Ble.c     ****         case (ALL_HANDLES_FOUND):
 358:app_Ble.c     ****             CyBle_GattcExchangeMtuReq(cyBle_connHandle, CYBLE_GATT_MTU);
 359:app_Ble.c     ****             break;    
 360:app_Ble.c     ****             
 361:app_Ble.c     ****         default:
 362:app_Ble.c     ****             break;    
 860              		.loc 1 362 0
 861 0012 5EE0     		b	.L53
 862              	.L49:
 337:app_Ble.c     ****     switch(infoExchangeState)
 863              		.loc 1 337 0
 864 0014 072B     		cmp	r3, #7
 865 0016 32D0     		beq	.L51
 866 0018 0F2B     		cmp	r3, #15
 867 001a 4AD0     		beq	.L52
 868              		.loc 1 362 0
 869 001c 59E0     		b	.L53
 870              	.L50:
 340:app_Ble.c     ****             break;
 871              		.loc 1 340 0
 872 001e 304A     		ldr	r2, .L54+4
 873 0020 304B     		ldr	r3, .L54+8
 874 0022 1178     		ldrb	r1, [r2]
 875 0024 5278     		ldrb	r2, [r2, #1]
 876 0026 1202     		lsl	r2, r2, #8
 877 0028 1143     		orr	r1, r2
 878 002a 0022     		mov	r2, #0
 879 002c 0904     		lsl	r1, r1, #16
 880 002e 090C     		lsr	r1, r1, #16
 881 0030 120C     		lsr	r2, r2, #16
 882 0032 1204     		lsl	r2, r2, #16
 883 0034 0A43     		orr	r2, r1
 884 0036 101C     		mov	r0, r2
 885 0038 1968     		ldr	r1, [r3]
 886 003a 5A68     		ldr	r2, [r3, #4]
 887 003c FFF7FEFF 		bl	CyBle_GattcDiscoverPrimaryServiceByUuid
 341:app_Ble.c     ****         
 888              		.loc 1 341 0
 889 0040 47E0     		b	.L53
 890              	.L48:
 344:app_Ble.c     ****             attrHandleRange.endHandle      = bleUartServiceEndHandle;
 891              		.loc 1 344 0
 892 0042 294B     		ldr	r3, .L54+12
 893 0044 1A88     		ldrh	r2, [r3]
 894 0046 294B     		ldr	r3, .L54+16
 895 0048 1A80     		strh	r2, [r3]
 345:app_Ble.c     **** 
 896              		.loc 1 345 0
 897 004a 294B     		ldr	r3, .L54+20
 898 004c 1A88     		ldrh	r2, [r3]
 899 004e 274B     		ldr	r3, .L54+16
 900 0050 5A80     		strh	r2, [r3, #2]
 347:app_Ble.c     ****             break;
ARM GAS  C:\Users\ANDREW~1\AppData\Local\Temp\ccx2l6Eu.s 			page 24


 901              		.loc 1 347 0
 902 0052 234A     		ldr	r2, .L54+4
 903 0054 254B     		ldr	r3, .L54+16
 904 0056 1178     		ldrb	r1, [r2]
 905 0058 5278     		ldrb	r2, [r2, #1]
 906 005a 1202     		lsl	r2, r2, #8
 907 005c 1143     		orr	r1, r2
 908 005e 0022     		mov	r2, #0
 909 0060 0904     		lsl	r1, r1, #16
 910 0062 090C     		lsr	r1, r1, #16
 911 0064 120C     		lsr	r2, r2, #16
 912 0066 1204     		lsl	r2, r2, #16
 913 0068 0A43     		orr	r2, r1
 914 006a 1988     		ldrh	r1, [r3]
 915 006c 5B88     		ldrh	r3, [r3, #2]
 916 006e 1B04     		lsl	r3, r3, #16
 917 0070 0B43     		orr	r3, r1
 918 0072 0021     		mov	r1, #0
 919 0074 191C     		mov	r1, r3
 920 0076 101C     		mov	r0, r2
 921 0078 FFF7FEFF 		bl	CyBle_GattcDiscoverAllCharacteristics
 348:app_Ble.c     ****         
 922              		.loc 1 348 0
 923 007c 29E0     		b	.L53
 924              	.L51:
 351:app_Ble.c     ****             charDescHandleRange.endHandle   = bleUartServiceEndHandle;
 925              		.loc 1 351 0
 926 007e 1D4B     		ldr	r3, .L54+24
 927 0080 1B88     		ldrh	r3, [r3]
 928 0082 0133     		add	r3, r3, #1
 929 0084 9AB2     		uxth	r2, r3
 930 0086 1C4B     		ldr	r3, .L54+28
 931 0088 1A80     		strh	r2, [r3]
 352:app_Ble.c     **** 
 932              		.loc 1 352 0
 933 008a 194B     		ldr	r3, .L54+20
 934 008c 1A88     		ldrh	r2, [r3]
 935 008e 1A4B     		ldr	r3, .L54+28
 936 0090 5A80     		strh	r2, [r3, #2]
 354:app_Ble.c     ****             break;
 937              		.loc 1 354 0
 938 0092 134B     		ldr	r3, .L54+4
 939 0094 1849     		ldr	r1, .L54+28
 940 0096 1A78     		ldrb	r2, [r3]
 941 0098 5B78     		ldrb	r3, [r3, #1]
 942 009a 1B02     		lsl	r3, r3, #8
 943 009c 1A43     		orr	r2, r3
 944 009e 0023     		mov	r3, #0
 945 00a0 1204     		lsl	r2, r2, #16
 946 00a2 120C     		lsr	r2, r2, #16
 947 00a4 1B0C     		lsr	r3, r3, #16
 948 00a6 1B04     		lsl	r3, r3, #16
 949 00a8 1343     		orr	r3, r2
 950 00aa 181C     		mov	r0, r3
 951 00ac FFF7FEFF 		bl	CyBle_GattcDiscoverAllCharacteristicDescriptors
 355:app_Ble.c     ****         
 952              		.loc 1 355 0
ARM GAS  C:\Users\ANDREW~1\AppData\Local\Temp\ccx2l6Eu.s 			page 25


 953 00b0 0FE0     		b	.L53
 954              	.L52:
 358:app_Ble.c     ****             break;    
 955              		.loc 1 358 0
 956 00b2 0B4B     		ldr	r3, .L54+4
 957 00b4 1A78     		ldrb	r2, [r3]
 958 00b6 5B78     		ldrb	r3, [r3, #1]
 959 00b8 1B02     		lsl	r3, r3, #8
 960 00ba 1A43     		orr	r2, r3
 961 00bc 0023     		mov	r3, #0
 962 00be 1204     		lsl	r2, r2, #16
 963 00c0 120C     		lsr	r2, r2, #16
 964 00c2 1B0C     		lsr	r3, r3, #16
 965 00c4 1B04     		lsl	r3, r3, #16
 966 00c6 1343     		orr	r3, r2
 967 00c8 181C     		mov	r0, r3
 968 00ca 1721     		mov	r1, #23
 969 00cc FFF7FEFF 		bl	CyBle_GattcExchangeMtuReq
 359:app_Ble.c     ****             
 970              		.loc 1 359 0
 971 00d0 C046     		mov	r8, r8
 972              	.L53:
 363:app_Ble.c     ****     }
 364:app_Ble.c     ****     
 365:app_Ble.c     ****     CyBle_ProcessEvents();
 973              		.loc 1 365 0
 974 00d2 FFF7FEFF 		bl	CyBle_ProcessEvents
 366:app_Ble.c     **** }
 975              		.loc 1 366 0
 976 00d6 BD46     		mov	sp, r7
 977              		@ sp needed
 978 00d8 80BD     		pop	{r7, pc}
 979              	.L55:
 980 00da C046     		.align	2
 981              	.L54:
 982 00dc 13000000 		.word	infoExchangeState
 983 00e0 00000000 		.word	cyBle_connHandle
 984 00e4 00000000 		.word	bleUartServiceUuidInfo
 985 00e8 00000000 		.word	bleUartServiceHandle
 986 00ec 00000000 		.word	attrHandleRange
 987 00f0 00000000 		.word	bleUartServiceEndHandle
 988 00f4 00000000 		.word	txCharHandle
 989 00f8 00000000 		.word	charDescHandleRange
 990              		.cfi_endproc
 991              	.LFE39:
 992              		.size	attrHandleInit, .-attrHandleInit
 993              		.section	.text.enableNotifications,"ax",%progbits
 994              		.align	2
 995              		.global	enableNotifications
 996              		.code	16
 997              		.thumb_func
 998              		.type	enableNotifications, %function
 999              	enableNotifications:
 1000              	.LFB40:
 367:app_Ble.c     **** 
 368:app_Ble.c     **** /*******************************************************************************
 369:app_Ble.c     **** * Function Name: enableNotifications
ARM GAS  C:\Users\ANDREW~1\AppData\Local\Temp\ccx2l6Eu.s 			page 26


 370:app_Ble.c     **** ********************************************************************************
 371:app_Ble.c     **** *
 372:app_Ble.c     **** * Summary:
 373:app_Ble.c     **** *  This function enables notfications from servers. 
 374:app_Ble.c     **** *
 375:app_Ble.c     **** * Parameters:
 376:app_Ble.c     **** *  None.
 377:app_Ble.c     **** *
 378:app_Ble.c     **** * Return:
 379:app_Ble.c     **** *   None.
 380:app_Ble.c     **** *
 381:app_Ble.c     **** *******************************************************************************/
 382:app_Ble.c     **** void enableNotifications()
 383:app_Ble.c     **** {     
 1001              		.loc 1 383 0
 1002              		.cfi_startproc
 1003 0000 80B5     		push	{r7, lr}
 1004              		.cfi_def_cfa_offset 8
 1005              		.cfi_offset 7, -8
 1006              		.cfi_offset 14, -4
 1007 0002 00AF     		add	r7, sp, #0
 1008              		.cfi_def_cfa_register 7
 384:app_Ble.c     ****     enableNotificationReqParam.attrHandle = txCharDescHandle;   
 1009              		.loc 1 384 0
 1010 0004 0A4B     		ldr	r3, .L57
 1011 0006 1A88     		ldrh	r2, [r3]
 1012 0008 0A4B     		ldr	r3, .L57+4
 1013 000a 1A81     		strh	r2, [r3, #8]
 385:app_Ble.c     ****     CyBle_GattcWriteCharacteristicDescriptors(cyBle_connHandle, (CYBLE_GATTC_WRITE_REQ_T *)(&enable
 1014              		.loc 1 385 0
 1015 000c 0A4B     		ldr	r3, .L57+8
 1016 000e 0949     		ldr	r1, .L57+4
 1017 0010 1A78     		ldrb	r2, [r3]
 1018 0012 5B78     		ldrb	r3, [r3, #1]
 1019 0014 1B02     		lsl	r3, r3, #8
 1020 0016 1A43     		orr	r2, r3
 1021 0018 0023     		mov	r3, #0
 1022 001a 1204     		lsl	r2, r2, #16
 1023 001c 120C     		lsr	r2, r2, #16
 1024 001e 1B0C     		lsr	r3, r3, #16
 1025 0020 1B04     		lsl	r3, r3, #16
 1026 0022 1343     		orr	r3, r2
 1027 0024 181C     		mov	r0, r3
 1028 0026 FFF7FEFF 		bl	CyBle_GattcWriteCharacteristicDescriptors
 386:app_Ble.c     **** }
 1029              		.loc 1 386 0
 1030 002a BD46     		mov	sp, r7
 1031              		@ sp needed
 1032 002c 80BD     		pop	{r7, pc}
 1033              	.L58:
 1034 002e C046     		.align	2
 1035              	.L57:
 1036 0030 00000000 		.word	txCharDescHandle
 1037 0034 00000000 		.word	enableNotificationReqParam
 1038 0038 00000000 		.word	cyBle_connHandle
 1039              		.cfi_endproc
 1040              	.LFE40:
ARM GAS  C:\Users\ANDREW~1\AppData\Local\Temp\ccx2l6Eu.s 			page 27


 1041              		.size	enableNotifications, .-enableNotifications
 1042              		.text
 1043              	.Letext0:
 1044              		.file 2 "Generated_Source\\PSoC4/cytypes.h"
 1045              		.file 3 "Generated_Source\\PSoC4/BLE_Stack.h"
 1046              		.file 4 "Generated_Source\\PSoC4/BLE_StackGap.h"
 1047              		.file 5 "Generated_Source\\PSoC4/BLE_StackGatt.h"
 1048              		.file 6 "Generated_Source\\PSoC4/BLE_StackGattClient.h"
 1049              		.file 7 "Generated_Source\\PSoC4/BLE_eventHandler.h"
 1050              		.file 8 "app_Ble.h"