ARM GAS  C:\Users\ANDREW~1\AppData\Local\Temp\cc7eSGyA.s 			page 1


   1              		.cpu cortex-m0
   2              		.fpu softvfp
   3              		.eabi_attribute 20, 1
   4              		.eabi_attribute 21, 1
   5              		.eabi_attribute 23, 3
   6              		.eabi_attribute 24, 1
   7              		.eabi_attribute 25, 1
   8              		.eabi_attribute 26, 1
   9              		.eabi_attribute 30, 6
  10              		.eabi_attribute 34, 0
  11              		.eabi_attribute 18, 4
  12              		.code	16
  13              		.file	"app_UART.c"
  14              		.text
  15              	.Ltext0:
  16              		.cfi_sections	.debug_frame
  17              		.section	.text.HandleUartRxTraffic,"ax",%progbits
  18              		.align	2
  19              		.global	HandleUartRxTraffic
  20              		.code	16
  21              		.thumb_func
  22              		.type	HandleUartRxTraffic, %function
  23              	HandleUartRxTraffic:
  24              	.LFB37:
  25              		.file 1 "app_UART.c"
   1:app_UART.c    **** /*******************************************************************************
   2:app_UART.c    **** * File Name: app_UART.c
   3:app_UART.c    **** *
   4:app_UART.c    **** * Description:
   5:app_UART.c    **** *  Common BLE application code for client devices.
   6:app_UART.c    **** *
   7:app_UART.c    **** *******************************************************************************
   8:app_UART.c    **** * Copyright 2015, Cypress Semiconductor Corporation.  All rights reserved.
   9:app_UART.c    **** * You may use this file only in accordance with the license, terms, conditions,
  10:app_UART.c    **** * disclaimers, and limitations in the end user license agreement accompanying
  11:app_UART.c    **** * the software package with which this file was provided.
  12:app_UART.c    **** *******************************************************************************/
  13:app_UART.c    **** 
  14:app_UART.c    **** #include "app_UART.h"
  15:app_UART.c    **** 
  16:app_UART.c    **** 
  17:app_UART.c    **** /*******************************************************************************
  18:app_UART.c    **** * Function Name: HandleUartRxTraffic
  19:app_UART.c    **** ********************************************************************************
  20:app_UART.c    **** *
  21:app_UART.c    **** * Summary:
  22:app_UART.c    **** *  This function takes data from received notfications and pushes it to the 
  23:app_UART.c    **** *  UART TX buffer. 
  24:app_UART.c    **** *
  25:app_UART.c    **** * Parameters:
  26:app_UART.c    **** *  CYBLE_GATTC_HANDLE_VALUE_NTF_PARAM_T * - the notification parameter as  
  27:app_UART.c    **** *                                           recieved by the BLE stack
  28:app_UART.c    **** *
  29:app_UART.c    **** * Return:
  30:app_UART.c    **** *   None.
  31:app_UART.c    **** *
  32:app_UART.c    **** *******************************************************************************/
ARM GAS  C:\Users\ANDREW~1\AppData\Local\Temp\cc7eSGyA.s 			page 2


  33:app_UART.c    **** void HandleUartRxTraffic(CYBLE_GATTC_HANDLE_VALUE_NTF_PARAM_T *uartRxDataNotification)
  34:app_UART.c    **** {    
  26              		.loc 1 34 0
  27              		.cfi_startproc
  28 0000 80B5     		push	{r7, lr}
  29              		.cfi_def_cfa_offset 8
  30              		.cfi_offset 7, -8
  31              		.cfi_offset 14, -4
  32 0002 86B0     		sub	sp, sp, #24
  33              		.cfi_def_cfa_offset 32
  34 0004 00AF     		add	r7, sp, #0
  35              		.cfi_def_cfa_register 7
  36 0006 7860     		str	r0, [r7, #4]
  35:app_UART.c    ****     unsigned char *x =  uartRxDataNotification->handleValPair.value.val;
  37              		.loc 1 35 0
  38 0008 7B68     		ldr	r3, [r7, #4]
  39 000a 5B68     		ldr	r3, [r3, #4]
  40 000c 3B61     		str	r3, [r7, #16]
  36:app_UART.c    ****               
  37:app_UART.c    ****             
  38:app_UART.c    ****     int l; //Variable for Loop Through Light Source           
  39:app_UART.c    ****     
  40:app_UART.c    ****     
  41:app_UART.c    ****     switch (*x)
  41              		.loc 1 41 0
  42 000e 3B69     		ldr	r3, [r7, #16]
  43 0010 1B78     		ldrb	r3, [r3]
  44 0012 303B     		sub	r3, r3, #48
  45 0014 432B     		cmp	r3, #67
  46 0016 59D8     		bhi	.L18
  47 0018 9A00     		lsl	r2, r3, #2
  48 001a 2E4B     		ldr	r3, .L19
  49 001c D318     		add	r3, r2, r3
  50 001e 1B68     		ldr	r3, [r3]
  51 0020 9F46     		mov	pc, r3
  52              		.section	.rodata
  53              		.align	2
  54              	.L4:
  55 0000 90000000 		.word	.L3
  56 0004 9C000000 		.word	.L5
  57 0008 A8000000 		.word	.L6
  58 000c B4000000 		.word	.L7
  59 0010 C0000000 		.word	.L8
  60 0014 CC000000 		.word	.L18
  61 0018 CC000000 		.word	.L18
  62 001c CC000000 		.word	.L18
  63 0020 CC000000 		.word	.L18
  64 0024 CC000000 		.word	.L18
  65 0028 CC000000 		.word	.L18
  66 002c CC000000 		.word	.L18
  67 0030 CC000000 		.word	.L18
  68 0034 CC000000 		.word	.L18
  69 0038 CC000000 		.word	.L18
  70 003c CC000000 		.word	.L18
  71 0040 CC000000 		.word	.L18
  72 0044 CC000000 		.word	.L18
  73 0048 CC000000 		.word	.L18
ARM GAS  C:\Users\ANDREW~1\AppData\Local\Temp\cc7eSGyA.s 			page 3


  74 004c CC000000 		.word	.L18
  75 0050 CC000000 		.word	.L18
  76 0054 CC000000 		.word	.L18
  77 0058 CC000000 		.word	.L18
  78 005c CC000000 		.word	.L18
  79 0060 CC000000 		.word	.L18
  80 0064 CC000000 		.word	.L18
  81 0068 CC000000 		.word	.L18
  82 006c CC000000 		.word	.L18
  83 0070 CC000000 		.word	.L18
  84 0074 CC000000 		.word	.L18
  85 0078 CC000000 		.word	.L18
  86 007c CC000000 		.word	.L18
  87 0080 CC000000 		.word	.L18
  88 0084 CC000000 		.word	.L18
  89 0088 CC000000 		.word	.L18
  90 008c CC000000 		.word	.L18
  91 0090 CC000000 		.word	.L18
  92 0094 CC000000 		.word	.L18
  93 0098 CC000000 		.word	.L18
  94 009c CC000000 		.word	.L18
  95 00a0 CC000000 		.word	.L18
  96 00a4 CC000000 		.word	.L18
  97 00a8 CC000000 		.word	.L18
  98 00ac CC000000 		.word	.L18
  99 00b0 CC000000 		.word	.L18
 100 00b4 CC000000 		.word	.L18
 101 00b8 CC000000 		.word	.L18
 102 00bc CC000000 		.word	.L18
 103 00c0 CC000000 		.word	.L18
 104 00c4 CC000000 		.word	.L18
 105 00c8 52000000 		.word	.L9
 106 00cc CC000000 		.word	.L18
 107 00d0 CC000000 		.word	.L18
 108 00d4 CC000000 		.word	.L18
 109 00d8 CC000000 		.word	.L18
 110 00dc CC000000 		.word	.L18
 111 00e0 CC000000 		.word	.L18
 112 00e4 CC000000 		.word	.L18
 113 00e8 CC000000 		.word	.L18
 114 00ec CC000000 		.word	.L18
 115 00f0 CC000000 		.word	.L18
 116 00f4 4C000000 		.word	.L10
 117 00f8 CC000000 		.word	.L18
 118 00fc CC000000 		.word	.L18
 119 0100 CC000000 		.word	.L18
 120 0104 CC000000 		.word	.L18
 121 0108 22000000 		.word	.L11
 122 010c 46000000 		.word	.L12
 123              		.section	.text.HandleUartRxTraffic
 124              	.L11:
  42:app_UART.c    ****     {
  43:app_UART.c    ****         case 'r':
  44:app_UART.c    ****             for (l = 0; l < 5; l++) //Loop Through Light Source
 125              		.loc 1 44 0
 126 0022 0023     		mov	r3, #0
 127 0024 7B61     		str	r3, [r7, #20]
ARM GAS  C:\Users\ANDREW~1\AppData\Local\Temp\cc7eSGyA.s 			page 4


 128 0026 0AE0     		b	.L13
 129              	.L14:
  45:app_UART.c    ****             {                                
  46:app_UART.c    ****                 switchLED(l);
 130              		.loc 1 46 0 discriminator 3
 131 0028 7B69     		ldr	r3, [r7, #20]
 132 002a 181C     		mov	r0, r3
 133 002c FFF7FEFF 		bl	switchLED
  47:app_UART.c    ****                 readSensor(l);                
 134              		.loc 1 47 0 discriminator 3
 135 0030 7B69     		ldr	r3, [r7, #20]
 136 0032 181C     		mov	r0, r3
 137 0034 FFF7FEFF 		bl	readSensor
  44:app_UART.c    ****             {                                
 138              		.loc 1 44 0 discriminator 3
 139 0038 7B69     		ldr	r3, [r7, #20]
 140 003a 0133     		add	r3, r3, #1
 141 003c 7B61     		str	r3, [r7, #20]
 142              	.L13:
  44:app_UART.c    ****             {                                
 143              		.loc 1 44 0 is_stmt 0 discriminator 1
 144 003e 7B69     		ldr	r3, [r7, #20]
 145 0040 042B     		cmp	r3, #4
 146 0042 F1DD     		ble	.L14
  48:app_UART.c    ****             }   
  49:app_UART.c    ****             break;
 147              		.loc 1 49 0 is_stmt 1
 148 0044 43E0     		b	.L1
 149              	.L12:
  50:app_UART.c    ****         case 's':
  51:app_UART.c    ****             millis_Reset();
 150              		.loc 1 51 0
 151 0046 FFF7FEFF 		bl	millis_Reset
  52:app_UART.c    ****             break;
 152              		.loc 1 52 0
 153 004a 40E0     		b	.L1
 154              	.L10:
  53:app_UART.c    ****         case 'm':
  54:app_UART.c    ****             CySoftwareReset();
 155              		.loc 1 54 0
 156 004c FFF7FEFF 		bl	CySoftwareReset
  55:app_UART.c    ****             break;
 157              		.loc 1 55 0
 158 0050 3DE0     		b	.L1
 159              	.L9:
  56:app_UART.c    ****         case 'b':
  57:app_UART.c    ****             for (l = 0; l < 4; l++) //Loop Through Each Sensor
 160              		.loc 1 57 0
 161 0052 0023     		mov	r3, #0
 162 0054 7B61     		str	r3, [r7, #20]
 163 0056 17E0     		b	.L16
 164              	.L17:
 165              	.LBB2:
  58:app_UART.c    ****             {
  59:app_UART.c    ****                 ADC_IsEndConversion(ADC_WAIT_FOR_RESULT);
 166              		.loc 1 59 0 discriminator 3
 167 0058 0220     		mov	r0, #2
ARM GAS  C:\Users\ANDREW~1\AppData\Local\Temp\cc7eSGyA.s 			page 5


 168 005a FFF7FEFF 		bl	ADC_IsEndConversion
  60:app_UART.c    ****                 uint16 VAL1 = ADC_GetResult16(l);
 169              		.loc 1 60 0 discriminator 3
 170 005e 7B69     		ldr	r3, [r7, #20]
 171 0060 181C     		mov	r0, r3
 172 0062 FFF7FEFF 		bl	ADC_GetResult16
 173 0066 031C     		mov	r3, r0
 174 0068 1A1C     		mov	r2, r3
 175 006a 0E23     		mov	r3, #14
 176 006c FB18     		add	r3, r7, r3
 177 006e 1A80     		strh	r2, [r3]
  61:app_UART.c    ****                 ADC_SetOffset(l,VAL1);
 178              		.loc 1 61 0 discriminator 3
 179 0070 7A69     		ldr	r2, [r7, #20]
 180 0072 0E23     		mov	r3, #14
 181 0074 FB18     		add	r3, r7, r3
 182 0076 1B88     		ldrh	r3, [r3]
 183 0078 1BB2     		sxth	r3, r3
 184 007a 101C     		mov	r0, r2
 185 007c 191C     		mov	r1, r3
 186 007e FFF7FEFF 		bl	ADC_SetOffset
 187              	.LBE2:
  57:app_UART.c    ****             {
 188              		.loc 1 57 0 discriminator 3
 189 0082 7B69     		ldr	r3, [r7, #20]
 190 0084 0133     		add	r3, r3, #1
 191 0086 7B61     		str	r3, [r7, #20]
 192              	.L16:
  57:app_UART.c    ****             {
 193              		.loc 1 57 0 is_stmt 0 discriminator 1
 194 0088 7B69     		ldr	r3, [r7, #20]
 195 008a 032B     		cmp	r3, #3
 196 008c E4DD     		ble	.L17
  62:app_UART.c    ****             }
  63:app_UART.c    ****             break;
 197              		.loc 1 63 0 is_stmt 1
 198 008e 1EE0     		b	.L1
 199              	.L3:
  64:app_UART.c    ****         case '0':
  65:app_UART.c    ****             switchLED(0);
 200              		.loc 1 65 0
 201 0090 0020     		mov	r0, #0
 202 0092 FFF7FEFF 		bl	switchLED
  66:app_UART.c    ****             readSensorBitVal();
 203              		.loc 1 66 0
 204 0096 FFF7FEFF 		bl	readSensorBitVal
  67:app_UART.c    ****             break;
 205              		.loc 1 67 0
 206 009a 18E0     		b	.L1
 207              	.L5:
  68:app_UART.c    ****         case '1':
  69:app_UART.c    ****             switchLED(1);
 208              		.loc 1 69 0
 209 009c 0120     		mov	r0, #1
 210 009e FFF7FEFF 		bl	switchLED
  70:app_UART.c    ****             readSensorBitVal();
 211              		.loc 1 70 0
ARM GAS  C:\Users\ANDREW~1\AppData\Local\Temp\cc7eSGyA.s 			page 6


 212 00a2 FFF7FEFF 		bl	readSensorBitVal
  71:app_UART.c    ****             break;
 213              		.loc 1 71 0
 214 00a6 12E0     		b	.L1
 215              	.L6:
  72:app_UART.c    ****         case '2':
  73:app_UART.c    ****             switchLED(2);
 216              		.loc 1 73 0
 217 00a8 0220     		mov	r0, #2
 218 00aa FFF7FEFF 		bl	switchLED
  74:app_UART.c    ****             readSensorBitVal();
 219              		.loc 1 74 0
 220 00ae FFF7FEFF 		bl	readSensorBitVal
  75:app_UART.c    ****             break;
 221              		.loc 1 75 0
 222 00b2 0CE0     		b	.L1
 223              	.L7:
  76:app_UART.c    ****         case '3':
  77:app_UART.c    ****             switchLED(3);
 224              		.loc 1 77 0
 225 00b4 0320     		mov	r0, #3
 226 00b6 FFF7FEFF 		bl	switchLED
  78:app_UART.c    ****             readSensorBitVal();
 227              		.loc 1 78 0
 228 00ba FFF7FEFF 		bl	readSensorBitVal
  79:app_UART.c    ****             break;
 229              		.loc 1 79 0
 230 00be 06E0     		b	.L1
 231              	.L8:
  80:app_UART.c    ****         case '4':
  81:app_UART.c    ****             switchLED(4);
 232              		.loc 1 81 0
 233 00c0 0420     		mov	r0, #4
 234 00c2 FFF7FEFF 		bl	switchLED
  82:app_UART.c    ****             readSensorBitVal();
 235              		.loc 1 82 0
 236 00c6 FFF7FEFF 		bl	readSensorBitVal
  83:app_UART.c    ****             break;
 237              		.loc 1 83 0
 238 00ca 00E0     		b	.L1
 239              	.L18:
  84:app_UART.c    ****         default:
  85:app_UART.c    ****             break;
 240              		.loc 1 85 0
 241 00cc C046     		mov	r8, r8
 242              	.L1:
  86:app_UART.c    ****     }
  87:app_UART.c    ****     
  88:app_UART.c    **** }
 243              		.loc 1 88 0
 244 00ce BD46     		mov	sp, r7
 245 00d0 06B0     		add	sp, sp, #24
 246              		@ sp needed
 247 00d2 80BD     		pop	{r7, pc}
 248              	.L20:
 249              		.align	2
 250              	.L19:
ARM GAS  C:\Users\ANDREW~1\AppData\Local\Temp\cc7eSGyA.s 			page 7


 251 00d4 00000000 		.word	.L4
 252              		.cfi_endproc
 253              	.LFE37:
 254              		.size	HandleUartRxTraffic, .-HandleUartRxTraffic
 255              		.section	.text.readSensor,"ax",%progbits
 256              		.align	2
 257              		.global	readSensor
 258              		.code	16
 259              		.thumb_func
 260              		.type	readSensor, %function
 261              	readSensor:
 262              	.LFB38:
  89:app_UART.c    **** 
  90:app_UART.c    **** void readSensor(int index)
  91:app_UART.c    **** {
 263              		.loc 1 91 0
 264              		.cfi_startproc
 265 0000 80B5     		push	{r7, lr}
 266              		.cfi_def_cfa_offset 8
 267              		.cfi_offset 7, -8
 268              		.cfi_offset 14, -4
 269 0002 90B0     		sub	sp, sp, #64
 270              		.cfi_def_cfa_offset 72
 271 0004 00AF     		add	r7, sp, #0
 272              		.cfi_def_cfa_register 7
 273 0006 7860     		str	r0, [r7, #4]
  92:app_UART.c    ****     int k; //Variable for Loop Through Sensors
  93:app_UART.c    ****     int count = 0; //Place Holder for writeBuffer
 274              		.loc 1 93 0
 275 0008 0023     		mov	r3, #0
 276 000a BB63     		str	r3, [r7, #56]
  94:app_UART.c    ****     
  95:app_UART.c    ****     uint8 writeBuffer[40]={0x00, 0x00, 0x00, 0x00, 0x00, 0x00, 0x00, 0x00, 0x00, 
 277              		.loc 1 95 0
 278 000c 0823     		mov	r3, #8
 279 000e FB18     		add	r3, r7, r3
 280 0010 0022     		mov	r2, #0
 281 0012 1A60     		str	r2, [r3]
 282 0014 0022     		mov	r2, #0
 283 0016 5A60     		str	r2, [r3, #4]
 284 0018 0022     		mov	r2, #0
 285 001a 9A60     		str	r2, [r3, #8]
 286 001c 0022     		mov	r2, #0
 287 001e DA60     		str	r2, [r3, #12]
 288 0020 0022     		mov	r2, #0
 289 0022 1A61     		str	r2, [r3, #16]
 290 0024 0022     		mov	r2, #0
 291 0026 5A61     		str	r2, [r3, #20]
 292 0028 0022     		mov	r2, #0
 293 002a 9A61     		str	r2, [r3, #24]
 294 002c 0022     		mov	r2, #0
 295 002e DA61     		str	r2, [r3, #28]
 296 0030 0022     		mov	r2, #0
 297 0032 1A62     		str	r2, [r3, #32]
 298 0034 0022     		mov	r2, #0
 299 0036 5A62     		str	r2, [r3, #36]
 300 0038 0823     		mov	r3, #8
ARM GAS  C:\Users\ANDREW~1\AppData\Local\Temp\cc7eSGyA.s 			page 8


 301 003a FB18     		add	r3, r7, r3
 302 003c 2622     		mov	r2, #38
 303 003e 0D21     		mov	r1, #13
 304 0040 9954     		strb	r1, [r3, r2]
 305 0042 0823     		mov	r3, #8
 306 0044 FB18     		add	r3, r7, r3
 307 0046 2722     		mov	r2, #39
 308 0048 0A21     		mov	r1, #10
 309 004a 9954     		strb	r1, [r3, r2]
  96:app_UART.c    ****          0x00, 0x00, 0x00, 0x00, 0x00, 0x00, 0x00, 0x00, 0x00, 0x00, 0x00, 0x00, 
  97:app_UART.c    ****          0x00, 0x00, 0x00, 0x00, 0x00, 0x00, 0x00, 0x00, 0x00, 0x00, 0x00, 0x00, 
  98:app_UART.c    ****          0x00, 0x00, 0x00, 0x00, 0x00, 0x0D, 0x0A};
  99:app_UART.c    ****                 
 100:app_UART.c    ****     uint32 timestamp = millis();
 310              		.loc 1 100 0
 311 004c FFF7FEFF 		bl	millis
 312 0050 031C     		mov	r3, r0
 313 0052 7B63     		str	r3, [r7, #52]
 101:app_UART.c    ****     
 102:app_UART.c    ****     dec_to_str (&writeBuffer[count], timestamp, 10);
 314              		.loc 1 102 0
 315 0054 0823     		mov	r3, #8
 316 0056 FA18     		add	r2, r7, r3
 317 0058 BB6B     		ldr	r3, [r7, #56]
 318 005a D218     		add	r2, r2, r3
 319 005c 7B6B     		ldr	r3, [r7, #52]
 320 005e 101C     		mov	r0, r2
 321 0060 191C     		mov	r1, r3
 322 0062 0A22     		mov	r2, #10
 323 0064 FFF7FEFF 		bl	dec_to_str
 103:app_UART.c    ****     writeBuffer[count + 11] = ',';
 324              		.loc 1 103 0
 325 0068 BB6B     		ldr	r3, [r7, #56]
 326 006a 0B33     		add	r3, r3, #11
 327 006c 0822     		mov	r2, #8
 328 006e BA18     		add	r2, r7, r2
 329 0070 2C21     		mov	r1, #44
 330 0072 D154     		strb	r1, [r2, r3]
 104:app_UART.c    ****     count+=12;
 331              		.loc 1 104 0
 332 0074 BB6B     		ldr	r3, [r7, #56]
 333 0076 0C33     		add	r3, r3, #12
 334 0078 BB63     		str	r3, [r7, #56]
 105:app_UART.c    ****     
 106:app_UART.c    ****     
 107:app_UART.c    ****     for (k = 0; k < 4; k++) //Loop Through Sensors
 335              		.loc 1 107 0
 336 007a 0023     		mov	r3, #0
 337 007c FB63     		str	r3, [r7, #60]
 338 007e 50E0     		b	.L22
 339              	.L24:
 340              	.LBB3:
 108:app_UART.c    ****     {
 109:app_UART.c    ****         uint16 VAL1 = 0;
 341              		.loc 1 109 0
 342 0080 3223     		mov	r3, #50
 343 0082 FB18     		add	r3, r7, r3
ARM GAS  C:\Users\ANDREW~1\AppData\Local\Temp\cc7eSGyA.s 			page 9


 344 0084 0022     		mov	r2, #0
 345 0086 1A80     		strh	r2, [r3]
 346              	.L23:
 110:app_UART.c    ****         do
 111:app_UART.c    ****         {
 112:app_UART.c    ****             VAL1 = 0;
 347              		.loc 1 112 0 discriminator 1
 348 0088 3223     		mov	r3, #50
 349 008a FB18     		add	r3, r7, r3
 350 008c 0022     		mov	r2, #0
 351 008e 1A80     		strh	r2, [r3]
 113:app_UART.c    ****             ADC_IsEndConversion(ADC_WAIT_FOR_RESULT);
 352              		.loc 1 113 0 discriminator 1
 353 0090 0220     		mov	r0, #2
 354 0092 FFF7FEFF 		bl	ADC_IsEndConversion
 114:app_UART.c    ****             VAL1 = ADC_GetResult16(k) - ADC_offset[k];        
 355              		.loc 1 114 0 discriminator 1
 356 0096 FB6B     		ldr	r3, [r7, #60]
 357 0098 181C     		mov	r0, r3
 358 009a FFF7FEFF 		bl	ADC_GetResult16
 359 009e 031C     		mov	r3, r0
 360 00a0 99B2     		uxth	r1, r3
 361 00a2 2A4B     		ldr	r3, .L25
 362 00a4 FA6B     		ldr	r2, [r7, #60]
 363 00a6 5200     		lsl	r2, r2, #1
 364 00a8 D35A     		ldrh	r3, [r2, r3]
 365 00aa 9BB2     		uxth	r3, r3
 366 00ac 9AB2     		uxth	r2, r3
 367 00ae 3223     		mov	r3, #50
 368 00b0 FB18     		add	r3, r7, r3
 369 00b2 8A1A     		sub	r2, r1, r2
 370 00b4 1A80     		strh	r2, [r3]
 115:app_UART.c    ****         }while (VAL1 > 64000);
 371              		.loc 1 115 0 discriminator 1
 372 00b6 3223     		mov	r3, #50
 373 00b8 FB18     		add	r3, r7, r3
 374 00ba 1A88     		ldrh	r2, [r3]
 375 00bc FA23     		mov	r3, #250
 376 00be 1B02     		lsl	r3, r3, #8
 377 00c0 9A42     		cmp	r2, r3
 378 00c2 E1D8     		bhi	.L23
 116:app_UART.c    ****         
 117:app_UART.c    ****         uint16 AV1 = ADC_CountsTo_mVolts(k, VAL1+ADC_offset[k]);
 379              		.loc 1 117 0 discriminator 2
 380 00c4 F96B     		ldr	r1, [r7, #60]
 381 00c6 214B     		ldr	r3, .L25
 382 00c8 FA6B     		ldr	r2, [r7, #60]
 383 00ca 5200     		lsl	r2, r2, #1
 384 00cc D35A     		ldrh	r3, [r2, r3]
 385 00ce 9BB2     		uxth	r3, r3
 386 00d0 9AB2     		uxth	r2, r3
 387 00d2 3223     		mov	r3, #50
 388 00d4 FB18     		add	r3, r7, r3
 389 00d6 1B88     		ldrh	r3, [r3]
 390 00d8 D318     		add	r3, r2, r3
 391 00da 9BB2     		uxth	r3, r3
 392 00dc 9BB2     		uxth	r3, r3
ARM GAS  C:\Users\ANDREW~1\AppData\Local\Temp\cc7eSGyA.s 			page 10


 393 00de 1BB2     		sxth	r3, r3
 394 00e0 081C     		mov	r0, r1
 395 00e2 191C     		mov	r1, r3
 396 00e4 FFF7FEFF 		bl	ADC_CountsTo_mVolts
 397 00e8 031C     		mov	r3, r0
 398 00ea 1A1C     		mov	r2, r3
 399 00ec 3023     		mov	r3, #48
 400 00ee FB18     		add	r3, r7, r3
 401 00f0 1A80     		strh	r2, [r3]
 118:app_UART.c    ****         
 119:app_UART.c    ****         dec_to_str (&writeBuffer[count], AV1, 4);
 402              		.loc 1 119 0 discriminator 2
 403 00f2 0823     		mov	r3, #8
 404 00f4 FA18     		add	r2, r7, r3
 405 00f6 BB6B     		ldr	r3, [r7, #56]
 406 00f8 D218     		add	r2, r2, r3
 407 00fa 3023     		mov	r3, #48
 408 00fc FB18     		add	r3, r7, r3
 409 00fe 1B88     		ldrh	r3, [r3]
 410 0100 101C     		mov	r0, r2
 411 0102 191C     		mov	r1, r3
 412 0104 0422     		mov	r2, #4
 413 0106 FFF7FEFF 		bl	dec_to_str
 120:app_UART.c    ****         writeBuffer[count + 5] = ',';
 414              		.loc 1 120 0 discriminator 2
 415 010a BB6B     		ldr	r3, [r7, #56]
 416 010c 0533     		add	r3, r3, #5
 417 010e 0822     		mov	r2, #8
 418 0110 BA18     		add	r2, r7, r2
 419 0112 2C21     		mov	r1, #44
 420 0114 D154     		strb	r1, [r2, r3]
 121:app_UART.c    ****         count+=6;
 421              		.loc 1 121 0 discriminator 2
 422 0116 BB6B     		ldr	r3, [r7, #56]
 423 0118 0633     		add	r3, r3, #6
 424 011a BB63     		str	r3, [r7, #56]
 425              	.LBE3:
 107:app_UART.c    ****     {
 426              		.loc 1 107 0 discriminator 2
 427 011c FB6B     		ldr	r3, [r7, #60]
 428 011e 0133     		add	r3, r3, #1
 429 0120 FB63     		str	r3, [r7, #60]
 430              	.L22:
 107:app_UART.c    ****     {
 431              		.loc 1 107 0 is_stmt 0 discriminator 1
 432 0122 FB6B     		ldr	r3, [r7, #60]
 433 0124 032B     		cmp	r3, #3
 434 0126 ABDD     		ble	.L24
 122:app_UART.c    ****     }
 123:app_UART.c    ****     
 124:app_UART.c    ****     dec_to_str (&writeBuffer[count], index, 0);
 435              		.loc 1 124 0 is_stmt 1
 436 0128 0823     		mov	r3, #8
 437 012a FA18     		add	r2, r7, r3
 438 012c BB6B     		ldr	r3, [r7, #56]
 439 012e D218     		add	r2, r2, r3
 440 0130 7B68     		ldr	r3, [r7, #4]
ARM GAS  C:\Users\ANDREW~1\AppData\Local\Temp\cc7eSGyA.s 			page 11


 441 0132 101C     		mov	r0, r2
 442 0134 191C     		mov	r1, r3
 443 0136 0022     		mov	r2, #0
 444 0138 FFF7FEFF 		bl	dec_to_str
 125:app_UART.c    ****     sendCommand(writeBuffer); 
 445              		.loc 1 125 0
 446 013c 0823     		mov	r3, #8
 447 013e FB18     		add	r3, r7, r3
 448 0140 181C     		mov	r0, r3
 449 0142 FFF7FEFF 		bl	sendCommand
 126:app_UART.c    **** }
 450              		.loc 1 126 0
 451 0146 BD46     		mov	sp, r7
 452 0148 10B0     		add	sp, sp, #64
 453              		@ sp needed
 454 014a 80BD     		pop	{r7, pc}
 455              	.L26:
 456              		.align	2
 457              	.L25:
 458 014c 00000000 		.word	ADC_offset
 459              		.cfi_endproc
 460              	.LFE38:
 461              		.size	readSensor, .-readSensor
 462              		.section	.text.readSensorBitVal,"ax",%progbits
 463              		.align	2
 464              		.global	readSensorBitVal
 465              		.code	16
 466              		.thumb_func
 467              		.type	readSensorBitVal, %function
 468              	readSensorBitVal:
 469              	.LFB39:
 127:app_UART.c    **** 
 128:app_UART.c    **** 
 129:app_UART.c    **** void readSensorBitVal()
 130:app_UART.c    **** {
 470              		.loc 1 130 0
 471              		.cfi_startproc
 472 0000 80B5     		push	{r7, lr}
 473              		.cfi_def_cfa_offset 8
 474              		.cfi_offset 7, -8
 475              		.cfi_offset 14, -4
 476 0002 8EB0     		sub	sp, sp, #56
 477              		.cfi_def_cfa_offset 64
 478 0004 00AF     		add	r7, sp, #0
 479              		.cfi_def_cfa_register 7
 131:app_UART.c    ****     int k; //Variable for Loop Through Sensors
 132:app_UART.c    ****     int count = 0; //Place Holder for writeBuffer
 480              		.loc 1 132 0
 481 0006 0023     		mov	r3, #0
 482 0008 3B63     		str	r3, [r7, #48]
 133:app_UART.c    ****     
 134:app_UART.c    ****     uint8 writeBuffer[40]={0x00, 0x00, 0x00, 0x00, 0x00, 0x00, 0x00, 0x00, 0x00, 
 483              		.loc 1 134 0
 484 000a 3B1D     		add	r3, r7, #4
 485 000c 0022     		mov	r2, #0
 486 000e 1A60     		str	r2, [r3]
 487 0010 0022     		mov	r2, #0
ARM GAS  C:\Users\ANDREW~1\AppData\Local\Temp\cc7eSGyA.s 			page 12


 488 0012 5A60     		str	r2, [r3, #4]
 489 0014 0022     		mov	r2, #0
 490 0016 9A60     		str	r2, [r3, #8]
 491 0018 0022     		mov	r2, #0
 492 001a DA60     		str	r2, [r3, #12]
 493 001c 0022     		mov	r2, #0
 494 001e 1A61     		str	r2, [r3, #16]
 495 0020 0022     		mov	r2, #0
 496 0022 5A61     		str	r2, [r3, #20]
 497 0024 0022     		mov	r2, #0
 498 0026 9A61     		str	r2, [r3, #24]
 499 0028 0022     		mov	r2, #0
 500 002a DA61     		str	r2, [r3, #28]
 501 002c 0022     		mov	r2, #0
 502 002e 1A62     		str	r2, [r3, #32]
 503 0030 0022     		mov	r2, #0
 504 0032 5A62     		str	r2, [r3, #36]
 505 0034 3B1D     		add	r3, r7, #4
 506 0036 2622     		mov	r2, #38
 507 0038 0D21     		mov	r1, #13
 508 003a 9954     		strb	r1, [r3, r2]
 509 003c 3B1D     		add	r3, r7, #4
 510 003e 2722     		mov	r2, #39
 511 0040 0A21     		mov	r1, #10
 512 0042 9954     		strb	r1, [r3, r2]
 135:app_UART.c    ****          0x00, 0x00, 0x00, 0x00, 0x00, 0x00, 0x00, 0x00, 0x00, 0x00, 0x00, 0x00, 
 136:app_UART.c    ****          0x00, 0x00, 0x00, 0x00, 0x00, 0x00, 0x00, 0x00, 0x00, 0x00, 0x00, 0x00, 
 137:app_UART.c    ****          0x00, 0x00, 0x00, 0x00, 0x00, 0x0D, 0x0A}; 
 138:app_UART.c    ****         
 139:app_UART.c    **** 
 140:app_UART.c    ****     for (k = 0; k < 4; k++) //Loop Through Sensors
 513              		.loc 1 140 0
 514 0044 0023     		mov	r3, #0
 515 0046 7B63     		str	r3, [r7, #52]
 516 0048 33E0     		b	.L28
 517              	.L30:
 518              	.LBB4:
 141:app_UART.c    ****     {
 142:app_UART.c    ****         uint16 VAL1 = 0;
 519              		.loc 1 142 0
 520 004a 2E23     		mov	r3, #46
 521 004c FB18     		add	r3, r7, r3
 522 004e 0022     		mov	r2, #0
 523 0050 1A80     		strh	r2, [r3]
 524              	.L29:
 143:app_UART.c    ****         do
 144:app_UART.c    ****         {
 145:app_UART.c    ****             VAL1 = 0;
 525              		.loc 1 145 0 discriminator 1
 526 0052 2E23     		mov	r3, #46
 527 0054 FB18     		add	r3, r7, r3
 528 0056 0022     		mov	r2, #0
 529 0058 1A80     		strh	r2, [r3]
 146:app_UART.c    ****             ADC_IsEndConversion(ADC_WAIT_FOR_RESULT);
 530              		.loc 1 146 0 discriminator 1
 531 005a 0220     		mov	r0, #2
 532 005c FFF7FEFF 		bl	ADC_IsEndConversion
ARM GAS  C:\Users\ANDREW~1\AppData\Local\Temp\cc7eSGyA.s 			page 13


 147:app_UART.c    ****             VAL1 = ADC_GetResult16(k) - ADC_offset[k];        
 533              		.loc 1 147 0 discriminator 1
 534 0060 7B6B     		ldr	r3, [r7, #52]
 535 0062 181C     		mov	r0, r3
 536 0064 FFF7FEFF 		bl	ADC_GetResult16
 537 0068 031C     		mov	r3, r0
 538 006a 99B2     		uxth	r1, r3
 539 006c 144B     		ldr	r3, .L31
 540 006e 7A6B     		ldr	r2, [r7, #52]
 541 0070 5200     		lsl	r2, r2, #1
 542 0072 D35A     		ldrh	r3, [r2, r3]
 543 0074 9BB2     		uxth	r3, r3
 544 0076 9AB2     		uxth	r2, r3
 545 0078 2E23     		mov	r3, #46
 546 007a FB18     		add	r3, r7, r3
 547 007c 8A1A     		sub	r2, r1, r2
 548 007e 1A80     		strh	r2, [r3]
 148:app_UART.c    ****         }while (VAL1 > 64000);
 549              		.loc 1 148 0 discriminator 1
 550 0080 2E23     		mov	r3, #46
 551 0082 FB18     		add	r3, r7, r3
 552 0084 1A88     		ldrh	r2, [r3]
 553 0086 FA23     		mov	r3, #250
 554 0088 1B02     		lsl	r3, r3, #8
 555 008a 9A42     		cmp	r2, r3
 556 008c E1D8     		bhi	.L29
 149:app_UART.c    ****         
 150:app_UART.c    ****         bit_to_str (&writeBuffer[count], VAL1, 30);
 557              		.loc 1 150 0 discriminator 2
 558 008e 3A1D     		add	r2, r7, #4
 559 0090 3B6B     		ldr	r3, [r7, #48]
 560 0092 D218     		add	r2, r2, r3
 561 0094 2E23     		mov	r3, #46
 562 0096 FB18     		add	r3, r7, r3
 563 0098 1B88     		ldrh	r3, [r3]
 564 009a 101C     		mov	r0, r2
 565 009c 191C     		mov	r1, r3
 566 009e 1E22     		mov	r2, #30
 567 00a0 FFF7FEFF 		bl	bit_to_str
 151:app_UART.c    **** 
 152:app_UART.c    ****         sendCommand(writeBuffer); 
 568              		.loc 1 152 0 discriminator 2
 569 00a4 3B1D     		add	r3, r7, #4
 570 00a6 181C     		mov	r0, r3
 571 00a8 FFF7FEFF 		bl	sendCommand
 572              	.LBE4:
 140:app_UART.c    ****     {
 573              		.loc 1 140 0 discriminator 2
 574 00ac 7B6B     		ldr	r3, [r7, #52]
 575 00ae 0133     		add	r3, r3, #1
 576 00b0 7B63     		str	r3, [r7, #52]
 577              	.L28:
 140:app_UART.c    ****     {
 578              		.loc 1 140 0 is_stmt 0 discriminator 1
 579 00b2 7B6B     		ldr	r3, [r7, #52]
 580 00b4 032B     		cmp	r3, #3
 581 00b6 C8DD     		ble	.L30
ARM GAS  C:\Users\ANDREW~1\AppData\Local\Temp\cc7eSGyA.s 			page 14


 153:app_UART.c    ****     }
 154:app_UART.c    **** }
 582              		.loc 1 154 0 is_stmt 1
 583 00b8 BD46     		mov	sp, r7
 584 00ba 0EB0     		add	sp, sp, #56
 585              		@ sp needed
 586 00bc 80BD     		pop	{r7, pc}
 587              	.L32:
 588 00be C046     		.align	2
 589              	.L31:
 590 00c0 00000000 		.word	ADC_offset
 591              		.cfi_endproc
 592              	.LFE39:
 593              		.size	readSensorBitVal, .-readSensorBitVal
 594              		.section	.text.switchLED,"ax",%progbits
 595              		.align	2
 596              		.global	switchLED
 597              		.code	16
 598              		.thumb_func
 599              		.type	switchLED, %function
 600              	switchLED:
 601              	.LFB40:
 155:app_UART.c    **** 
 156:app_UART.c    **** 
 157:app_UART.c    **** void switchLED(int index)
 158:app_UART.c    **** {
 602              		.loc 1 158 0
 603              		.cfi_startproc
 604 0000 80B5     		push	{r7, lr}
 605              		.cfi_def_cfa_offset 8
 606              		.cfi_offset 7, -8
 607              		.cfi_offset 14, -4
 608 0002 82B0     		sub	sp, sp, #8
 609              		.cfi_def_cfa_offset 16
 610 0004 00AF     		add	r7, sp, #0
 611              		.cfi_def_cfa_register 7
 612 0006 7860     		str	r0, [r7, #4]
 159:app_UART.c    ****     switch (index)
 613              		.loc 1 159 0
 614 0008 7B68     		ldr	r3, [r7, #4]
 615 000a 012B     		cmp	r3, #1
 616 000c 15D0     		beq	.L35
 617 000e 02DC     		bgt	.L36
 618 0010 002B     		cmp	r3, #0
 619 0012 05D0     		beq	.L37
 620 0014 38E0     		b	.L34
 621              	.L36:
 622 0016 022B     		cmp	r3, #2
 623 0018 1CD0     		beq	.L38
 624 001a 032B     		cmp	r3, #3
 625 001c 27D0     		beq	.L39
 626 001e 33E0     		b	.L34
 627              	.L37:
 160:app_UART.c    ****     {
 161:app_UART.c    ****         case 0: 
 162:app_UART.c    ****             LED_1_Write(0);
 628              		.loc 1 162 0
ARM GAS  C:\Users\ANDREW~1\AppData\Local\Temp\cc7eSGyA.s 			page 15


 629 0020 0020     		mov	r0, #0
 630 0022 FFF7FEFF 		bl	LED_1_Write
 163:app_UART.c    ****             LED_2_Write(0);
 631              		.loc 1 163 0
 632 0026 0020     		mov	r0, #0
 633 0028 FFF7FEFF 		bl	LED_2_Write
 164:app_UART.c    ****             LED_3_Write(0);
 634              		.loc 1 164 0
 635 002c 0020     		mov	r0, #0
 636 002e FFF7FEFF 		bl	LED_3_Write
 165:app_UART.c    ****             LED_4_Write(0);
 637              		.loc 1 165 0
 638 0032 0020     		mov	r0, #0
 639 0034 FFF7FEFF 		bl	LED_4_Write
 166:app_UART.c    ****             break;
 640              		.loc 1 166 0
 641 0038 33E0     		b	.L33
 642              	.L35:
 167:app_UART.c    ****         case 1: 
 168:app_UART.c    ****             LED_1_Write(1);
 643              		.loc 1 168 0
 644 003a 0120     		mov	r0, #1
 645 003c FFF7FEFF 		bl	LED_1_Write
 169:app_UART.c    ****             LED_2_Write(0);
 646              		.loc 1 169 0
 647 0040 0020     		mov	r0, #0
 648 0042 FFF7FEFF 		bl	LED_2_Write
 170:app_UART.c    ****             LED_3_Write(0);
 649              		.loc 1 170 0
 650 0046 0020     		mov	r0, #0
 651 0048 FFF7FEFF 		bl	LED_3_Write
 171:app_UART.c    ****             LED_4_Write(0);
 652              		.loc 1 171 0
 653 004c 0020     		mov	r0, #0
 654 004e FFF7FEFF 		bl	LED_4_Write
 172:app_UART.c    ****             break;
 655              		.loc 1 172 0
 656 0052 26E0     		b	.L33
 657              	.L38:
 173:app_UART.c    ****         case 2: 
 174:app_UART.c    ****             LED_1_Write(0);
 658              		.loc 1 174 0
 659 0054 0020     		mov	r0, #0
 660 0056 FFF7FEFF 		bl	LED_1_Write
 175:app_UART.c    ****             LED_2_Write(1);
 661              		.loc 1 175 0
 662 005a 0120     		mov	r0, #1
 663 005c FFF7FEFF 		bl	LED_2_Write
 176:app_UART.c    ****             LED_3_Write(0);
 664              		.loc 1 176 0
 665 0060 0020     		mov	r0, #0
 666 0062 FFF7FEFF 		bl	LED_3_Write
 177:app_UART.c    ****             LED_4_Write(0);
 667              		.loc 1 177 0
 668 0066 0020     		mov	r0, #0
 669 0068 FFF7FEFF 		bl	LED_4_Write
 178:app_UART.c    ****             break;
ARM GAS  C:\Users\ANDREW~1\AppData\Local\Temp\cc7eSGyA.s 			page 16


 670              		.loc 1 178 0
 671 006c 19E0     		b	.L33
 672              	.L39:
 179:app_UART.c    ****         case 3: 
 180:app_UART.c    ****             LED_1_Write(0);
 673              		.loc 1 180 0
 674 006e 0020     		mov	r0, #0
 675 0070 FFF7FEFF 		bl	LED_1_Write
 181:app_UART.c    ****             LED_2_Write(0);
 676              		.loc 1 181 0
 677 0074 0020     		mov	r0, #0
 678 0076 FFF7FEFF 		bl	LED_2_Write
 182:app_UART.c    ****             LED_3_Write(1);
 679              		.loc 1 182 0
 680 007a 0120     		mov	r0, #1
 681 007c FFF7FEFF 		bl	LED_3_Write
 183:app_UART.c    ****             LED_4_Write(0);
 682              		.loc 1 183 0
 683 0080 0020     		mov	r0, #0
 684 0082 FFF7FEFF 		bl	LED_4_Write
 184:app_UART.c    ****             break;
 685              		.loc 1 184 0
 686 0086 0CE0     		b	.L33
 687              	.L34:
 185:app_UART.c    ****         default:
 186:app_UART.c    ****             LED_1_Write(0);
 688              		.loc 1 186 0
 689 0088 0020     		mov	r0, #0
 690 008a FFF7FEFF 		bl	LED_1_Write
 187:app_UART.c    ****             LED_2_Write(0);
 691              		.loc 1 187 0
 692 008e 0020     		mov	r0, #0
 693 0090 FFF7FEFF 		bl	LED_2_Write
 188:app_UART.c    ****             LED_3_Write(0);
 694              		.loc 1 188 0
 695 0094 0020     		mov	r0, #0
 696 0096 FFF7FEFF 		bl	LED_3_Write
 189:app_UART.c    ****             LED_4_Write(1);
 697              		.loc 1 189 0
 698 009a 0120     		mov	r0, #1
 699 009c FFF7FEFF 		bl	LED_4_Write
 190:app_UART.c    ****             break;
 700              		.loc 1 190 0
 701 00a0 C046     		mov	r8, r8
 702              	.L33:
 191:app_UART.c    ****     }
 192:app_UART.c    **** }
 703              		.loc 1 192 0
 704 00a2 BD46     		mov	sp, r7
 705 00a4 02B0     		add	sp, sp, #8
 706              		@ sp needed
 707 00a6 80BD     		pop	{r7, pc}
 708              		.cfi_endproc
 709              	.LFE40:
 710              		.size	switchLED, .-switchLED
 711              		.section	.text.sendCommand,"ax",%progbits
 712              		.align	2
ARM GAS  C:\Users\ANDREW~1\AppData\Local\Temp\cc7eSGyA.s 			page 17


 713              		.global	sendCommand
 714              		.code	16
 715              		.thumb_func
 716              		.type	sendCommand, %function
 717              	sendCommand:
 718              	.LFB41:
 193:app_UART.c    **** 
 194:app_UART.c    **** void sendCommand(uint8 a[])
 195:app_UART.c    **** {    
 719              		.loc 1 195 0
 720              		.cfi_startproc
 721 0000 90B5     		push	{r4, r7, lr}
 722              		.cfi_def_cfa_offset 12
 723              		.cfi_offset 4, -12
 724              		.cfi_offset 7, -8
 725              		.cfi_offset 14, -4
 726 0002 89B0     		sub	sp, sp, #36
 727              		.cfi_def_cfa_offset 48
 728 0004 00AF     		add	r7, sp, #0
 729              		.cfi_def_cfa_register 7
 730 0006 7860     		str	r0, [r7, #4]
 196:app_UART.c    ****     int j;
 197:app_UART.c    ****     for (j = 0; j < 40; j+=20)
 731              		.loc 1 197 0
 732 0008 0023     		mov	r3, #0
 733 000a FB61     		str	r3, [r7, #28]
 734 000c 36E0     		b	.L42
 735              	.L45:
 736              	.LBB5:
 198:app_UART.c    ****     {
 199:app_UART.c    ****         CYBLE_API_RESULT_T              bleApiResult = 0xCDF7;
 737              		.loc 1 199 0
 738 000e 1A23     		mov	r3, #26
 739 0010 FB18     		add	r3, r7, r3
 740 0012 1D4A     		ldr	r2, .L46
 741 0014 1A80     		strh	r2, [r3]
 200:app_UART.c    ****         CYBLE_GATTC_WRITE_CMD_REQ_T     uartTxDataWriteCmd;
 201:app_UART.c    ****     
 202:app_UART.c    ****         uartTxDataWriteCmd.attrHandle = rxCharHandle;
 742              		.loc 1 202 0
 743 0016 1D4B     		ldr	r3, .L46+4
 744 0018 1A88     		ldrh	r2, [r3]
 745 001a 0C23     		mov	r3, #12
 746 001c FB18     		add	r3, r7, r3
 747 001e 1A81     		strh	r2, [r3, #8]
 203:app_UART.c    ****         uartTxDataWriteCmd.value.len  = 20; //uartRxDataNotification->handleValPair.value.len;
 748              		.loc 1 203 0
 749 0020 0C23     		mov	r3, #12
 750 0022 FB18     		add	r3, r7, r3
 751 0024 1422     		mov	r2, #20
 752 0026 9A80     		strh	r2, [r3, #4]
 204:app_UART.c    ****         
 205:app_UART.c    ****         uartTxDataWriteCmd.value.val  = &a[j];  
 753              		.loc 1 205 0
 754 0028 FB69     		ldr	r3, [r7, #28]
 755 002a 7A68     		ldr	r2, [r7, #4]
 756 002c D218     		add	r2, r2, r3
ARM GAS  C:\Users\ANDREW~1\AppData\Local\Temp\cc7eSGyA.s 			page 18


 757 002e 0C23     		mov	r3, #12
 758 0030 FB18     		add	r3, r7, r3
 759 0032 1A60     		str	r2, [r3]
 760              	.L44:
 206:app_UART.c    ****         
 207:app_UART.c    ****         do
 208:app_UART.c    ****         {
 209:app_UART.c    ****             bleApiResult = CyBle_GattcWriteWithoutResponse(cyBle_connHandle, &uartTxDataWriteCmd);
 761              		.loc 1 209 0 discriminator 2
 762 0034 1A23     		mov	r3, #26
 763 0036 FC18     		add	r4, r7, r3
 764 0038 154B     		ldr	r3, .L46+8
 765 003a 0C22     		mov	r2, #12
 766 003c B918     		add	r1, r7, r2
 767 003e 1A78     		ldrb	r2, [r3]
 768 0040 5B78     		ldrb	r3, [r3, #1]
 769 0042 1B02     		lsl	r3, r3, #8
 770 0044 1A43     		orr	r2, r3
 771 0046 0023     		mov	r3, #0
 772 0048 1204     		lsl	r2, r2, #16
 773 004a 120C     		lsr	r2, r2, #16
 774 004c 1B0C     		lsr	r3, r3, #16
 775 004e 1B04     		lsl	r3, r3, #16
 776 0050 1343     		orr	r3, r2
 777 0052 181C     		mov	r0, r3
 778 0054 FFF7FEFF 		bl	CyBle_GattcWriteWithoutResponse
 779 0058 031C     		mov	r3, r0
 780 005a 2380     		strh	r3, [r4]
 210:app_UART.c    ****             CyBle_ProcessEvents();
 781              		.loc 1 210 0 discriminator 2
 782 005c FFF7FEFF 		bl	CyBle_ProcessEvents
 211:app_UART.c    ****         }
 212:app_UART.c    ****         while((CYBLE_ERROR_OK != bleApiResult) && (CYBLE_STATE_CONNECTED == cyBle_state));
 783              		.loc 1 212 0 discriminator 2
 784 0060 1A23     		mov	r3, #26
 785 0062 FB18     		add	r3, r7, r3
 786 0064 1B88     		ldrh	r3, [r3]
 787 0066 002B     		cmp	r3, #0
 788 0068 03D0     		beq	.L43
 789              		.loc 1 212 0 is_stmt 0 discriminator 1
 790 006a 0A4B     		ldr	r3, .L46+12
 791 006c 1B78     		ldrb	r3, [r3]
 792 006e 022B     		cmp	r3, #2
 793 0070 E0D0     		beq	.L44
 794              	.L43:
 213:app_UART.c    ****         
 214:app_UART.c    ****         CyBle_ProcessEvents();
 795              		.loc 1 214 0 is_stmt 1 discriminator 2
 796 0072 FFF7FEFF 		bl	CyBle_ProcessEvents
 797              	.LBE5:
 197:app_UART.c    ****     {
 798              		.loc 1 197 0 discriminator 2
 799 0076 FB69     		ldr	r3, [r7, #28]
 800 0078 1433     		add	r3, r3, #20
 801 007a FB61     		str	r3, [r7, #28]
 802              	.L42:
 197:app_UART.c    ****     {
ARM GAS  C:\Users\ANDREW~1\AppData\Local\Temp\cc7eSGyA.s 			page 19


 803              		.loc 1 197 0 is_stmt 0 discriminator 1
 804 007c FB69     		ldr	r3, [r7, #28]
 805 007e 272B     		cmp	r3, #39
 806 0080 C5DD     		ble	.L45
 215:app_UART.c    ****     }
 216:app_UART.c    **** }
 807              		.loc 1 216 0 is_stmt 1
 808 0082 BD46     		mov	sp, r7
 809 0084 09B0     		add	sp, sp, #36
 810              		@ sp needed
 811 0086 90BD     		pop	{r4, r7, pc}
 812              	.L47:
 813              		.align	2
 814              	.L46:
 815 0088 F7CDFFFF 		.word	-12809
 816 008c 00000000 		.word	rxCharHandle
 817 0090 00000000 		.word	cyBle_connHandle
 818 0094 00000000 		.word	cyBle_state
 819              		.cfi_endproc
 820              	.LFE41:
 821              		.size	sendCommand, .-sendCommand
 822              		.global	__aeabi_uidivmod
 823              		.global	__aeabi_uidiv
 824              		.section	.text.dec_to_str,"ax",%progbits
 825              		.align	2
 826              		.global	dec_to_str
 827              		.code	16
 828              		.thumb_func
 829              		.type	dec_to_str, %function
 830              	dec_to_str:
 831              	.LFB42:
 217:app_UART.c    **** 
 218:app_UART.c    **** 
 219:app_UART.c    **** void dec_to_str (uint8* str, uint32_t val, size_t digits)
 220:app_UART.c    **** {
 832              		.loc 1 220 0
 833              		.cfi_startproc
 834 0000 90B5     		push	{r4, r7, lr}
 835              		.cfi_def_cfa_offset 12
 836              		.cfi_offset 4, -12
 837              		.cfi_offset 7, -8
 838              		.cfi_offset 14, -4
 839 0002 87B0     		sub	sp, sp, #28
 840              		.cfi_def_cfa_offset 40
 841 0004 00AF     		add	r7, sp, #0
 842              		.cfi_def_cfa_register 7
 843 0006 F860     		str	r0, [r7, #12]
 844 0008 B960     		str	r1, [r7, #8]
 845 000a 7A60     		str	r2, [r7, #4]
 221:app_UART.c    ****   size_t i=1u;
 846              		.loc 1 221 0
 847 000c 0123     		mov	r3, #1
 848 000e 7B61     		str	r3, [r7, #20]
 222:app_UART.c    ****   digits++;
 849              		.loc 1 222 0
 850 0010 7B68     		ldr	r3, [r7, #4]
 851 0012 0133     		add	r3, r3, #1
ARM GAS  C:\Users\ANDREW~1\AppData\Local\Temp\cc7eSGyA.s 			page 20


 852 0014 7B60     		str	r3, [r7, #4]
 223:app_UART.c    ****     
 224:app_UART.c    ****   for(; i<=digits; i++)
 853              		.loc 1 224 0
 854 0016 38E0     		b	.L49
 855              	.L53:
 225:app_UART.c    ****   {
 226:app_UART.c    ****     
 227:app_UART.c    ****     if ((digits == 5) && (i == (digits - 1)))
 856              		.loc 1 227 0
 857 0018 7B68     		ldr	r3, [r7, #4]
 858 001a 052B     		cmp	r3, #5
 859 001c 0CD1     		bne	.L50
 860              		.loc 1 227 0 is_stmt 0 discriminator 1
 861 001e 7B68     		ldr	r3, [r7, #4]
 862 0020 5A1E     		sub	r2, r3, #1
 863 0022 7B69     		ldr	r3, [r7, #20]
 864 0024 9A42     		cmp	r2, r3
 865 0026 07D1     		bne	.L50
 228:app_UART.c    ****     {
 229:app_UART.c    ****         str[digits-i] = '.';
 866              		.loc 1 229 0 is_stmt 1
 867 0028 7A68     		ldr	r2, [r7, #4]
 868 002a 7B69     		ldr	r3, [r7, #20]
 869 002c D31A     		sub	r3, r2, r3
 870 002e FA68     		ldr	r2, [r7, #12]
 871 0030 D318     		add	r3, r2, r3
 872 0032 2E22     		mov	r2, #46
 873 0034 1A70     		strb	r2, [r3]
 874 0036 25E0     		b	.L51
 875              	.L50:
 230:app_UART.c    ****     }
 231:app_UART.c    ****     else if ((digits == 11) && (i == (digits - 7)))
 876              		.loc 1 231 0
 877 0038 7B68     		ldr	r3, [r7, #4]
 878 003a 0B2B     		cmp	r3, #11
 879 003c 0CD1     		bne	.L52
 880              		.loc 1 231 0 is_stmt 0 discriminator 1
 881 003e 7B68     		ldr	r3, [r7, #4]
 882 0040 DA1F     		sub	r2, r3, #7
 883 0042 7B69     		ldr	r3, [r7, #20]
 884 0044 9A42     		cmp	r2, r3
 885 0046 07D1     		bne	.L52
 232:app_UART.c    ****     {
 233:app_UART.c    ****         str[digits-i] = '.';
 886              		.loc 1 233 0 is_stmt 1
 887 0048 7A68     		ldr	r2, [r7, #4]
 888 004a 7B69     		ldr	r3, [r7, #20]
 889 004c D31A     		sub	r3, r2, r3
 890 004e FA68     		ldr	r2, [r7, #12]
 891 0050 D318     		add	r3, r2, r3
 892 0052 2E22     		mov	r2, #46
 893 0054 1A70     		strb	r2, [r3]
 894 0056 15E0     		b	.L51
 895              	.L52:
 234:app_UART.c    ****     }
 235:app_UART.c    ****     else
ARM GAS  C:\Users\ANDREW~1\AppData\Local\Temp\cc7eSGyA.s 			page 21


 236:app_UART.c    ****     {
 237:app_UART.c    ****         str[digits-i] = (char)((val % 10u) + '0');
 896              		.loc 1 237 0
 897 0058 7A68     		ldr	r2, [r7, #4]
 898 005a 7B69     		ldr	r3, [r7, #20]
 899 005c D31A     		sub	r3, r2, r3
 900 005e FA68     		ldr	r2, [r7, #12]
 901 0060 D418     		add	r4, r2, r3
 902 0062 BB68     		ldr	r3, [r7, #8]
 903 0064 181C     		mov	r0, r3
 904 0066 0A21     		mov	r1, #10
 905 0068 FFF7FEFF 		bl	__aeabi_uidivmod
 906 006c 0B1C     		mov	r3, r1
 907 006e DBB2     		uxtb	r3, r3
 908 0070 3033     		add	r3, r3, #48
 909 0072 DBB2     		uxtb	r3, r3
 910 0074 2370     		strb	r3, [r4]
 238:app_UART.c    ****         val/=10u;
 911              		.loc 1 238 0
 912 0076 BB68     		ldr	r3, [r7, #8]
 913 0078 181C     		mov	r0, r3
 914 007a 0A21     		mov	r1, #10
 915 007c FFF7FEFF 		bl	__aeabi_uidiv
 916 0080 031C     		mov	r3, r0
 917 0082 BB60     		str	r3, [r7, #8]
 918              	.L51:
 224:app_UART.c    ****   {
 919              		.loc 1 224 0
 920 0084 7B69     		ldr	r3, [r7, #20]
 921 0086 0133     		add	r3, r3, #1
 922 0088 7B61     		str	r3, [r7, #20]
 923              	.L49:
 224:app_UART.c    ****   {
 924              		.loc 1 224 0 is_stmt 0 discriminator 1
 925 008a 7A69     		ldr	r2, [r7, #20]
 926 008c 7B68     		ldr	r3, [r7, #4]
 927 008e 9A42     		cmp	r2, r3
 928 0090 C2D9     		bls	.L53
 239:app_UART.c    ****     }
 240:app_UART.c    ****   }
 241:app_UART.c    **** }
 929              		.loc 1 241 0 is_stmt 1
 930 0092 BD46     		mov	sp, r7
 931 0094 07B0     		add	sp, sp, #28
 932              		@ sp needed
 933 0096 90BD     		pop	{r4, r7, pc}
 934              		.cfi_endproc
 935              	.LFE42:
 936              		.size	dec_to_str, .-dec_to_str
 937              		.section	.text.bit_to_str,"ax",%progbits
 938              		.align	2
 939              		.global	bit_to_str
 940              		.code	16
 941              		.thumb_func
 942              		.type	bit_to_str, %function
 943              	bit_to_str:
 944              	.LFB43:
ARM GAS  C:\Users\ANDREW~1\AppData\Local\Temp\cc7eSGyA.s 			page 22


 242:app_UART.c    **** 
 243:app_UART.c    **** void bit_to_str (uint8* str, uint32_t val, size_t digits)
 244:app_UART.c    **** {
 945              		.loc 1 244 0
 946              		.cfi_startproc
 947 0000 90B5     		push	{r4, r7, lr}
 948              		.cfi_def_cfa_offset 12
 949              		.cfi_offset 4, -12
 950              		.cfi_offset 7, -8
 951              		.cfi_offset 14, -4
 952 0002 87B0     		sub	sp, sp, #28
 953              		.cfi_def_cfa_offset 40
 954 0004 00AF     		add	r7, sp, #0
 955              		.cfi_def_cfa_register 7
 956 0006 F860     		str	r0, [r7, #12]
 957 0008 B960     		str	r1, [r7, #8]
 958 000a 7A60     		str	r2, [r7, #4]
 245:app_UART.c    ****   size_t i=1u;
 959              		.loc 1 245 0
 960 000c 0123     		mov	r3, #1
 961 000e 7B61     		str	r3, [r7, #20]
 246:app_UART.c    ****   digits++;
 962              		.loc 1 246 0
 963 0010 7B68     		ldr	r3, [r7, #4]
 964 0012 0133     		add	r3, r3, #1
 965 0014 7B60     		str	r3, [r7, #4]
 247:app_UART.c    ****     
 248:app_UART.c    ****   for(; i<=digits; i++)
 966              		.loc 1 248 0
 967 0016 18E0     		b	.L55
 968              	.L56:
 249:app_UART.c    ****   {
 250:app_UART.c    ****     str[digits-i] = (char)((val % 10u) + '0');
 969              		.loc 1 250 0 discriminator 2
 970 0018 7A68     		ldr	r2, [r7, #4]
 971 001a 7B69     		ldr	r3, [r7, #20]
 972 001c D31A     		sub	r3, r2, r3
 973 001e FA68     		ldr	r2, [r7, #12]
 974 0020 D418     		add	r4, r2, r3
 975 0022 BB68     		ldr	r3, [r7, #8]
 976 0024 181C     		mov	r0, r3
 977 0026 0A21     		mov	r1, #10
 978 0028 FFF7FEFF 		bl	__aeabi_uidivmod
 979 002c 0B1C     		mov	r3, r1
 980 002e DBB2     		uxtb	r3, r3
 981 0030 3033     		add	r3, r3, #48
 982 0032 DBB2     		uxtb	r3, r3
 983 0034 2370     		strb	r3, [r4]
 251:app_UART.c    ****     val/=10u;
 984              		.loc 1 251 0 discriminator 2
 985 0036 BB68     		ldr	r3, [r7, #8]
 986 0038 181C     		mov	r0, r3
 987 003a 0A21     		mov	r1, #10
 988 003c FFF7FEFF 		bl	__aeabi_uidiv
 989 0040 031C     		mov	r3, r0
 990 0042 BB60     		str	r3, [r7, #8]
 248:app_UART.c    ****   {
ARM GAS  C:\Users\ANDREW~1\AppData\Local\Temp\cc7eSGyA.s 			page 23


 991              		.loc 1 248 0 discriminator 2
 992 0044 7B69     		ldr	r3, [r7, #20]
 993 0046 0133     		add	r3, r3, #1
 994 0048 7B61     		str	r3, [r7, #20]
 995              	.L55:
 248:app_UART.c    ****   {
 996              		.loc 1 248 0 is_stmt 0 discriminator 1
 997 004a 7A69     		ldr	r2, [r7, #20]
 998 004c 7B68     		ldr	r3, [r7, #4]
 999 004e 9A42     		cmp	r2, r3
 1000 0050 E2D9     		bls	.L56
 252:app_UART.c    ****   }
 253:app_UART.c    **** }
 1001              		.loc 1 253 0 is_stmt 1
 1002 0052 BD46     		mov	sp, r7
 1003 0054 07B0     		add	sp, sp, #28
 1004              		@ sp needed
 1005 0056 90BD     		pop	{r4, r7, pc}
 1006              		.cfi_endproc
 1007              	.LFE43:
 1008              		.size	bit_to_str, .-bit_to_str
 1009              		.section	.text.HandleUartTxTraffic,"ax",%progbits
 1010              		.align	2
 1011              		.global	HandleUartTxTraffic
 1012              		.code	16
 1013              		.thumb_func
 1014              		.type	HandleUartTxTraffic, %function
 1015              	HandleUartTxTraffic:
 1016              	.LFB44:
 254:app_UART.c    **** 
 255:app_UART.c    **** 
 256:app_UART.c    **** /*******************************************************************************
 257:app_UART.c    **** * Function Name: HandleUartTxTraffic
 258:app_UART.c    **** ********************************************************************************
 259:app_UART.c    **** *
 260:app_UART.c    **** * Summary:
 261:app_UART.c    **** *  This function takes data from UART RX buffer and pushes it to the server 
 262:app_UART.c    **** *  as Write Without Response command.
 263:app_UART.c    **** *
 264:app_UART.c    **** * Parameters:
 265:app_UART.c    **** *  None.
 266:app_UART.c    **** *
 267:app_UART.c    **** * Return:
 268:app_UART.c    **** *   None.
 269:app_UART.c    **** *
 270:app_UART.c    **** *******************************************************************************/
 271:app_UART.c    **** void HandleUartTxTraffic(void)
 272:app_UART.c    **** {
 1017              		.loc 1 272 0
 1018              		.cfi_startproc
 1019 0000 80B5     		push	{r7, lr}
 1020              		.cfi_def_cfa_offset 8
 1021              		.cfi_offset 7, -8
 1022              		.cfi_offset 14, -4
 1023 0002 00AF     		add	r7, sp, #0
 1024              		.cfi_def_cfa_register 7
 273:app_UART.c    ****     /*uint8   index;
ARM GAS  C:\Users\ANDREW~1\AppData\Local\Temp\cc7eSGyA.s 			page 24


 274:app_UART.c    ****     uint8   uartTxData[mtuSize - 3];
 275:app_UART.c    ****     uint16  uartTxDataLength;
 276:app_UART.c    ****     uint8   a[20]={0x31, 0x7A, 0x0D, 0x0a, 0x00, 0x00, 0x00, 0x00, 0x00, 0x00, 0x00, 0x00 ,0x00, 0x
 277:app_UART.c    ****     
 278:app_UART.c    ****     uartTxDataLength = UART_SpiUartGetRxBufferSize();
 279:app_UART.c    ****     
 280:app_UART.c    ****     static uint16 uartIdleCount = UART_IDLE_TIMEOUT;
 281:app_UART.c    ****     
 282:app_UART.c    ****     CYBLE_API_RESULT_T              bleApiResult;
 283:app_UART.c    ****     CYBLE_GATTC_WRITE_CMD_REQ_T     uartTxDataWriteCmd;
 284:app_UART.c    ****     
 285:app_UART.c    ****     
 286:app_UART.c    ****     
 287:app_UART.c    ****     #ifdef FLOW_CONTROL
 288:app_UART.c    ****         if(uartTxDataLength >= (UART_UART_RX_BUFFER_SIZE - (UART_UART_RX_BUFFER_SIZE/2)))
 289:app_UART.c    ****         {
 290:app_UART.c    ****             DisableUartRxInt();
 291:app_UART.c    ****         }
 292:app_UART.c    ****         else
 293:app_UART.c    ****         {
 294:app_UART.c    ****             EnableUartRxInt();
 295:app_UART.c    ****         }
 296:app_UART.c    ****     #endif
 297:app_UART.c    ****     
 298:app_UART.c    ****     if((uartTxDataLength != 0))
 299:app_UART.c    ****     {
 300:app_UART.c    ****         if(uartTxDataLength >= (mtuSize - 3))
 301:app_UART.c    ****         {
 302:app_UART.c    ****             uartIdleCount       = UART_IDLE_TIMEOUT;
 303:app_UART.c    ****             uartTxDataLength    = mtuSize - 3;
 304:app_UART.c    ****         }
 305:app_UART.c    ****         else
 306:app_UART.c    ****         {
 307:app_UART.c    ****             if(--uartIdleCount == 0)
 308:app_UART.c    ****             {
 309:app_UART.c    ****                 /*uartTxDataLength remains unchanged ;
 310:app_UART.c    ****             }
 311:app_UART.c    ****             else
 312:app_UART.c    ****             {
 313:app_UART.c    ****                 uartTxDataLength = 0;
 314:app_UART.c    ****             }
 315:app_UART.c    ****         }
 316:app_UART.c    ****         
 317:app_UART.c    ****         if(0 != uartTxDataLength)
 318:app_UART.c    ****         {
 319:app_UART.c    ****             uartIdleCount       = UART_IDLE_TIMEOUT;
 320:app_UART.c    ****             
 321:app_UART.c    ****             for(index = 0; index < uartTxDataLength; index++)
 322:app_UART.c    ****             {
 323:app_UART.c    ****                 uartTxData[index] = (uint8) UART_UartGetByte();
 324:app_UART.c    ****             }
 325:app_UART.c    ****             
 326:app_UART.c    ****             //uartTxDataWriteCmd.attrHandle = rxCharHandle;
 327:app_UART.c    ****             //uartTxDataWriteCmd.value.len  = uartTxDataLength;
 328:app_UART.c    ****             //uartTxDataWriteCmd.value.val  = uartTxData;           
 329:app_UART.c    ****   
 330:app_UART.c    ****             
ARM GAS  C:\Users\ANDREW~1\AppData\Local\Temp\cc7eSGyA.s 			page 25


 331:app_UART.c    ****             uartTxDataWriteCmd.attrHandle = rxCharHandle;
 332:app_UART.c    ****             uartTxDataWriteCmd.value.len  = 0x0004;
 333:app_UART.c    ****             uartTxDataWriteCmd.value.val  = a; 
 334:app_UART.c    ****             
 335:app_UART.c    ****             #ifdef FLOW_CONTROL
 336:app_UART.c    ****                 DisableUartRxInt();
 337:app_UART.c    ****             #endif
 338:app_UART.c    ****             
 339:app_UART.c    ****             do
 340:app_UART.c    ****             {
 341:app_UART.c    ****                 bleApiResult = CyBle_GattcWriteWithoutResponse(cyBle_connHandle, &uartTxDataWriteCm
 342:app_UART.c    ****                 CyBle_ProcessEvents();
 343:app_UART.c    ****             }
 344:app_UART.c    ****            while((CYBLE_ERROR_OK != bleApiResult) && (CYBLE_STATE_CONNECTED == cyBle_state));
 345:app_UART.c    ****             
 346:app_UART.c    ****         }
 347:app_UART.c    ****     }
 348:app_UART.c    **** */
 349:app_UART.c    **** }
 1025              		.loc 1 349 0
 1026 0004 BD46     		mov	sp, r7
 1027              		@ sp needed
 1028 0006 80BD     		pop	{r7, pc}
 1029              		.cfi_endproc
 1030              	.LFE44:
 1031              		.size	HandleUartTxTraffic, .-HandleUartTxTraffic
 1032              		.section	.text.DisableUartRxInt,"ax",%progbits
 1033              		.align	2
 1034              		.global	DisableUartRxInt
 1035              		.code	16
 1036              		.thumb_func
 1037              		.type	DisableUartRxInt, %function
 1038              	DisableUartRxInt:
 1039              	.LFB45:
 350:app_UART.c    **** 
 351:app_UART.c    **** /*****************************************************************************************
 352:app_UART.c    **** * Function Name: DisableUartRxInt
 353:app_UART.c    **** ******************************************************************************************
 354:app_UART.c    **** *
 355:app_UART.c    **** * Summary:
 356:app_UART.c    **** *  This function disables the UART RX interrupt.
 357:app_UART.c    **** *
 358:app_UART.c    **** * Parameters:
 359:app_UART.c    **** *   None.
 360:app_UART.c    **** *
 361:app_UART.c    **** * Return:
 362:app_UART.c    **** *   None.
 363:app_UART.c    **** *
 364:app_UART.c    **** *****************************************************************************************/
 365:app_UART.c    **** void DisableUartRxInt(void)
 366:app_UART.c    **** {
 1040              		.loc 1 366 0
 1041              		.cfi_startproc
 1042 0000 80B5     		push	{r7, lr}
 1043              		.cfi_def_cfa_offset 8
 1044              		.cfi_offset 7, -8
 1045              		.cfi_offset 14, -4
ARM GAS  C:\Users\ANDREW~1\AppData\Local\Temp\cc7eSGyA.s 			page 26


 1046 0002 00AF     		add	r7, sp, #0
 1047              		.cfi_def_cfa_register 7
 367:app_UART.c    ****     UART_INTR_RX_MASK_REG &= ~UART_RX_INTR_MASK;  
 1048              		.loc 1 367 0
 1049 0004 034B     		ldr	r3, .L59
 1050 0006 034A     		ldr	r2, .L59
 1051 0008 1268     		ldr	r2, [r2]
 1052 000a 0421     		mov	r1, #4
 1053 000c 8A43     		bic	r2, r1
 1054 000e 1A60     		str	r2, [r3]
 368:app_UART.c    **** }
 1055              		.loc 1 368 0
 1056 0010 BD46     		mov	sp, r7
 1057              		@ sp needed
 1058 0012 80BD     		pop	{r7, pc}
 1059              	.L60:
 1060              		.align	2
 1061              	.L59:
 1062 0014 C80F2440 		.word	1076105160
 1063              		.cfi_endproc
 1064              	.LFE45:
 1065              		.size	DisableUartRxInt, .-DisableUartRxInt
 1066              		.section	.text.EnableUartRxInt,"ax",%progbits
 1067              		.align	2
 1068              		.global	EnableUartRxInt
 1069              		.code	16
 1070              		.thumb_func
 1071              		.type	EnableUartRxInt, %function
 1072              	EnableUartRxInt:
 1073              	.LFB46:
 369:app_UART.c    **** 
 370:app_UART.c    **** /*****************************************************************************************
 371:app_UART.c    **** * Function Name: EnableUartRxInt
 372:app_UART.c    **** ******************************************************************************************
 373:app_UART.c    **** *
 374:app_UART.c    **** * Summary:
 375:app_UART.c    **** *  This function enables the UART RX interrupt.
 376:app_UART.c    **** *
 377:app_UART.c    **** * Parameters:
 378:app_UART.c    **** *   None.
 379:app_UART.c    **** *
 380:app_UART.c    **** * Return:
 381:app_UART.c    **** *   None.
 382:app_UART.c    **** *
 383:app_UART.c    **** *****************************************************************************************/
 384:app_UART.c    **** void EnableUartRxInt(void)
 385:app_UART.c    **** {
 1074              		.loc 1 385 0
 1075              		.cfi_startproc
 1076 0000 80B5     		push	{r7, lr}
 1077              		.cfi_def_cfa_offset 8
 1078              		.cfi_offset 7, -8
 1079              		.cfi_offset 14, -4
 1080 0002 00AF     		add	r7, sp, #0
 1081              		.cfi_def_cfa_register 7
 386:app_UART.c    ****     UART_INTR_RX_MASK_REG |= UART_RX_INTR_MASK;  
 1082              		.loc 1 386 0
ARM GAS  C:\Users\ANDREW~1\AppData\Local\Temp\cc7eSGyA.s 			page 27


 1083 0004 034B     		ldr	r3, .L62
 1084 0006 034A     		ldr	r2, .L62
 1085 0008 1268     		ldr	r2, [r2]
 1086 000a 0421     		mov	r1, #4
 1087 000c 0A43     		orr	r2, r1
 1088 000e 1A60     		str	r2, [r3]
 387:app_UART.c    **** }
 1089              		.loc 1 387 0
 1090 0010 BD46     		mov	sp, r7
 1091              		@ sp needed
 1092 0012 80BD     		pop	{r7, pc}
 1093              	.L63:
 1094              		.align	2
 1095              	.L62:
 1096 0014 C80F2440 		.word	1076105160
 1097              		.cfi_endproc
 1098              	.LFE46:
 1099              		.size	EnableUartRxInt, .-EnableUartRxInt
 1100              		.text
 1101              	.Letext0:
 1102              		.file 2 "c:\\program files (x86)\\cypress\\psoc creator\\4.0\\psoc creator\\import\\gnu\\arm\\4.9.
 1103              		.file 3 "c:\\program files (x86)\\cypress\\psoc creator\\4.0\\psoc creator\\import\\gnu\\arm\\4.9.
 1104              		.file 4 "Generated_Source\\PSoC4/cytypes.h"
 1105              		.file 5 "c:\\program files (x86)\\cypress\\psoc creator\\4.0\\psoc creator\\import\\gnu\\arm\\4.9.
 1106              		.file 6 "Generated_Source\\PSoC4/BLE_Stack.h"
 1107              		.file 7 "Generated_Source\\PSoC4/BLE_StackGatt.h"
 1108              		.file 8 "Generated_Source\\PSoC4/BLE_StackGattClient.h"
 1109              		.file 9 "Generated_Source\\PSoC4/BLE_eventHandler.h"
 1110              		.file 10 "Generated_Source\\PSoC4/ADC.h"
 1111              		.file 11 "app_UART.h"
 1112              		.section	.debug_info,"",%progbits
 1113              	.Ldebug_info0:
 1114 0000 B2050000 		.4byte	0x5b2
 1115 0004 0400     		.2byte	0x4
 1116 0006 00000000 		.4byte	.Ldebug_abbrev0
 1117 000a 04       		.byte	0x4
 1118 000b 01       		.uleb128 0x1
 1119 000c 54050000 		.4byte	.LASF96
 1120 0010 01       		.byte	0x1
 1121 0011 17060000 		.4byte	.LASF97
 1122 0015 F3020000 		.4byte	.LASF98
 1123 0019 00000000 		.4byte	.Ldebug_ranges0+0
 1124 001d 00000000 		.4byte	0
 1125 0021 00000000 		.4byte	.Ldebug_line0
 1126 0025 02       		.uleb128 0x2
 1127 0026 01       		.byte	0x1
 1128 0027 06       		.byte	0x6
 1129 0028 29040000 		.4byte	.LASF0
 1130 002c 02       		.uleb128 0x2
 1131 002d 01       		.byte	0x1
 1132 002e 08       		.byte	0x8
 1133 002f F7030000 		.4byte	.LASF1
 1134 0033 02       		.uleb128 0x2
 1135 0034 02       		.byte	0x2
 1136 0035 05       		.byte	0x5
 1137 0036 08020000 		.4byte	.LASF2
 1138 003a 02       		.uleb128 0x2
ARM GAS  C:\Users\ANDREW~1\AppData\Local\Temp\cc7eSGyA.s 			page 28


 1139 003b 02       		.byte	0x2
 1140 003c 07       		.byte	0x7
 1141 003d 05050000 		.4byte	.LASF3
 1142 0041 02       		.uleb128 0x2
 1143 0042 04       		.byte	0x4
 1144 0043 05       		.byte	0x5
 1145 0044 AF020000 		.4byte	.LASF4
 1146 0048 03       		.uleb128 0x3
 1147 0049 FE000000 		.4byte	.LASF9
 1148 004d 02       		.byte	0x2
 1149 004e 41       		.byte	0x41
 1150 004f 53000000 		.4byte	0x53
 1151 0053 02       		.uleb128 0x2
 1152 0054 04       		.byte	0x4
 1153 0055 07       		.byte	0x7
 1154 0056 AA060000 		.4byte	.LASF5
 1155 005a 02       		.uleb128 0x2
 1156 005b 08       		.byte	0x8
 1157 005c 05       		.byte	0x5
 1158 005d 73020000 		.4byte	.LASF6
 1159 0061 02       		.uleb128 0x2
 1160 0062 08       		.byte	0x8
 1161 0063 07       		.byte	0x7
 1162 0064 35040000 		.4byte	.LASF7
 1163 0068 04       		.uleb128 0x4
 1164 0069 04       		.byte	0x4
 1165 006a 05       		.byte	0x5
 1166 006b 696E7400 		.ascii	"int\000"
 1167 006f 02       		.uleb128 0x2
 1168 0070 04       		.byte	0x4
 1169 0071 07       		.byte	0x7
 1170 0072 78040000 		.4byte	.LASF8
 1171 0076 03       		.uleb128 0x3
 1172 0077 8E060000 		.4byte	.LASF10
 1173 007b 03       		.byte	0x3
 1174 007c 2D       		.byte	0x2d
 1175 007d 48000000 		.4byte	0x48
 1176 0081 05       		.uleb128 0x5
 1177 0082 DE010000 		.4byte	.LASF11
 1178 0086 04       		.byte	0x4
 1179 0087 B901     		.2byte	0x1b9
 1180 0089 2C000000 		.4byte	0x2c
 1181 008d 05       		.uleb128 0x5
 1182 008e AD010000 		.4byte	.LASF12
 1183 0092 04       		.byte	0x4
 1184 0093 BA01     		.2byte	0x1ba
 1185 0095 3A000000 		.4byte	0x3a
 1186 0099 05       		.uleb128 0x5
 1187 009a 97060000 		.4byte	.LASF13
 1188 009e 04       		.byte	0x4
 1189 009f BB01     		.2byte	0x1bb
 1190 00a1 53000000 		.4byte	0x53
 1191 00a5 05       		.uleb128 0x5
 1192 00a6 D8010000 		.4byte	.LASF14
 1193 00aa 04       		.byte	0x4
 1194 00ab BD01     		.2byte	0x1bd
 1195 00ad 33000000 		.4byte	0x33
ARM GAS  C:\Users\ANDREW~1\AppData\Local\Temp\cc7eSGyA.s 			page 29


 1196 00b1 02       		.uleb128 0x2
 1197 00b2 04       		.byte	0x4
 1198 00b3 04       		.byte	0x4
 1199 00b4 58020000 		.4byte	.LASF15
 1200 00b8 02       		.uleb128 0x2
 1201 00b9 08       		.byte	0x8
 1202 00ba 04       		.byte	0x4
 1203 00bb C7060000 		.4byte	.LASF16
 1204 00bf 02       		.uleb128 0x2
 1205 00c0 01       		.byte	0x1
 1206 00c1 08       		.byte	0x8
 1207 00c2 25050000 		.4byte	.LASF17
 1208 00c6 05       		.uleb128 0x5
 1209 00c7 DC040000 		.4byte	.LASF18
 1210 00cb 04       		.byte	0x4
 1211 00cc 6502     		.2byte	0x265
 1212 00ce D2000000 		.4byte	0xd2
 1213 00d2 06       		.uleb128 0x6
 1214 00d3 99000000 		.4byte	0x99
 1215 00d7 03       		.uleb128 0x3
 1216 00d8 92000000 		.4byte	.LASF19
 1217 00dc 05       		.byte	0x5
 1218 00dd D4       		.byte	0xd4
 1219 00de 6F000000 		.4byte	0x6f
 1220 00e2 02       		.uleb128 0x2
 1221 00e3 04       		.byte	0x4
 1222 00e4 07       		.byte	0x7
 1223 00e5 99000000 		.4byte	.LASF20
 1224 00e9 07       		.uleb128 0x7
 1225 00ea 04       		.byte	0x4
 1226 00eb 2C000000 		.4byte	0x2c
 1227 00ef 08       		.uleb128 0x8
 1228 00f0 02       		.byte	0x2
 1229 00f1 06       		.byte	0x6
 1230 00f2 D203     		.2byte	0x3d2
 1231 00f4 BF010000 		.4byte	0x1bf
 1232 00f8 09       		.uleb128 0x9
 1233 00f9 AD000000 		.4byte	.LASF21
 1234 00fd 00       		.sleb128 0
 1235 00fe 09       		.uleb128 0x9
 1236 00ff 55010000 		.4byte	.LASF22
 1237 0103 01       		.sleb128 1
 1238 0104 09       		.uleb128 0x9
 1239 0105 B4010000 		.4byte	.LASF23
 1240 0109 02       		.sleb128 2
 1241 010a 09       		.uleb128 0x9
 1242 010b 22060000 		.4byte	.LASF24
 1243 010f 03       		.sleb128 3
 1244 0110 09       		.uleb128 0x9
 1245 0111 35020000 		.4byte	.LASF25
 1246 0115 04       		.sleb128 4
 1247 0116 09       		.uleb128 0x9
 1248 0117 73010000 		.4byte	.LASF26
 1249 011b 05       		.sleb128 5
 1250 011c 09       		.uleb128 0x9
 1251 011d C9020000 		.4byte	.LASF27
 1252 0121 06       		.sleb128 6
ARM GAS  C:\Users\ANDREW~1\AppData\Local\Temp\cc7eSGyA.s 			page 30


 1253 0122 09       		.uleb128 0x9
 1254 0123 B5030000 		.4byte	.LASF28
 1255 0127 07       		.sleb128 7
 1256 0128 09       		.uleb128 0x9
 1257 0129 69030000 		.4byte	.LASF29
 1258 012d 08       		.sleb128 8
 1259 012e 09       		.uleb128 0x9
 1260 012f 63040000 		.4byte	.LASF30
 1261 0133 09       		.sleb128 9
 1262 0134 09       		.uleb128 0x9
 1263 0135 1B020000 		.4byte	.LASF31
 1264 0139 0A       		.sleb128 10
 1265 013a 09       		.uleb128 0x9
 1266 013b 81020000 		.4byte	.LASF32
 1267 013f 0B       		.sleb128 11
 1268 0140 09       		.uleb128 0x9
 1269 0141 4C040000 		.4byte	.LASF33
 1270 0145 0C       		.sleb128 12
 1271 0146 09       		.uleb128 0x9
 1272 0147 85040000 		.4byte	.LASF34
 1273 014b 0D       		.sleb128 13
 1274 014c 09       		.uleb128 0x9
 1275 014d 25000000 		.4byte	.LASF35
 1276 0151 0E       		.sleb128 14
 1277 0152 09       		.uleb128 0x9
 1278 0153 00000000 		.4byte	.LASF36
 1279 0157 0F       		.sleb128 15
 1280 0158 09       		.uleb128 0x9
 1281 0159 EB070000 		.4byte	.LASF37
 1282 015d 10       		.sleb128 16
 1283 015e 09       		.uleb128 0x9
 1284 015f 62000000 		.4byte	.LASF38
 1285 0163 11       		.sleb128 17
 1286 0164 09       		.uleb128 0x9
 1287 0165 26070000 		.4byte	.LASF39
 1288 0169 12       		.sleb128 18
 1289 016a 09       		.uleb128 0x9
 1290 016b C3070000 		.4byte	.LASF40
 1291 016f 13       		.sleb128 19
 1292 0170 09       		.uleb128 0x9
 1293 0171 68070000 		.4byte	.LASF41
 1294 0175 27       		.sleb128 39
 1295 0176 09       		.uleb128 0x9
 1296 0177 BC000000 		.4byte	.LASF42
 1297 017b 28       		.sleb128 40
 1298 017c 09       		.uleb128 0x9
 1299 017d 09010000 		.4byte	.LASF43
 1300 0181 29       		.sleb128 41
 1301 0182 09       		.uleb128 0x9
 1302 0183 E1000000 		.4byte	.LASF44
 1303 0187 2A       		.sleb128 42
 1304 0188 09       		.uleb128 0x9
 1305 0189 5B060000 		.4byte	.LASF45
 1306 018d 2B       		.sleb128 43
 1307 018e 09       		.uleb128 0x9
 1308 018f 05040000 		.4byte	.LASF46
 1309 0193 2C       		.sleb128 44
ARM GAS  C:\Users\ANDREW~1\AppData\Local\Temp\cc7eSGyA.s 			page 31


 1310 0194 09       		.uleb128 0x9
 1311 0195 E2050000 		.4byte	.LASF47
 1312 0199 FE01     		.sleb128 254
 1313 019b 09       		.uleb128 0x9
 1314 019c 94070000 		.4byte	.LASF48
 1315 01a0 FF01     		.sleb128 255
 1316 01a2 09       		.uleb128 0x9
 1317 01a3 4F070000 		.4byte	.LASF49
 1318 01a7 8002     		.sleb128 256
 1319 01a9 09       		.uleb128 0x9
 1320 01aa 24080000 		.4byte	.LASF50
 1321 01ae 8102     		.sleb128 257
 1322 01b0 09       		.uleb128 0x9
 1323 01b1 E2040000 		.4byte	.LASF51
 1324 01b5 8202     		.sleb128 258
 1325 01b7 09       		.uleb128 0x9
 1326 01b8 A4070000 		.4byte	.LASF52
 1327 01bc 8302     		.sleb128 259
 1328 01be 00       		.byte	0
 1329 01bf 05       		.uleb128 0x5
 1330 01c0 E4010000 		.4byte	.LASF53
 1331 01c4 06       		.byte	0x6
 1332 01c5 3E04     		.2byte	0x43e
 1333 01c7 EF000000 		.4byte	0xef
 1334 01cb 07       		.uleb128 0x7
 1335 01cc 04       		.byte	0x4
 1336 01cd 81000000 		.4byte	0x81
 1337 01d1 05       		.uleb128 0x5
 1338 01d2 25010000 		.4byte	.LASF54
 1339 01d6 07       		.byte	0x7
 1340 01d7 8401     		.2byte	0x184
 1341 01d9 8D000000 		.4byte	0x8d
 1342 01dd 0A       		.uleb128 0xa
 1343 01de 02       		.byte	0x2
 1344 01df 07       		.byte	0x7
 1345 01e0 8E01     		.2byte	0x18e
 1346 01e2 01020000 		.4byte	0x201
 1347 01e6 0B       		.uleb128 0xb
 1348 01e7 12020000 		.4byte	.LASF55
 1349 01eb 07       		.byte	0x7
 1350 01ec 9501     		.2byte	0x195
 1351 01ee 81000000 		.4byte	0x81
 1352 01f2 00       		.byte	0
 1353 01f3 0B       		.uleb128 0xb
 1354 01f4 74080000 		.4byte	.LASF56
 1355 01f8 07       		.byte	0x7
 1356 01f9 9B01     		.2byte	0x19b
 1357 01fb 81000000 		.4byte	0x81
 1358 01ff 01       		.byte	0x1
 1359 0200 00       		.byte	0
 1360 0201 05       		.uleb128 0x5
 1361 0202 E2060000 		.4byte	.LASF57
 1362 0206 07       		.byte	0x7
 1363 0207 9D01     		.2byte	0x19d
 1364 0209 DD010000 		.4byte	0x1dd
 1365 020d 0A       		.uleb128 0xa
 1366 020e 08       		.byte	0x8
ARM GAS  C:\Users\ANDREW~1\AppData\Local\Temp\cc7eSGyA.s 			page 32


 1367 020f 07       		.byte	0x7
 1368 0210 B901     		.2byte	0x1b9
 1369 0212 3E020000 		.4byte	0x23e
 1370 0216 0C       		.uleb128 0xc
 1371 0217 76616C00 		.ascii	"val\000"
 1372 021b 07       		.byte	0x7
 1373 021c BC01     		.2byte	0x1bc
 1374 021e CB010000 		.4byte	0x1cb
 1375 0222 00       		.byte	0
 1376 0223 0C       		.uleb128 0xc
 1377 0224 6C656E00 		.ascii	"len\000"
 1378 0228 07       		.byte	0x7
 1379 0229 BF01     		.2byte	0x1bf
 1380 022b 8D000000 		.4byte	0x8d
 1381 022f 04       		.byte	0x4
 1382 0230 0B       		.uleb128 0xb
 1383 0231 4E000000 		.4byte	.LASF58
 1384 0235 07       		.byte	0x7
 1385 0236 C601     		.2byte	0x1c6
 1386 0238 8D000000 		.4byte	0x8d
 1387 023c 06       		.byte	0x6
 1388 023d 00       		.byte	0
 1389 023e 05       		.uleb128 0x5
 1390 023f 41050000 		.4byte	.LASF59
 1391 0243 07       		.byte	0x7
 1392 0244 C801     		.2byte	0x1c8
 1393 0246 0D020000 		.4byte	0x20d
 1394 024a 0A       		.uleb128 0xa
 1395 024b 0C       		.byte	0xc
 1396 024c 07       		.byte	0x7
 1397 024d CB01     		.2byte	0x1cb
 1398 024f 6E020000 		.4byte	0x26e
 1399 0253 0B       		.uleb128 0xb
 1400 0254 91010000 		.4byte	.LASF60
 1401 0258 07       		.byte	0x7
 1402 0259 CE01     		.2byte	0x1ce
 1403 025b 3E020000 		.4byte	0x23e
 1404 025f 00       		.byte	0
 1405 0260 0B       		.uleb128 0xb
 1406 0261 BC060000 		.4byte	.LASF61
 1407 0265 07       		.byte	0x7
 1408 0266 D101     		.2byte	0x1d1
 1409 0268 D1010000 		.4byte	0x1d1
 1410 026c 08       		.byte	0x8
 1411 026d 00       		.byte	0
 1412 026e 05       		.uleb128 0x5
 1413 026f F6060000 		.4byte	.LASF62
 1414 0273 07       		.byte	0x7
 1415 0274 D301     		.2byte	0x1d3
 1416 0276 4A020000 		.4byte	0x24a
 1417 027a 03       		.uleb128 0x3
 1418 027b 99030000 		.4byte	.LASF63
 1419 027f 08       		.byte	0x8
 1420 0280 74       		.byte	0x74
 1421 0281 6E020000 		.4byte	0x26e
 1422 0285 0D       		.uleb128 0xd
 1423 0286 10       		.byte	0x10
ARM GAS  C:\Users\ANDREW~1\AppData\Local\Temp\cc7eSGyA.s 			page 33


 1424 0287 08       		.byte	0x8
 1425 0288 88       		.byte	0x88
 1426 0289 A6020000 		.4byte	0x2a6
 1427 028d 0E       		.uleb128 0xe
 1428 028e D1040000 		.4byte	.LASF64
 1429 0292 08       		.byte	0x8
 1430 0293 8B       		.byte	0x8b
 1431 0294 01020000 		.4byte	0x201
 1432 0298 00       		.byte	0
 1433 0299 0E       		.uleb128 0xe
 1434 029a A1020000 		.4byte	.LASF65
 1435 029e 08       		.byte	0x8
 1436 029f 8E       		.byte	0x8e
 1437 02a0 6E020000 		.4byte	0x26e
 1438 02a4 04       		.byte	0x4
 1439 02a5 00       		.byte	0
 1440 02a6 03       		.uleb128 0x3
 1441 02a7 D2030000 		.4byte	.LASF66
 1442 02ab 08       		.byte	0x8
 1443 02ac 90       		.byte	0x90
 1444 02ad 85020000 		.4byte	0x285
 1445 02b1 08       		.uleb128 0x8
 1446 02b2 01       		.byte	0x1
 1447 02b3 09       		.byte	0x9
 1448 02b4 F607     		.2byte	0x7f6
 1449 02b6 DF020000 		.4byte	0x2df
 1450 02ba 09       		.uleb128 0x9
 1451 02bb 41010000 		.4byte	.LASF67
 1452 02bf 00       		.sleb128 0
 1453 02c0 09       		.uleb128 0x9
 1454 02c1 FE050000 		.4byte	.LASF68
 1455 02c5 01       		.sleb128 1
 1456 02c6 09       		.uleb128 0x9
 1457 02c7 97010000 		.4byte	.LASF69
 1458 02cb 02       		.sleb128 2
 1459 02cc 09       		.uleb128 0x9
 1460 02cd 5E020000 		.4byte	.LASF70
 1461 02d1 03       		.sleb128 3
 1462 02d2 09       		.uleb128 0x9
 1463 02d3 50080000 		.4byte	.LASF71
 1464 02d7 04       		.sleb128 4
 1465 02d8 09       		.uleb128 0x9
 1466 02d9 AA040000 		.4byte	.LASF72
 1467 02dd 05       		.sleb128 5
 1468 02de 00       		.byte	0
 1469 02df 05       		.uleb128 0x5
 1470 02e0 C3040000 		.4byte	.LASF73
 1471 02e4 09       		.byte	0x9
 1472 02e5 0408     		.2byte	0x804
 1473 02e7 B1020000 		.4byte	0x2b1
 1474 02eb 0F       		.uleb128 0xf
 1475 02ec 47060000 		.4byte	.LASF75
 1476 02f0 01       		.byte	0x1
 1477 02f1 21       		.byte	0x21
 1478 02f2 00000000 		.4byte	.LFB37
 1479 02f6 D8000000 		.4byte	.LFE37-.LFB37
 1480 02fa 01       		.uleb128 0x1
ARM GAS  C:\Users\ANDREW~1\AppData\Local\Temp\cc7eSGyA.s 			page 34


 1481 02fb 9C       		.byte	0x9c
 1482 02fc 3F030000 		.4byte	0x33f
 1483 0300 10       		.uleb128 0x10
 1484 0301 2A050000 		.4byte	.LASF77
 1485 0305 01       		.byte	0x1
 1486 0306 21       		.byte	0x21
 1487 0307 3F030000 		.4byte	0x33f
 1488 030b 02       		.uleb128 0x2
 1489 030c 91       		.byte	0x91
 1490 030d 64       		.sleb128 -28
 1491 030e 11       		.uleb128 0x11
 1492 030f 7800     		.ascii	"x\000"
 1493 0311 01       		.byte	0x1
 1494 0312 23       		.byte	0x23
 1495 0313 E9000000 		.4byte	0xe9
 1496 0317 02       		.uleb128 0x2
 1497 0318 91       		.byte	0x91
 1498 0319 70       		.sleb128 -16
 1499 031a 11       		.uleb128 0x11
 1500 031b 6C00     		.ascii	"l\000"
 1501 031d 01       		.byte	0x1
 1502 031e 26       		.byte	0x26
 1503 031f 68000000 		.4byte	0x68
 1504 0323 02       		.uleb128 0x2
 1505 0324 91       		.byte	0x91
 1506 0325 74       		.sleb128 -12
 1507 0326 12       		.uleb128 0x12
 1508 0327 58000000 		.4byte	.LBB2
 1509 032b 2A000000 		.4byte	.LBE2-.LBB2
 1510 032f 13       		.uleb128 0x13
 1511 0330 BE070000 		.4byte	.LASF74
 1512 0334 01       		.byte	0x1
 1513 0335 3C       		.byte	0x3c
 1514 0336 8D000000 		.4byte	0x8d
 1515 033a 02       		.uleb128 0x2
 1516 033b 91       		.byte	0x91
 1517 033c 6E       		.sleb128 -18
 1518 033d 00       		.byte	0
 1519 033e 00       		.byte	0
 1520 033f 07       		.uleb128 0x7
 1521 0340 04       		.byte	0x4
 1522 0341 A6020000 		.4byte	0x2a6
 1523 0345 0F       		.uleb128 0xf
 1524 0346 A2000000 		.4byte	.LASF76
 1525 034a 01       		.byte	0x1
 1526 034b 5A       		.byte	0x5a
 1527 034c 00000000 		.4byte	.LFB38
 1528 0350 50010000 		.4byte	.LFE38-.LFB38
 1529 0354 01       		.uleb128 0x1
 1530 0355 9C       		.byte	0x9c
 1531 0356 C6030000 		.4byte	0x3c6
 1532 035a 10       		.uleb128 0x10
 1533 035b D2010000 		.4byte	.LASF78
 1534 035f 01       		.byte	0x1
 1535 0360 5A       		.byte	0x5a
 1536 0361 68000000 		.4byte	0x68
 1537 0365 03       		.uleb128 0x3
ARM GAS  C:\Users\ANDREW~1\AppData\Local\Temp\cc7eSGyA.s 			page 35


 1538 0366 91       		.byte	0x91
 1539 0367 BC7F     		.sleb128 -68
 1540 0369 11       		.uleb128 0x11
 1541 036a 6B00     		.ascii	"k\000"
 1542 036c 01       		.byte	0x1
 1543 036d 5C       		.byte	0x5c
 1544 036e 68000000 		.4byte	0x68
 1545 0372 02       		.uleb128 0x2
 1546 0373 91       		.byte	0x91
 1547 0374 74       		.sleb128 -12
 1548 0375 13       		.uleb128 0x13
 1549 0376 49070000 		.4byte	.LASF79
 1550 037a 01       		.byte	0x1
 1551 037b 5D       		.byte	0x5d
 1552 037c 68000000 		.4byte	0x68
 1553 0380 02       		.uleb128 0x2
 1554 0381 91       		.byte	0x91
 1555 0382 70       		.sleb128 -16
 1556 0383 13       		.uleb128 0x13
 1557 0384 9E060000 		.4byte	.LASF80
 1558 0388 01       		.byte	0x1
 1559 0389 5F       		.byte	0x5f
 1560 038a C6030000 		.4byte	0x3c6
 1561 038e 02       		.uleb128 0x2
 1562 038f 91       		.byte	0x91
 1563 0390 40       		.sleb128 -64
 1564 0391 13       		.uleb128 0x13
 1565 0392 58000000 		.4byte	.LASF81
 1566 0396 01       		.byte	0x1
 1567 0397 64       		.byte	0x64
 1568 0398 99000000 		.4byte	0x99
 1569 039c 02       		.uleb128 0x2
 1570 039d 91       		.byte	0x91
 1571 039e 6C       		.sleb128 -20
 1572 039f 12       		.uleb128 0x12
 1573 03a0 80000000 		.4byte	.LBB3
 1574 03a4 9C000000 		.4byte	.LBE3-.LBB3
 1575 03a8 13       		.uleb128 0x13
 1576 03a9 BE070000 		.4byte	.LASF74
 1577 03ad 01       		.byte	0x1
 1578 03ae 6D       		.byte	0x6d
 1579 03af 8D000000 		.4byte	0x8d
 1580 03b3 02       		.uleb128 0x2
 1581 03b4 91       		.byte	0x91
 1582 03b5 6A       		.sleb128 -22
 1583 03b6 11       		.uleb128 0x11
 1584 03b7 41563100 		.ascii	"AV1\000"
 1585 03bb 01       		.byte	0x1
 1586 03bc 75       		.byte	0x75
 1587 03bd 8D000000 		.4byte	0x8d
 1588 03c1 02       		.uleb128 0x2
 1589 03c2 91       		.byte	0x91
 1590 03c3 68       		.sleb128 -24
 1591 03c4 00       		.byte	0
 1592 03c5 00       		.byte	0
 1593 03c6 14       		.uleb128 0x14
 1594 03c7 81000000 		.4byte	0x81
ARM GAS  C:\Users\ANDREW~1\AppData\Local\Temp\cc7eSGyA.s 			page 36


 1595 03cb D6030000 		.4byte	0x3d6
 1596 03cf 15       		.uleb128 0x15
 1597 03d0 E2000000 		.4byte	0xe2
 1598 03d4 27       		.byte	0x27
 1599 03d5 00       		.byte	0
 1600 03d6 16       		.uleb128 0x16
 1601 03d7 B8020000 		.4byte	.LASF99
 1602 03db 01       		.byte	0x1
 1603 03dc 81       		.byte	0x81
 1604 03dd 00000000 		.4byte	.LFB39
 1605 03e1 C4000000 		.4byte	.LFE39-.LFB39
 1606 03e5 01       		.uleb128 0x1
 1607 03e6 9C       		.byte	0x9c
 1608 03e7 2C040000 		.4byte	0x42c
 1609 03eb 11       		.uleb128 0x11
 1610 03ec 6B00     		.ascii	"k\000"
 1611 03ee 01       		.byte	0x1
 1612 03ef 83       		.byte	0x83
 1613 03f0 68000000 		.4byte	0x68
 1614 03f4 02       		.uleb128 0x2
 1615 03f5 91       		.byte	0x91
 1616 03f6 74       		.sleb128 -12
 1617 03f7 13       		.uleb128 0x13
 1618 03f8 49070000 		.4byte	.LASF79
 1619 03fc 01       		.byte	0x1
 1620 03fd 84       		.byte	0x84
 1621 03fe 68000000 		.4byte	0x68
 1622 0402 02       		.uleb128 0x2
 1623 0403 91       		.byte	0x91
 1624 0404 70       		.sleb128 -16
 1625 0405 13       		.uleb128 0x13
 1626 0406 9E060000 		.4byte	.LASF80
 1627 040a 01       		.byte	0x1
 1628 040b 86       		.byte	0x86
 1629 040c C6030000 		.4byte	0x3c6
 1630 0410 02       		.uleb128 0x2
 1631 0411 91       		.byte	0x91
 1632 0412 44       		.sleb128 -60
 1633 0413 12       		.uleb128 0x12
 1634 0414 4A000000 		.4byte	.LBB4
 1635 0418 62000000 		.4byte	.LBE4-.LBB4
 1636 041c 13       		.uleb128 0x13
 1637 041d BE070000 		.4byte	.LASF74
 1638 0421 01       		.byte	0x1
 1639 0422 8E       		.byte	0x8e
 1640 0423 8D000000 		.4byte	0x8d
 1641 0427 02       		.uleb128 0x2
 1642 0428 91       		.byte	0x91
 1643 0429 6E       		.sleb128 -18
 1644 042a 00       		.byte	0
 1645 042b 00       		.byte	0
 1646 042c 0F       		.uleb128 0xf
 1647 042d 8A070000 		.4byte	.LASF82
 1648 0431 01       		.byte	0x1
 1649 0432 9D       		.byte	0x9d
 1650 0433 00000000 		.4byte	.LFB40
 1651 0437 A8000000 		.4byte	.LFE40-.LFB40
ARM GAS  C:\Users\ANDREW~1\AppData\Local\Temp\cc7eSGyA.s 			page 37


 1652 043b 01       		.uleb128 0x1
 1653 043c 9C       		.byte	0x9c
 1654 043d 50040000 		.4byte	0x450
 1655 0441 10       		.uleb128 0x10
 1656 0442 D2010000 		.4byte	.LASF78
 1657 0446 01       		.byte	0x1
 1658 0447 9D       		.byte	0x9d
 1659 0448 68000000 		.4byte	0x68
 1660 044c 02       		.uleb128 0x2
 1661 044d 91       		.byte	0x91
 1662 044e 74       		.sleb128 -12
 1663 044f 00       		.byte	0
 1664 0450 0F       		.uleb128 0xf
 1665 0451 86000000 		.4byte	.LASF83
 1666 0455 01       		.byte	0x1
 1667 0456 C2       		.byte	0xc2
 1668 0457 00000000 		.4byte	.LFB41
 1669 045b 98000000 		.4byte	.LFE41-.LFB41
 1670 045f 01       		.uleb128 0x1
 1671 0460 9C       		.byte	0x9c
 1672 0461 A4040000 		.4byte	0x4a4
 1673 0465 17       		.uleb128 0x17
 1674 0466 6100     		.ascii	"a\000"
 1675 0468 01       		.byte	0x1
 1676 0469 C2       		.byte	0xc2
 1677 046a CB010000 		.4byte	0x1cb
 1678 046e 02       		.uleb128 0x2
 1679 046f 91       		.byte	0x91
 1680 0470 54       		.sleb128 -44
 1681 0471 11       		.uleb128 0x11
 1682 0472 6A00     		.ascii	"j\000"
 1683 0474 01       		.byte	0x1
 1684 0475 C4       		.byte	0xc4
 1685 0476 68000000 		.4byte	0x68
 1686 047a 02       		.uleb128 0x2
 1687 047b 91       		.byte	0x91
 1688 047c 6C       		.sleb128 -20
 1689 047d 12       		.uleb128 0x12
 1690 047e 0E000000 		.4byte	.LBB5
 1691 0482 68000000 		.4byte	.LBE5-.LBB5
 1692 0486 13       		.uleb128 0x13
 1693 0487 67080000 		.4byte	.LASF84
 1694 048b 01       		.byte	0x1
 1695 048c C7       		.byte	0xc7
 1696 048d BF010000 		.4byte	0x1bf
 1697 0491 02       		.uleb128 0x2
 1698 0492 91       		.byte	0x91
 1699 0493 6A       		.sleb128 -22
 1700 0494 13       		.uleb128 0x13
 1701 0495 3D080000 		.4byte	.LASF85
 1702 0499 01       		.byte	0x1
 1703 049a C8       		.byte	0xc8
 1704 049b 7A020000 		.4byte	0x27a
 1705 049f 02       		.uleb128 0x2
 1706 04a0 91       		.byte	0x91
 1707 04a1 5C       		.sleb128 -36
 1708 04a2 00       		.byte	0
ARM GAS  C:\Users\ANDREW~1\AppData\Local\Temp\cc7eSGyA.s 			page 38


 1709 04a3 00       		.byte	0
 1710 04a4 0F       		.uleb128 0xf
 1711 04a5 19080000 		.4byte	.LASF86
 1712 04a9 01       		.byte	0x1
 1713 04aa DB       		.byte	0xdb
 1714 04ab 00000000 		.4byte	.LFB42
 1715 04af 98000000 		.4byte	.LFE42-.LFB42
 1716 04b3 01       		.uleb128 0x1
 1717 04b4 9C       		.byte	0x9c
 1718 04b5 F0040000 		.4byte	0x4f0
 1719 04b9 17       		.uleb128 0x17
 1720 04ba 73747200 		.ascii	"str\000"
 1721 04be 01       		.byte	0x1
 1722 04bf DB       		.byte	0xdb
 1723 04c0 CB010000 		.4byte	0x1cb
 1724 04c4 02       		.uleb128 0x2
 1725 04c5 91       		.byte	0x91
 1726 04c6 64       		.sleb128 -28
 1727 04c7 17       		.uleb128 0x17
 1728 04c8 76616C00 		.ascii	"val\000"
 1729 04cc 01       		.byte	0x1
 1730 04cd DB       		.byte	0xdb
 1731 04ce 76000000 		.4byte	0x76
 1732 04d2 02       		.uleb128 0x2
 1733 04d3 91       		.byte	0x91
 1734 04d4 60       		.sleb128 -32
 1735 04d5 10       		.uleb128 0x10
 1736 04d6 92030000 		.4byte	.LASF87
 1737 04da 01       		.byte	0x1
 1738 04db DB       		.byte	0xdb
 1739 04dc D7000000 		.4byte	0xd7
 1740 04e0 02       		.uleb128 0x2
 1741 04e1 91       		.byte	0x91
 1742 04e2 5C       		.sleb128 -36
 1743 04e3 11       		.uleb128 0x11
 1744 04e4 6900     		.ascii	"i\000"
 1745 04e6 01       		.byte	0x1
 1746 04e7 DD       		.byte	0xdd
 1747 04e8 D7000000 		.4byte	0xd7
 1748 04ec 02       		.uleb128 0x2
 1749 04ed 91       		.byte	0x91
 1750 04ee 6C       		.sleb128 -20
 1751 04ef 00       		.byte	0
 1752 04f0 0F       		.uleb128 0xf
 1753 04f1 5E030000 		.4byte	.LASF88
 1754 04f5 01       		.byte	0x1
 1755 04f6 F3       		.byte	0xf3
 1756 04f7 00000000 		.4byte	.LFB43
 1757 04fb 58000000 		.4byte	.LFE43-.LFB43
 1758 04ff 01       		.uleb128 0x1
 1759 0500 9C       		.byte	0x9c
 1760 0501 3C050000 		.4byte	0x53c
 1761 0505 17       		.uleb128 0x17
 1762 0506 73747200 		.ascii	"str\000"
 1763 050a 01       		.byte	0x1
 1764 050b F3       		.byte	0xf3
 1765 050c CB010000 		.4byte	0x1cb
ARM GAS  C:\Users\ANDREW~1\AppData\Local\Temp\cc7eSGyA.s 			page 39


 1766 0510 02       		.uleb128 0x2
 1767 0511 91       		.byte	0x91
 1768 0512 64       		.sleb128 -28
 1769 0513 17       		.uleb128 0x17
 1770 0514 76616C00 		.ascii	"val\000"
 1771 0518 01       		.byte	0x1
 1772 0519 F3       		.byte	0xf3
 1773 051a 76000000 		.4byte	0x76
 1774 051e 02       		.uleb128 0x2
 1775 051f 91       		.byte	0x91
 1776 0520 60       		.sleb128 -32
 1777 0521 10       		.uleb128 0x10
 1778 0522 92030000 		.4byte	.LASF87
 1779 0526 01       		.byte	0x1
 1780 0527 F3       		.byte	0xf3
 1781 0528 D7000000 		.4byte	0xd7
 1782 052c 02       		.uleb128 0x2
 1783 052d 91       		.byte	0x91
 1784 052e 5C       		.sleb128 -36
 1785 052f 11       		.uleb128 0x11
 1786 0530 6900     		.ascii	"i\000"
 1787 0532 01       		.byte	0x1
 1788 0533 F5       		.byte	0xf5
 1789 0534 D7000000 		.4byte	0xd7
 1790 0538 02       		.uleb128 0x2
 1791 0539 91       		.byte	0x91
 1792 053a 6C       		.sleb128 -20
 1793 053b 00       		.byte	0
 1794 053c 18       		.uleb128 0x18
 1795 053d CE060000 		.4byte	.LASF89
 1796 0541 01       		.byte	0x1
 1797 0542 0F01     		.2byte	0x10f
 1798 0544 00000000 		.4byte	.LFB44
 1799 0548 08000000 		.4byte	.LFE44-.LFB44
 1800 054c 01       		.uleb128 0x1
 1801 054d 9C       		.byte	0x9c
 1802 054e 18       		.uleb128 0x18
 1803 054f 15070000 		.4byte	.LASF90
 1804 0553 01       		.byte	0x1
 1805 0554 6D01     		.2byte	0x16d
 1806 0556 00000000 		.4byte	.LFB45
 1807 055a 18000000 		.4byte	.LFE45-.LFB45
 1808 055e 01       		.uleb128 0x1
 1809 055f 9C       		.byte	0x9c
 1810 0560 18       		.uleb128 0x18
 1811 0561 E3020000 		.4byte	.LASF91
 1812 0565 01       		.byte	0x1
 1813 0566 8001     		.2byte	0x180
 1814 0568 00000000 		.4byte	.LFB46
 1815 056c 18000000 		.4byte	.LFE46-.LFB46
 1816 0570 01       		.uleb128 0x1
 1817 0571 9C       		.byte	0x9c
 1818 0572 19       		.uleb128 0x19
 1819 0573 1D040000 		.4byte	.LASF92
 1820 0577 09       		.byte	0x9
 1821 0578 2A0A     		.2byte	0xa2a
 1822 057a DF020000 		.4byte	0x2df
ARM GAS  C:\Users\ANDREW~1\AppData\Local\Temp\cc7eSGyA.s 			page 40


 1823 057e 19       		.uleb128 0x19
 1824 057f F7010000 		.4byte	.LASF93
 1825 0583 09       		.byte	0x9
 1826 0584 2B0A     		.2byte	0xa2b
 1827 0586 01020000 		.4byte	0x201
 1828 058a 14       		.uleb128 0x14
 1829 058b A5000000 		.4byte	0xa5
 1830 058f 9A050000 		.4byte	0x59a
 1831 0593 15       		.uleb128 0x15
 1832 0594 E2000000 		.4byte	0xe2
 1833 0598 03       		.byte	0x3
 1834 0599 00       		.byte	0
 1835 059a 1A       		.uleb128 0x1a
 1836 059b 87030000 		.4byte	.LASF94
 1837 059f 0A       		.byte	0xa
 1838 05a0 D8       		.byte	0xd8
 1839 05a1 A5050000 		.4byte	0x5a5
 1840 05a5 06       		.uleb128 0x6
 1841 05a6 8A050000 		.4byte	0x58a
 1842 05aa 1A       		.uleb128 0x1a
 1843 05ab 18050000 		.4byte	.LASF95
 1844 05af 0B       		.byte	0xb
 1845 05b0 23       		.byte	0x23
 1846 05b1 8D000000 		.4byte	0x8d
 1847 05b5 00       		.byte	0
 1848              		.section	.debug_abbrev,"",%progbits
 1849              	.Ldebug_abbrev0:
 1850 0000 01       		.uleb128 0x1
 1851 0001 11       		.uleb128 0x11
 1852 0002 01       		.byte	0x1
 1853 0003 25       		.uleb128 0x25
 1854 0004 0E       		.uleb128 0xe
 1855 0005 13       		.uleb128 0x13
 1856 0006 0B       		.uleb128 0xb
 1857 0007 03       		.uleb128 0x3
 1858 0008 0E       		.uleb128 0xe
 1859 0009 1B       		.uleb128 0x1b
 1860 000a 0E       		.uleb128 0xe
 1861 000b 55       		.uleb128 0x55
 1862 000c 17       		.uleb128 0x17
 1863 000d 11       		.uleb128 0x11
 1864 000e 01       		.uleb128 0x1
 1865 000f 10       		.uleb128 0x10
 1866 0010 17       		.uleb128 0x17
 1867 0011 00       		.byte	0
 1868 0012 00       		.byte	0
 1869 0013 02       		.uleb128 0x2
 1870 0014 24       		.uleb128 0x24
 1871 0015 00       		.byte	0
 1872 0016 0B       		.uleb128 0xb
 1873 0017 0B       		.uleb128 0xb
 1874 0018 3E       		.uleb128 0x3e
 1875 0019 0B       		.uleb128 0xb
 1876 001a 03       		.uleb128 0x3
 1877 001b 0E       		.uleb128 0xe
 1878 001c 00       		.byte	0
 1879 001d 00       		.byte	0
ARM GAS  C:\Users\ANDREW~1\AppData\Local\Temp\cc7eSGyA.s 			page 41


 1880 001e 03       		.uleb128 0x3
 1881 001f 16       		.uleb128 0x16
 1882 0020 00       		.byte	0
 1883 0021 03       		.uleb128 0x3
 1884 0022 0E       		.uleb128 0xe
 1885 0023 3A       		.uleb128 0x3a
 1886 0024 0B       		.uleb128 0xb
 1887 0025 3B       		.uleb128 0x3b
 1888 0026 0B       		.uleb128 0xb
 1889 0027 49       		.uleb128 0x49
 1890 0028 13       		.uleb128 0x13
 1891 0029 00       		.byte	0
 1892 002a 00       		.byte	0
 1893 002b 04       		.uleb128 0x4
 1894 002c 24       		.uleb128 0x24
 1895 002d 00       		.byte	0
 1896 002e 0B       		.uleb128 0xb
 1897 002f 0B       		.uleb128 0xb
 1898 0030 3E       		.uleb128 0x3e
 1899 0031 0B       		.uleb128 0xb
 1900 0032 03       		.uleb128 0x3
 1901 0033 08       		.uleb128 0x8
 1902 0034 00       		.byte	0
 1903 0035 00       		.byte	0
 1904 0036 05       		.uleb128 0x5
 1905 0037 16       		.uleb128 0x16
 1906 0038 00       		.byte	0
 1907 0039 03       		.uleb128 0x3
 1908 003a 0E       		.uleb128 0xe
 1909 003b 3A       		.uleb128 0x3a
 1910 003c 0B       		.uleb128 0xb
 1911 003d 3B       		.uleb128 0x3b
 1912 003e 05       		.uleb128 0x5
 1913 003f 49       		.uleb128 0x49
 1914 0040 13       		.uleb128 0x13
 1915 0041 00       		.byte	0
 1916 0042 00       		.byte	0
 1917 0043 06       		.uleb128 0x6
 1918 0044 35       		.uleb128 0x35
 1919 0045 00       		.byte	0
 1920 0046 49       		.uleb128 0x49
 1921 0047 13       		.uleb128 0x13
 1922 0048 00       		.byte	0
 1923 0049 00       		.byte	0
 1924 004a 07       		.uleb128 0x7
 1925 004b 0F       		.uleb128 0xf
 1926 004c 00       		.byte	0
 1927 004d 0B       		.uleb128 0xb
 1928 004e 0B       		.uleb128 0xb
 1929 004f 49       		.uleb128 0x49
 1930 0050 13       		.uleb128 0x13
 1931 0051 00       		.byte	0
 1932 0052 00       		.byte	0
 1933 0053 08       		.uleb128 0x8
 1934 0054 04       		.uleb128 0x4
 1935 0055 01       		.byte	0x1
 1936 0056 0B       		.uleb128 0xb
ARM GAS  C:\Users\ANDREW~1\AppData\Local\Temp\cc7eSGyA.s 			page 42


 1937 0057 0B       		.uleb128 0xb
 1938 0058 3A       		.uleb128 0x3a
 1939 0059 0B       		.uleb128 0xb
 1940 005a 3B       		.uleb128 0x3b
 1941 005b 05       		.uleb128 0x5
 1942 005c 01       		.uleb128 0x1
 1943 005d 13       		.uleb128 0x13
 1944 005e 00       		.byte	0
 1945 005f 00       		.byte	0
 1946 0060 09       		.uleb128 0x9
 1947 0061 28       		.uleb128 0x28
 1948 0062 00       		.byte	0
 1949 0063 03       		.uleb128 0x3
 1950 0064 0E       		.uleb128 0xe
 1951 0065 1C       		.uleb128 0x1c
 1952 0066 0D       		.uleb128 0xd
 1953 0067 00       		.byte	0
 1954 0068 00       		.byte	0
 1955 0069 0A       		.uleb128 0xa
 1956 006a 13       		.uleb128 0x13
 1957 006b 01       		.byte	0x1
 1958 006c 0B       		.uleb128 0xb
 1959 006d 0B       		.uleb128 0xb
 1960 006e 3A       		.uleb128 0x3a
 1961 006f 0B       		.uleb128 0xb
 1962 0070 3B       		.uleb128 0x3b
 1963 0071 05       		.uleb128 0x5
 1964 0072 01       		.uleb128 0x1
 1965 0073 13       		.uleb128 0x13
 1966 0074 00       		.byte	0
 1967 0075 00       		.byte	0
 1968 0076 0B       		.uleb128 0xb
 1969 0077 0D       		.uleb128 0xd
 1970 0078 00       		.byte	0
 1971 0079 03       		.uleb128 0x3
 1972 007a 0E       		.uleb128 0xe
 1973 007b 3A       		.uleb128 0x3a
 1974 007c 0B       		.uleb128 0xb
 1975 007d 3B       		.uleb128 0x3b
 1976 007e 05       		.uleb128 0x5
 1977 007f 49       		.uleb128 0x49
 1978 0080 13       		.uleb128 0x13
 1979 0081 38       		.uleb128 0x38
 1980 0082 0B       		.uleb128 0xb
 1981 0083 00       		.byte	0
 1982 0084 00       		.byte	0
 1983 0085 0C       		.uleb128 0xc
 1984 0086 0D       		.uleb128 0xd
 1985 0087 00       		.byte	0
 1986 0088 03       		.uleb128 0x3
 1987 0089 08       		.uleb128 0x8
 1988 008a 3A       		.uleb128 0x3a
 1989 008b 0B       		.uleb128 0xb
 1990 008c 3B       		.uleb128 0x3b
 1991 008d 05       		.uleb128 0x5
 1992 008e 49       		.uleb128 0x49
 1993 008f 13       		.uleb128 0x13
ARM GAS  C:\Users\ANDREW~1\AppData\Local\Temp\cc7eSGyA.s 			page 43


 1994 0090 38       		.uleb128 0x38
 1995 0091 0B       		.uleb128 0xb
 1996 0092 00       		.byte	0
 1997 0093 00       		.byte	0
 1998 0094 0D       		.uleb128 0xd
 1999 0095 13       		.uleb128 0x13
 2000 0096 01       		.byte	0x1
 2001 0097 0B       		.uleb128 0xb
 2002 0098 0B       		.uleb128 0xb
 2003 0099 3A       		.uleb128 0x3a
 2004 009a 0B       		.uleb128 0xb
 2005 009b 3B       		.uleb128 0x3b
 2006 009c 0B       		.uleb128 0xb
 2007 009d 01       		.uleb128 0x1
 2008 009e 13       		.uleb128 0x13
 2009 009f 00       		.byte	0
 2010 00a0 00       		.byte	0
 2011 00a1 0E       		.uleb128 0xe
 2012 00a2 0D       		.uleb128 0xd
 2013 00a3 00       		.byte	0
 2014 00a4 03       		.uleb128 0x3
 2015 00a5 0E       		.uleb128 0xe
 2016 00a6 3A       		.uleb128 0x3a
 2017 00a7 0B       		.uleb128 0xb
 2018 00a8 3B       		.uleb128 0x3b
 2019 00a9 0B       		.uleb128 0xb
 2020 00aa 49       		.uleb128 0x49
 2021 00ab 13       		.uleb128 0x13
 2022 00ac 38       		.uleb128 0x38
 2023 00ad 0B       		.uleb128 0xb
 2024 00ae 00       		.byte	0
 2025 00af 00       		.byte	0
 2026 00b0 0F       		.uleb128 0xf
 2027 00b1 2E       		.uleb128 0x2e
 2028 00b2 01       		.byte	0x1
 2029 00b3 3F       		.uleb128 0x3f
 2030 00b4 19       		.uleb128 0x19
 2031 00b5 03       		.uleb128 0x3
 2032 00b6 0E       		.uleb128 0xe
 2033 00b7 3A       		.uleb128 0x3a
 2034 00b8 0B       		.uleb128 0xb
 2035 00b9 3B       		.uleb128 0x3b
 2036 00ba 0B       		.uleb128 0xb
 2037 00bb 27       		.uleb128 0x27
 2038 00bc 19       		.uleb128 0x19
 2039 00bd 11       		.uleb128 0x11
 2040 00be 01       		.uleb128 0x1
 2041 00bf 12       		.uleb128 0x12
 2042 00c0 06       		.uleb128 0x6
 2043 00c1 40       		.uleb128 0x40
 2044 00c2 18       		.uleb128 0x18
 2045 00c3 9642     		.uleb128 0x2116
 2046 00c5 19       		.uleb128 0x19
 2047 00c6 01       		.uleb128 0x1
 2048 00c7 13       		.uleb128 0x13
 2049 00c8 00       		.byte	0
 2050 00c9 00       		.byte	0
ARM GAS  C:\Users\ANDREW~1\AppData\Local\Temp\cc7eSGyA.s 			page 44


 2051 00ca 10       		.uleb128 0x10
 2052 00cb 05       		.uleb128 0x5
 2053 00cc 00       		.byte	0
 2054 00cd 03       		.uleb128 0x3
 2055 00ce 0E       		.uleb128 0xe
 2056 00cf 3A       		.uleb128 0x3a
 2057 00d0 0B       		.uleb128 0xb
 2058 00d1 3B       		.uleb128 0x3b
 2059 00d2 0B       		.uleb128 0xb
 2060 00d3 49       		.uleb128 0x49
 2061 00d4 13       		.uleb128 0x13
 2062 00d5 02       		.uleb128 0x2
 2063 00d6 18       		.uleb128 0x18
 2064 00d7 00       		.byte	0
 2065 00d8 00       		.byte	0
 2066 00d9 11       		.uleb128 0x11
 2067 00da 34       		.uleb128 0x34
 2068 00db 00       		.byte	0
 2069 00dc 03       		.uleb128 0x3
 2070 00dd 08       		.uleb128 0x8
 2071 00de 3A       		.uleb128 0x3a
 2072 00df 0B       		.uleb128 0xb
 2073 00e0 3B       		.uleb128 0x3b
 2074 00e1 0B       		.uleb128 0xb
 2075 00e2 49       		.uleb128 0x49
 2076 00e3 13       		.uleb128 0x13
 2077 00e4 02       		.uleb128 0x2
 2078 00e5 18       		.uleb128 0x18
 2079 00e6 00       		.byte	0
 2080 00e7 00       		.byte	0
 2081 00e8 12       		.uleb128 0x12
 2082 00e9 0B       		.uleb128 0xb
 2083 00ea 01       		.byte	0x1
 2084 00eb 11       		.uleb128 0x11
 2085 00ec 01       		.uleb128 0x1
 2086 00ed 12       		.uleb128 0x12
 2087 00ee 06       		.uleb128 0x6
 2088 00ef 00       		.byte	0
 2089 00f0 00       		.byte	0
 2090 00f1 13       		.uleb128 0x13
 2091 00f2 34       		.uleb128 0x34
 2092 00f3 00       		.byte	0
 2093 00f4 03       		.uleb128 0x3
 2094 00f5 0E       		.uleb128 0xe
 2095 00f6 3A       		.uleb128 0x3a
 2096 00f7 0B       		.uleb128 0xb
 2097 00f8 3B       		.uleb128 0x3b
 2098 00f9 0B       		.uleb128 0xb
 2099 00fa 49       		.uleb128 0x49
 2100 00fb 13       		.uleb128 0x13
 2101 00fc 02       		.uleb128 0x2
 2102 00fd 18       		.uleb128 0x18
 2103 00fe 00       		.byte	0
 2104 00ff 00       		.byte	0
 2105 0100 14       		.uleb128 0x14
 2106 0101 01       		.uleb128 0x1
 2107 0102 01       		.byte	0x1
ARM GAS  C:\Users\ANDREW~1\AppData\Local\Temp\cc7eSGyA.s 			page 45


 2108 0103 49       		.uleb128 0x49
 2109 0104 13       		.uleb128 0x13
 2110 0105 01       		.uleb128 0x1
 2111 0106 13       		.uleb128 0x13
 2112 0107 00       		.byte	0
 2113 0108 00       		.byte	0
 2114 0109 15       		.uleb128 0x15
 2115 010a 21       		.uleb128 0x21
 2116 010b 00       		.byte	0
 2117 010c 49       		.uleb128 0x49
 2118 010d 13       		.uleb128 0x13
 2119 010e 2F       		.uleb128 0x2f
 2120 010f 0B       		.uleb128 0xb
 2121 0110 00       		.byte	0
 2122 0111 00       		.byte	0
 2123 0112 16       		.uleb128 0x16
 2124 0113 2E       		.uleb128 0x2e
 2125 0114 01       		.byte	0x1
 2126 0115 3F       		.uleb128 0x3f
 2127 0116 19       		.uleb128 0x19
 2128 0117 03       		.uleb128 0x3
 2129 0118 0E       		.uleb128 0xe
 2130 0119 3A       		.uleb128 0x3a
 2131 011a 0B       		.uleb128 0xb
 2132 011b 3B       		.uleb128 0x3b
 2133 011c 0B       		.uleb128 0xb
 2134 011d 11       		.uleb128 0x11
 2135 011e 01       		.uleb128 0x1
 2136 011f 12       		.uleb128 0x12
 2137 0120 06       		.uleb128 0x6
 2138 0121 40       		.uleb128 0x40
 2139 0122 18       		.uleb128 0x18
 2140 0123 9642     		.uleb128 0x2116
 2141 0125 19       		.uleb128 0x19
 2142 0126 01       		.uleb128 0x1
 2143 0127 13       		.uleb128 0x13
 2144 0128 00       		.byte	0
 2145 0129 00       		.byte	0
 2146 012a 17       		.uleb128 0x17
 2147 012b 05       		.uleb128 0x5
 2148 012c 00       		.byte	0
 2149 012d 03       		.uleb128 0x3
 2150 012e 08       		.uleb128 0x8
 2151 012f 3A       		.uleb128 0x3a
 2152 0130 0B       		.uleb128 0xb
 2153 0131 3B       		.uleb128 0x3b
 2154 0132 0B       		.uleb128 0xb
 2155 0133 49       		.uleb128 0x49
 2156 0134 13       		.uleb128 0x13
 2157 0135 02       		.uleb128 0x2
 2158 0136 18       		.uleb128 0x18
 2159 0137 00       		.byte	0
 2160 0138 00       		.byte	0
 2161 0139 18       		.uleb128 0x18
 2162 013a 2E       		.uleb128 0x2e
 2163 013b 00       		.byte	0
 2164 013c 3F       		.uleb128 0x3f
ARM GAS  C:\Users\ANDREW~1\AppData\Local\Temp\cc7eSGyA.s 			page 46


 2165 013d 19       		.uleb128 0x19
 2166 013e 03       		.uleb128 0x3
 2167 013f 0E       		.uleb128 0xe
 2168 0140 3A       		.uleb128 0x3a
 2169 0141 0B       		.uleb128 0xb
 2170 0142 3B       		.uleb128 0x3b
 2171 0143 05       		.uleb128 0x5
 2172 0144 27       		.uleb128 0x27
 2173 0145 19       		.uleb128 0x19
 2174 0146 11       		.uleb128 0x11
 2175 0147 01       		.uleb128 0x1
 2176 0148 12       		.uleb128 0x12
 2177 0149 06       		.uleb128 0x6
 2178 014a 40       		.uleb128 0x40
 2179 014b 18       		.uleb128 0x18
 2180 014c 9742     		.uleb128 0x2117
 2181 014e 19       		.uleb128 0x19
 2182 014f 00       		.byte	0
 2183 0150 00       		.byte	0
 2184 0151 19       		.uleb128 0x19
 2185 0152 34       		.uleb128 0x34
 2186 0153 00       		.byte	0
 2187 0154 03       		.uleb128 0x3
 2188 0155 0E       		.uleb128 0xe
 2189 0156 3A       		.uleb128 0x3a
 2190 0157 0B       		.uleb128 0xb
 2191 0158 3B       		.uleb128 0x3b
 2192 0159 05       		.uleb128 0x5
 2193 015a 49       		.uleb128 0x49
 2194 015b 13       		.uleb128 0x13
 2195 015c 3F       		.uleb128 0x3f
 2196 015d 19       		.uleb128 0x19
 2197 015e 3C       		.uleb128 0x3c
 2198 015f 19       		.uleb128 0x19
 2199 0160 00       		.byte	0
 2200 0161 00       		.byte	0
 2201 0162 1A       		.uleb128 0x1a
 2202 0163 34       		.uleb128 0x34
 2203 0164 00       		.byte	0
 2204 0165 03       		.uleb128 0x3
 2205 0166 0E       		.uleb128 0xe
 2206 0167 3A       		.uleb128 0x3a
 2207 0168 0B       		.uleb128 0xb
 2208 0169 3B       		.uleb128 0x3b
 2209 016a 0B       		.uleb128 0xb
 2210 016b 49       		.uleb128 0x49
 2211 016c 13       		.uleb128 0x13
 2212 016d 3F       		.uleb128 0x3f
 2213 016e 19       		.uleb128 0x19
 2214 016f 3C       		.uleb128 0x3c
 2215 0170 19       		.uleb128 0x19
 2216 0171 00       		.byte	0
 2217 0172 00       		.byte	0
 2218 0173 00       		.byte	0
 2219              		.section	.debug_aranges,"",%progbits
 2220 0000 64000000 		.4byte	0x64
 2221 0004 0200     		.2byte	0x2
ARM GAS  C:\Users\ANDREW~1\AppData\Local\Temp\cc7eSGyA.s 			page 47


 2222 0006 00000000 		.4byte	.Ldebug_info0
 2223 000a 04       		.byte	0x4
 2224 000b 00       		.byte	0
 2225 000c 0000     		.2byte	0
 2226 000e 0000     		.2byte	0
 2227 0010 00000000 		.4byte	.LFB37
 2228 0014 D8000000 		.4byte	.LFE37-.LFB37
 2229 0018 00000000 		.4byte	.LFB38
 2230 001c 50010000 		.4byte	.LFE38-.LFB38
 2231 0020 00000000 		.4byte	.LFB39
 2232 0024 C4000000 		.4byte	.LFE39-.LFB39
 2233 0028 00000000 		.4byte	.LFB40
 2234 002c A8000000 		.4byte	.LFE40-.LFB40
 2235 0030 00000000 		.4byte	.LFB41
 2236 0034 98000000 		.4byte	.LFE41-.LFB41
 2237 0038 00000000 		.4byte	.LFB42
 2238 003c 98000000 		.4byte	.LFE42-.LFB42
 2239 0040 00000000 		.4byte	.LFB43
 2240 0044 58000000 		.4byte	.LFE43-.LFB43
 2241 0048 00000000 		.4byte	.LFB44
 2242 004c 08000000 		.4byte	.LFE44-.LFB44
 2243 0050 00000000 		.4byte	.LFB45
 2244 0054 18000000 		.4byte	.LFE45-.LFB45
 2245 0058 00000000 		.4byte	.LFB46
 2246 005c 18000000 		.4byte	.LFE46-.LFB46
 2247 0060 00000000 		.4byte	0
 2248 0064 00000000 		.4byte	0
 2249              		.section	.debug_ranges,"",%progbits
 2250              	.Ldebug_ranges0:
 2251 0000 00000000 		.4byte	.LFB37
 2252 0004 D8000000 		.4byte	.LFE37
 2253 0008 00000000 		.4byte	.LFB38
 2254 000c 50010000 		.4byte	.LFE38
 2255 0010 00000000 		.4byte	.LFB39
 2256 0014 C4000000 		.4byte	.LFE39
 2257 0018 00000000 		.4byte	.LFB40
 2258 001c A8000000 		.4byte	.LFE40
 2259 0020 00000000 		.4byte	.LFB41
 2260 0024 98000000 		.4byte	.LFE41
 2261 0028 00000000 		.4byte	.LFB42
 2262 002c 98000000 		.4byte	.LFE42
 2263 0030 00000000 		.4byte	.LFB43
 2264 0034 58000000 		.4byte	.LFE43
 2265 0038 00000000 		.4byte	.LFB44
 2266 003c 08000000 		.4byte	.LFE44
 2267 0040 00000000 		.4byte	.LFB45
 2268 0044 18000000 		.4byte	.LFE45
 2269 0048 00000000 		.4byte	.LFB46
 2270 004c 18000000 		.4byte	.LFE46
 2271 0050 00000000 		.4byte	0
 2272 0054 00000000 		.4byte	0
 2273              		.section	.debug_line,"",%progbits
 2274              	.Ldebug_line0:
 2275 0000 24040000 		.section	.debug_str,"MS",%progbits,1
 2275      02002702 
 2275      00000201 
 2275      FB0E0D00 
ARM GAS  C:\Users\ANDREW~1\AppData\Local\Temp\cc7eSGyA.s 			page 48


 2275      01010101 
 2276              	.LASF36:
 2277 0000 4359424C 		.ascii	"CYBLE_ERROR_L2CAP_PSM_NOT_REGISTERED\000"
 2277      455F4552 
 2277      524F525F 
 2277      4C324341 
 2277      505F5053 
 2278              	.LASF35:
 2279 0025 4359424C 		.ascii	"CYBLE_ERROR_L2CAP_PSM_ALREADY_REGISTERED\000"
 2279      455F4552 
 2279      524F525F 
 2279      4C324341 
 2279      505F5053 
 2280              	.LASF58:
 2281 004e 61637475 		.ascii	"actualLen\000"
 2281      616C4C65 
 2281      6E00
 2282              	.LASF81:
 2283 0058 74696D65 		.ascii	"timestamp\000"
 2283      7374616D 
 2283      7000
 2284              	.LASF38:
 2285 0062 4359424C 		.ascii	"CYBLE_ERROR_L2CAP_CHANNEL_NOT_FOUND\000"
 2285      455F4552 
 2285      524F525F 
 2285      4C324341 
 2285      505F4348 
 2286              	.LASF83:
 2287 0086 73656E64 		.ascii	"sendCommand\000"
 2287      436F6D6D 
 2287      616E6400 
 2288              	.LASF19:
 2289 0092 73697A65 		.ascii	"size_t\000"
 2289      5F7400
 2290              	.LASF20:
 2291 0099 73697A65 		.ascii	"sizetype\000"
 2291      74797065 
 2291      00
 2292              	.LASF76:
 2293 00a2 72656164 		.ascii	"readSensor\000"
 2293      53656E73 
 2293      6F7200
 2294              	.LASF21:
 2295 00ad 4359424C 		.ascii	"CYBLE_ERROR_OK\000"
 2295      455F4552 
 2295      524F525F 
 2295      4F4B00
 2296              	.LASF42:
 2297 00bc 4359424C 		.ascii	"CYBLE_ERROR_FLASH_WRITE_NOT_PERMITED\000"
 2297      455F4552 
 2297      524F525F 
 2297      464C4153 
 2297      485F5752 
 2298              	.LASF44:
 2299 00e1 4359424C 		.ascii	"CYBLE_ERROR_HARDWARE_FAILURE\000"
 2299      455F4552 
 2299      524F525F 
ARM GAS  C:\Users\ANDREW~1\AppData\Local\Temp\cc7eSGyA.s 			page 49


 2299      48415244 
 2299      57415245 
 2300              	.LASF9:
 2301 00fe 5F5F7569 		.ascii	"__uint32_t\000"
 2301      6E743332 
 2301      5F7400
 2302              	.LASF43:
 2303 0109 4359424C 		.ascii	"CYBLE_ERROR_MIC_AUTH_FAILED\000"
 2303      455F4552 
 2303      524F525F 
 2303      4D49435F 
 2303      41555448 
 2304              	.LASF54:
 2305 0125 4359424C 		.ascii	"CYBLE_GATT_DB_ATTR_HANDLE_T\000"
 2305      455F4741 
 2305      54545F44 
 2305      425F4154 
 2305      54525F48 
 2306              	.LASF67:
 2307 0141 4359424C 		.ascii	"CYBLE_STATE_STOPPED\000"
 2307      455F5354 
 2307      4154455F 
 2307      53544F50 
 2307      50454400 
 2308              	.LASF22:
 2309 0155 4359424C 		.ascii	"CYBLE_ERROR_INVALID_PARAMETER\000"
 2309      455F4552 
 2309      524F525F 
 2309      494E5641 
 2309      4C49445F 
 2310              	.LASF26:
 2311 0173 4359424C 		.ascii	"CYBLE_ERROR_OOB_NOT_AVAILABLE\000"
 2311      455F4552 
 2311      524F525F 
 2311      4F4F425F 
 2311      4E4F545F 
 2312              	.LASF60:
 2313 0191 76616C75 		.ascii	"value\000"
 2313      6500
 2314              	.LASF69:
 2315 0197 4359424C 		.ascii	"CYBLE_STATE_CONNECTED\000"
 2315      455F5354 
 2315      4154455F 
 2315      434F4E4E 
 2315      45435445 
 2316              	.LASF12:
 2317 01ad 75696E74 		.ascii	"uint16\000"
 2317      313600
 2318              	.LASF23:
 2319 01b4 4359424C 		.ascii	"CYBLE_ERROR_INVALID_OPERATION\000"
 2319      455F4552 
 2319      524F525F 
 2319      494E5641 
 2319      4C49445F 
 2320              	.LASF78:
 2321 01d2 696E6465 		.ascii	"index\000"
 2321      7800
ARM GAS  C:\Users\ANDREW~1\AppData\Local\Temp\cc7eSGyA.s 			page 50


 2322              	.LASF14:
 2323 01d8 696E7431 		.ascii	"int16\000"
 2323      3600
 2324              	.LASF11:
 2325 01de 75696E74 		.ascii	"uint8\000"
 2325      3800
 2326              	.LASF53:
 2327 01e4 4359424C 		.ascii	"CYBLE_API_RESULT_T\000"
 2327      455F4150 
 2327      495F5245 
 2327      53554C54 
 2327      5F5400
 2328              	.LASF93:
 2329 01f7 6379426C 		.ascii	"cyBle_connHandle\000"
 2329      655F636F 
 2329      6E6E4861 
 2329      6E646C65 
 2329      00
 2330              	.LASF2:
 2331 0208 73686F72 		.ascii	"short int\000"
 2331      7420696E 
 2331      7400
 2332              	.LASF55:
 2333 0212 62644861 		.ascii	"bdHandle\000"
 2333      6E646C65 
 2333      00
 2334              	.LASF31:
 2335 021b 4359424C 		.ascii	"CYBLE_ERROR_TX_POWER_READ\000"
 2335      455F4552 
 2335      524F525F 
 2335      54585F50 
 2335      4F574552 
 2336              	.LASF25:
 2337 0235 4359424C 		.ascii	"CYBLE_ERROR_INSUFFICIENT_RESOURCES\000"
 2337      455F4552 
 2337      524F525F 
 2337      494E5355 
 2337      46464943 
 2338              	.LASF15:
 2339 0258 666C6F61 		.ascii	"float\000"
 2339      7400
 2340              	.LASF70:
 2341 025e 4359424C 		.ascii	"CYBLE_STATE_SCANNING\000"
 2341      455F5354 
 2341      4154455F 
 2341      5343414E 
 2341      4E494E47 
 2342              	.LASF6:
 2343 0273 6C6F6E67 		.ascii	"long long int\000"
 2343      206C6F6E 
 2343      6720696E 
 2343      7400
 2344              	.LASF32:
 2345 0281 4359424C 		.ascii	"CYBLE_ERROR_BT_ON_NOT_COMPLETED\000"
 2345      455F4552 
 2345      524F525F 
 2345      42545F4F 
ARM GAS  C:\Users\ANDREW~1\AppData\Local\Temp\cc7eSGyA.s 			page 51


 2345      4E5F4E4F 
 2346              	.LASF65:
 2347 02a1 68616E64 		.ascii	"handleValPair\000"
 2347      6C655661 
 2347      6C506169 
 2347      7200
 2348              	.LASF4:
 2349 02af 6C6F6E67 		.ascii	"long int\000"
 2349      20696E74 
 2349      00
 2350              	.LASF99:
 2351 02b8 72656164 		.ascii	"readSensorBitVal\000"
 2351      53656E73 
 2351      6F724269 
 2351      7456616C 
 2351      00
 2352              	.LASF27:
 2353 02c9 4359424C 		.ascii	"CYBLE_ERROR_NO_CONNECTION\000"
 2353      455F4552 
 2353      524F525F 
 2353      4E4F5F43 
 2353      4F4E4E45 
 2354              	.LASF91:
 2355 02e3 456E6162 		.ascii	"EnableUartRxInt\000"
 2355      6C655561 
 2355      72745278 
 2355      496E7400 
 2356              	.LASF98:
 2357 02f3 433A5C55 		.ascii	"C:\\Users\\Andrew Joseph\\Desktop\\Senior Design\\t"
 2357      73657273 
 2357      5C416E64 
 2357      72657720 
 2357      4A6F7365 
 2358 0321 72756E6B 		.ascii	"runk\\src\\PSoC_Core\\fNIR PSoC Central\\fNIR PSoC "
 2358      5C737263 
 2358      5C50536F 
 2358      435F436F 
 2358      72655C66 
 2359 0350 43656E74 		.ascii	"Central.cydsn\000"
 2359      72616C2E 
 2359      63796473 
 2359      6E00
 2360              	.LASF88:
 2361 035e 6269745F 		.ascii	"bit_to_str\000"
 2361      746F5F73 
 2361      747200
 2362              	.LASF29:
 2363 0369 4359424C 		.ascii	"CYBLE_ERROR_REPEATED_ATTEMPTS\000"
 2363      455F4552 
 2363      524F525F 
 2363      52455045 
 2363      41544544 
 2364              	.LASF94:
 2365 0387 4144435F 		.ascii	"ADC_offset\000"
 2365      6F666673 
 2365      657400
 2366              	.LASF87:
ARM GAS  C:\Users\ANDREW~1\AppData\Local\Temp\cc7eSGyA.s 			page 52


 2367 0392 64696769 		.ascii	"digits\000"
 2367      747300
 2368              	.LASF63:
 2369 0399 4359424C 		.ascii	"CYBLE_GATTC_WRITE_CMD_REQ_T\000"
 2369      455F4741 
 2369      5454435F 
 2369      57524954 
 2369      455F434D 
 2370              	.LASF28:
 2371 03b5 4359424C 		.ascii	"CYBLE_ERROR_NO_DEVICE_ENTITY\000"
 2371      455F4552 
 2371      524F525F 
 2371      4E4F5F44 
 2371      45564943 
 2372              	.LASF66:
 2373 03d2 4359424C 		.ascii	"CYBLE_GATTC_HANDLE_VALUE_NTF_PARAM_T\000"
 2373      455F4741 
 2373      5454435F 
 2373      48414E44 
 2373      4C455F56 
 2374              	.LASF1:
 2375 03f7 756E7369 		.ascii	"unsigned char\000"
 2375      676E6564 
 2375      20636861 
 2375      7200
 2376              	.LASF46:
 2377 0405 4359424C 		.ascii	"CYBLE_ERROR_FLASH_WRITE\000"
 2377      455F4552 
 2377      524F525F 
 2377      464C4153 
 2377      485F5752 
 2378              	.LASF92:
 2379 041d 6379426C 		.ascii	"cyBle_state\000"
 2379      655F7374 
 2379      61746500 
 2380              	.LASF0:
 2381 0429 7369676E 		.ascii	"signed char\000"
 2381      65642063 
 2381      68617200 
 2382              	.LASF7:
 2383 0435 6C6F6E67 		.ascii	"long long unsigned int\000"
 2383      206C6F6E 
 2383      6720756E 
 2383      7369676E 
 2383      65642069 
 2384              	.LASF33:
 2385 044c 4359424C 		.ascii	"CYBLE_ERROR_SEC_FAILED\000"
 2385      455F4552 
 2385      524F525F 
 2385      5345435F 
 2385      4641494C 
 2386              	.LASF30:
 2387 0463 4359424C 		.ascii	"CYBLE_ERROR_GAP_ROLE\000"
 2387      455F4552 
 2387      524F525F 
 2387      4741505F 
 2387      524F4C45 
ARM GAS  C:\Users\ANDREW~1\AppData\Local\Temp\cc7eSGyA.s 			page 53


 2388              	.LASF8:
 2389 0478 756E7369 		.ascii	"unsigned int\000"
 2389      676E6564 
 2389      20696E74 
 2389      00
 2390              	.LASF34:
 2391 0485 4359424C 		.ascii	"CYBLE_ERROR_L2CAP_PSM_WRONG_ENCODING\000"
 2391      455F4552 
 2391      524F525F 
 2391      4C324341 
 2391      505F5053 
 2392              	.LASF72:
 2393 04aa 4359424C 		.ascii	"CYBLE_STATE_DISCONNECTED\000"
 2393      455F5354 
 2393      4154455F 
 2393      44495343 
 2393      4F4E4E45 
 2394              	.LASF73:
 2395 04c3 4359424C 		.ascii	"CYBLE_STATE_T\000"
 2395      455F5354 
 2395      4154455F 
 2395      5400
 2396              	.LASF64:
 2397 04d1 636F6E6E 		.ascii	"connHandle\000"
 2397      48616E64 
 2397      6C6500
 2398              	.LASF18:
 2399 04dc 72656733 		.ascii	"reg32\000"
 2399      3200
 2400              	.LASF51:
 2401 04e2 4359424C 		.ascii	"CYBLE_ERROR_CHAR_IS_NOT_DISCOVERED\000"
 2401      455F4552 
 2401      524F525F 
 2401      43484152 
 2401      5F49535F 
 2402              	.LASF3:
 2403 0505 73686F72 		.ascii	"short unsigned int\000"
 2403      7420756E 
 2403      7369676E 
 2403      65642069 
 2403      6E7400
 2404              	.LASF95:
 2405 0518 72784368 		.ascii	"rxCharHandle\000"
 2405      61724861 
 2405      6E646C65 
 2405      00
 2406              	.LASF17:
 2407 0525 63686172 		.ascii	"char\000"
 2407      00
 2408              	.LASF77:
 2409 052a 75617274 		.ascii	"uartRxDataNotification\000"
 2409      52784461 
 2409      74614E6F 
 2409      74696669 
 2409      63617469 
 2410              	.LASF59:
 2411 0541 4359424C 		.ascii	"CYBLE_GATT_VALUE_T\000"
ARM GAS  C:\Users\ANDREW~1\AppData\Local\Temp\cc7eSGyA.s 			page 54


 2411      455F4741 
 2411      54545F56 
 2411      414C5545 
 2411      5F5400
 2412              	.LASF96:
 2413 0554 474E5520 		.ascii	"GNU C 4.9.3 20150303 (release) [ARM/embedded-4_9-br"
 2413      4320342E 
 2413      392E3320 
 2413      32303135 
 2413      30333033 
 2414 0587 616E6368 		.ascii	"anch revision 221220] -mcpu=cortex-m0 -mthumb -g -O"
 2414      20726576 
 2414      6973696F 
 2414      6E203232 
 2414      31323230 
 2415 05ba 30202D66 		.ascii	"0 -ffunction-sections -ffat-lto-objects\000"
 2415      66756E63 
 2415      74696F6E 
 2415      2D736563 
 2415      74696F6E 
 2416              	.LASF47:
 2417 05e2 4359424C 		.ascii	"CYBLE_ERROR_CONTROLLER_BUSY\000"
 2417      455F4552 
 2417      524F525F 
 2417      434F4E54 
 2417      524F4C4C 
 2418              	.LASF68:
 2419 05fe 4359424C 		.ascii	"CYBLE_STATE_INITIALIZING\000"
 2419      455F5354 
 2419      4154455F 
 2419      494E4954 
 2419      49414C49 
 2420              	.LASF97:
 2421 0617 6170705F 		.ascii	"app_UART.c\000"
 2421      55415254 
 2421      2E6300
 2422              	.LASF24:
 2423 0622 4359424C 		.ascii	"CYBLE_ERROR_MEMORY_ALLOCATION_FAILED\000"
 2423      455F4552 
 2423      524F525F 
 2423      4D454D4F 
 2423      52595F41 
 2424              	.LASF75:
 2425 0647 48616E64 		.ascii	"HandleUartRxTraffic\000"
 2425      6C655561 
 2425      72745278 
 2425      54726166 
 2425      66696300 
 2426              	.LASF45:
 2427 065b 4359424C 		.ascii	"CYBLE_ERROR_UNSUPPORTED_FEATURE_OR_PARAMETER_VALUE\000"
 2427      455F4552 
 2427      524F525F 
 2427      554E5355 
 2427      50504F52 
 2428              	.LASF10:
 2429 068e 75696E74 		.ascii	"uint32_t\000"
 2429      33325F74 
ARM GAS  C:\Users\ANDREW~1\AppData\Local\Temp\cc7eSGyA.s 			page 55


 2429      00
 2430              	.LASF13:
 2431 0697 75696E74 		.ascii	"uint32\000"
 2431      333200
 2432              	.LASF80:
 2433 069e 77726974 		.ascii	"writeBuffer\000"
 2433      65427566 
 2433      66657200 
 2434              	.LASF5:
 2435 06aa 6C6F6E67 		.ascii	"long unsigned int\000"
 2435      20756E73 
 2435      69676E65 
 2435      6420696E 
 2435      7400
 2436              	.LASF61:
 2437 06bc 61747472 		.ascii	"attrHandle\000"
 2437      48616E64 
 2437      6C6500
 2438              	.LASF16:
 2439 06c7 646F7562 		.ascii	"double\000"
 2439      6C6500
 2440              	.LASF89:
 2441 06ce 48616E64 		.ascii	"HandleUartTxTraffic\000"
 2441      6C655561 
 2441      72745478 
 2441      54726166 
 2441      66696300 
 2442              	.LASF57:
 2443 06e2 4359424C 		.ascii	"CYBLE_CONN_HANDLE_T\000"
 2443      455F434F 
 2443      4E4E5F48 
 2443      414E444C 
 2443      455F5400 
 2444              	.LASF62:
 2445 06f6 4359424C 		.ascii	"CYBLE_GATT_HANDLE_VALUE_PAIR_T\000"
 2445      455F4741 
 2445      54545F48 
 2445      414E444C 
 2445      455F5641 
 2446              	.LASF90:
 2447 0715 44697361 		.ascii	"DisableUartRxInt\000"
 2447      626C6555 
 2447      61727452 
 2447      78496E74 
 2447      00
 2448              	.LASF39:
 2449 0726 4359424C 		.ascii	"CYBLE_ERROR_L2CAP_PSM_NOT_IN_RANGE\000"
 2449      455F4552 
 2449      524F525F 
 2449      4C324341 
 2449      505F5053 
 2450              	.LASF79:
 2451 0749 636F756E 		.ascii	"count\000"
 2451      7400
 2452              	.LASF49:
 2453 074f 4359424C 		.ascii	"CYBLE_ERROR_NTF_DISABLED\000"
 2453      455F4552 
ARM GAS  C:\Users\ANDREW~1\AppData\Local\Temp\cc7eSGyA.s 			page 56


 2453      524F525F 
 2453      4E54465F 
 2453      44495341 
 2454              	.LASF41:
 2455 0768 4359424C 		.ascii	"CYBLE_ERROR_DEVICE_ALREADY_EXISTS\000"
 2455      455F4552 
 2455      524F525F 
 2455      44455649 
 2455      43455F41 
 2456              	.LASF82:
 2457 078a 73776974 		.ascii	"switchLED\000"
 2457      63684C45 
 2457      4400
 2458              	.LASF48:
 2459 0794 4359424C 		.ascii	"CYBLE_ERROR_MAX\000"
 2459      455F4552 
 2459      524F525F 
 2459      4D415800 
 2460              	.LASF52:
 2461 07a4 4359424C 		.ascii	"CYBLE_ERROR_INVALID_STATE\000"
 2461      455F4552 
 2461      524F525F 
 2461      494E5641 
 2461      4C49445F 
 2462              	.LASF74:
 2463 07be 56414C31 		.ascii	"VAL1\000"
 2463      00
 2464              	.LASF40:
 2465 07c3 4359424C 		.ascii	"CYBLE_ERROR_GATT_DB_INVALID_ATTR_HANDLE\000"
 2465      455F4552 
 2465      524F525F 
 2465      47415454 
 2465      5F44425F 
 2466              	.LASF37:
 2467 07eb 4359424C 		.ascii	"CYBLE_ERROR_L2CAP_CONNECTION_ENTITY_NOT_FOUND\000"
 2467      455F4552 
 2467      524F525F 
 2467      4C324341 
 2467      505F434F 
 2468              	.LASF86:
 2469 0819 6465635F 		.ascii	"dec_to_str\000"
 2469      746F5F73 
 2469      747200
 2470              	.LASF50:
 2471 0824 4359424C 		.ascii	"CYBLE_ERROR_IND_DISABLED\000"
 2471      455F4552 
 2471      524F525F 
 2471      494E445F 
 2471      44495341 
 2472              	.LASF85:
 2473 083d 75617274 		.ascii	"uartTxDataWriteCmd\000"
 2473      54784461 
 2473      74615772 
 2473      69746543 
 2473      6D6400
 2474              	.LASF71:
 2475 0850 4359424C 		.ascii	"CYBLE_STATE_CONNECTING\000"
ARM GAS  C:\Users\ANDREW~1\AppData\Local\Temp\cc7eSGyA.s 			page 57


 2475      455F5354 
 2475      4154455F 
 2475      434F4E4E 
 2475      45435449 
 2476              	.LASF84:
 2477 0867 626C6541 		.ascii	"bleApiResult\000"
 2477      70695265 
 2477      73756C74 
 2477      00
 2478              	.LASF56:
 2479 0874 61747449 		.ascii	"attId\000"
 2479      6400
 2480              		.ident	"GCC: (GNU Tools for ARM Embedded Processors) 4.9.3 20150303 (release) [ARM/embedded-4_9-br
