ARM GAS  C:\Users\ANDREW~1\AppData\Local\Temp\ccGsmwk5.s 			page 1


   1              		.cpu cortex-m0
   2              		.fpu softvfp
   3              		.eabi_attribute 20, 1
   4              		.eabi_attribute 21, 1
   5              		.eabi_attribute 23, 3
   6              		.eabi_attribute 24, 1
   7              		.eabi_attribute 25, 1
   8              		.eabi_attribute 26, 1
   9              		.eabi_attribute 30, 6
  10              		.eabi_attribute 34, 0
  11              		.eabi_attribute 18, 4
  12              		.code	16
  13              		.file	"app_UART.c"
  14              		.text
  15              	.Ltext0:
  16              		.cfi_sections	.debug_frame
  17              		.section	.text.HandleUartRxTraffic,"ax",%progbits
  18              		.align	2
  19              		.global	HandleUartRxTraffic
  20              		.code	16
  21              		.thumb_func
  22              		.type	HandleUartRxTraffic, %function
  23              	HandleUartRxTraffic:
  24              	.LFB37:
  25              		.file 1 "app_UART.c"
   1:app_UART.c    **** /*******************************************************************************
   2:app_UART.c    **** * File Name: app_UART.c
   3:app_UART.c    **** *
   4:app_UART.c    **** * Description:
   5:app_UART.c    **** *  Common BLE application code for client devices.
   6:app_UART.c    **** *
   7:app_UART.c    **** *******************************************************************************
   8:app_UART.c    **** * Copyright 2015, Cypress Semiconductor Corporation.  All rights reserved.
   9:app_UART.c    **** * You may use this file only in accordance with the license, terms, conditions,
  10:app_UART.c    **** * disclaimers, and limitations in the end user license agreement accompanying
  11:app_UART.c    **** * the software package with which this file was provided.
  12:app_UART.c    **** *******************************************************************************/
  13:app_UART.c    **** 
  14:app_UART.c    **** #include "app_UART.h"
  15:app_UART.c    **** 
  16:app_UART.c    **** 
  17:app_UART.c    **** /*******************************************************************************
  18:app_UART.c    **** * Function Name: HandleUartRxTraffic
  19:app_UART.c    **** ********************************************************************************
  20:app_UART.c    **** *
  21:app_UART.c    **** * Summary:
  22:app_UART.c    **** *  This function takes data from received notfications and pushes it to the 
  23:app_UART.c    **** *  UART TX buffer. 
  24:app_UART.c    **** *
  25:app_UART.c    **** * Parameters:
  26:app_UART.c    **** *  CYBLE_GATTC_HANDLE_VALUE_NTF_PARAM_T * - the notification parameter as  
  27:app_UART.c    **** *                                           recieved by the BLE stack
  28:app_UART.c    **** *
  29:app_UART.c    **** * Return:
  30:app_UART.c    **** *   None.
  31:app_UART.c    **** *
  32:app_UART.c    **** *******************************************************************************/
ARM GAS  C:\Users\ANDREW~1\AppData\Local\Temp\ccGsmwk5.s 			page 2


  33:app_UART.c    **** void HandleUartRxTraffic(CYBLE_GATTC_HANDLE_VALUE_NTF_PARAM_T *uartRxDataNotification)
  34:app_UART.c    **** {    
  26              		.loc 1 34 0
  27              		.cfi_startproc
  28 0000 80B5     		push	{r7, lr}
  29              		.cfi_def_cfa_offset 8
  30              		.cfi_offset 7, -8
  31              		.cfi_offset 14, -4
  32 0002 92B0     		sub	sp, sp, #72
  33              		.cfi_def_cfa_offset 80
  34 0004 00AF     		add	r7, sp, #0
  35              		.cfi_def_cfa_register 7
  36 0006 7860     		str	r0, [r7, #4]
  35:app_UART.c    ****     unsigned char *x =  uartRxDataNotification->handleValPair.value.val;
  37              		.loc 1 35 0
  38 0008 7B68     		ldr	r3, [r7, #4]
  39 000a 5B68     		ldr	r3, [r3, #4]
  40 000c BB63     		str	r3, [r7, #56]
  36:app_UART.c    ****     
  37:app_UART.c    ****     
  38:app_UART.c    ****            
  39:app_UART.c    ****             
  40:app_UART.c    ****     int l; //Variable for Loop Through Light Source           
  41:app_UART.c    ****     int k; //Variable for Loop Through Sensors
  42:app_UART.c    ****     
  43:app_UART.c    ****     switch (*x)
  41              		.loc 1 43 0
  42 000e BB6B     		ldr	r3, [r7, #56]
  43 0010 1B78     		ldrb	r3, [r3]
  44 0012 722B     		cmp	r3, #114
  45 0014 06D0     		beq	.L3
  46 0016 732B     		cmp	r3, #115
  47 0018 00D1     		bne	.LCB21
  48 001a C2E0     		b	.L4	@long jump
  49              	.LCB21:
  50 001c 6D2B     		cmp	r3, #109
  51 001e 00D1     		bne	.LCB23
  52 0020 C2E0     		b	.L5	@long jump
  53              	.LCB23:
  44:app_UART.c    ****     {
  45:app_UART.c    ****         case 'r':
  46:app_UART.c    ****             for (l = 0; l < 5; l++) //Loop Through Light Source
  47:app_UART.c    ****             {
  48:app_UART.c    ****                 //uint32 channels[4] = {A1, A2, A3_0, A4_0};
  49:app_UART.c    ****                                 
  50:app_UART.c    ****                 uint8 writeBuffer[40]={0x00, 0x00, 0x00, 0x00, 0x00, 0x00, 0x00, 
  51:app_UART.c    ****                 0x00, 0x00, 0x00, 0x00, 0x00, 0x00, 0x00, 0x00, 0x00, 0x00, 
  52:app_UART.c    ****                 0x00, 0x00, 0x00, 0x00, 0x00, 0x00, 0x00, 0x00, 0x00, 0x00,
  53:app_UART.c    ****                 0x00, 0x00, 0x00, 0x00, 0x00, 0x00, 0x00, 0x00, 0x00, 0x00, 0x00, 0x0D, 0x0A};
  54:app_UART.c    ****                 
  55:app_UART.c    ****              
  56:app_UART.c    ****                 switch (l)
  57:app_UART.c    ****                 {
  58:app_UART.c    ****                     case 0: 
  59:app_UART.c    ****                         LED_1_Write(1);
  60:app_UART.c    ****                         break;
  61:app_UART.c    ****                     case 1: 
ARM GAS  C:\Users\ANDREW~1\AppData\Local\Temp\ccGsmwk5.s 			page 3


  62:app_UART.c    ****                         LED_2_Write(1);
  63:app_UART.c    ****                         break;
  64:app_UART.c    ****                     case 2: 
  65:app_UART.c    ****                         LED_3_Write(1);
  66:app_UART.c    ****                         break;
  67:app_UART.c    ****                     case 3: 
  68:app_UART.c    ****                         LED_4_Write(1);
  69:app_UART.c    ****                         break;
  70:app_UART.c    ****                     default:
  71:app_UART.c    ****                         break;
  72:app_UART.c    ****                 }
  73:app_UART.c    ****                 
  74:app_UART.c    ****                 
  75:app_UART.c    ****                 int count = 0; //Place Holder for writeBuffer
  76:app_UART.c    ****                 uint32 timestamp = millis();
  77:app_UART.c    ****                 dec_to_str (&writeBuffer[count], timestamp, 10);
  78:app_UART.c    ****                 writeBuffer[count + 11] = ',';
  79:app_UART.c    ****                 count+=12;
  80:app_UART.c    ****           
  81:app_UART.c    ****                 for (k = 0; k < 4; k++) //Loop Through Sensors
  82:app_UART.c    ****                 {
  83:app_UART.c    ****                     uint16 VAL1=ADC_GetResult16(k);
  84:app_UART.c    ****                     uint8 AV1=ADC_CountsTo_mVolts(0,VAL1);
  85:app_UART.c    ****                     dec_to_str (&writeBuffer[count], AV1, 4);
  86:app_UART.c    ****                     writeBuffer[count + 5] = ',';
  87:app_UART.c    ****                     count+=6;
  88:app_UART.c    ****                 }
  89:app_UART.c    ****                 dec_to_str (&writeBuffer[count], l, 0);
  90:app_UART.c    ****                 sendCommand(writeBuffer);
  91:app_UART.c    ****                 
  92:app_UART.c    ****                 switch (l)
  93:app_UART.c    ****                 {
  94:app_UART.c    ****                     case 0: 
  95:app_UART.c    ****                         LED_1_Write(0);
  96:app_UART.c    ****                         break;
  97:app_UART.c    ****                     case 1: 
  98:app_UART.c    ****                         LED_2_Write(0);
  99:app_UART.c    ****                         break;
 100:app_UART.c    ****                     case 2: 
 101:app_UART.c    ****                         LED_3_Write(0);
 102:app_UART.c    ****                         break;
 103:app_UART.c    ****                     case 3: 
 104:app_UART.c    ****                         LED_4_Write(0);
 105:app_UART.c    ****                         break;
 106:app_UART.c    ****                     default:
 107:app_UART.c    ****                         break;
 108:app_UART.c    ****                 }
 109:app_UART.c    ****             }
 110:app_UART.c    ****             
 111:app_UART.c    ****    
 112:app_UART.c    ****             break;
 113:app_UART.c    ****             
 114:app_UART.c    ****         case 's':
 115:app_UART.c    ****             millis_Reset();
 116:app_UART.c    ****             break;
 117:app_UART.c    ****         case 'm':
 118:app_UART.c    ****             CySoftwareReset();
ARM GAS  C:\Users\ANDREW~1\AppData\Local\Temp\ccGsmwk5.s 			page 4


 119:app_UART.c    ****             break;
 120:app_UART.c    ****         default:
 121:app_UART.c    ****             break;
  54              		.loc 1 121 0
  55 0022 C4E0     		b	.L1
  56              	.L3:
  46:app_UART.c    ****             {
  57              		.loc 1 46 0
  58 0024 0023     		mov	r3, #0
  59 0026 7B64     		str	r3, [r7, #68]
  60 0028 B6E0     		b	.L6
  61              	.L23:
  62              	.LBB2:
  50:app_UART.c    ****                 0x00, 0x00, 0x00, 0x00, 0x00, 0x00, 0x00, 0x00, 0x00, 0x00, 
  63              		.loc 1 50 0
  64 002a 0823     		mov	r3, #8
  65 002c FB18     		add	r3, r7, r3
  66 002e 0022     		mov	r2, #0
  67 0030 1A60     		str	r2, [r3]
  68 0032 0022     		mov	r2, #0
  69 0034 5A60     		str	r2, [r3, #4]
  70 0036 0022     		mov	r2, #0
  71 0038 9A60     		str	r2, [r3, #8]
  72 003a 0022     		mov	r2, #0
  73 003c DA60     		str	r2, [r3, #12]
  74 003e 0022     		mov	r2, #0
  75 0040 1A61     		str	r2, [r3, #16]
  76 0042 0022     		mov	r2, #0
  77 0044 5A61     		str	r2, [r3, #20]
  78 0046 0022     		mov	r2, #0
  79 0048 9A61     		str	r2, [r3, #24]
  80 004a 0022     		mov	r2, #0
  81 004c DA61     		str	r2, [r3, #28]
  82 004e 0022     		mov	r2, #0
  83 0050 1A62     		str	r2, [r3, #32]
  84 0052 0022     		mov	r2, #0
  85 0054 5A62     		str	r2, [r3, #36]
  86 0056 0823     		mov	r3, #8
  87 0058 FB18     		add	r3, r7, r3
  88 005a 2622     		mov	r2, #38
  89 005c 0D21     		mov	r1, #13
  90 005e 9954     		strb	r1, [r3, r2]
  91 0060 0823     		mov	r3, #8
  92 0062 FB18     		add	r3, r7, r3
  93 0064 2722     		mov	r2, #39
  94 0066 0A21     		mov	r1, #10
  95 0068 9954     		strb	r1, [r3, r2]
  56:app_UART.c    ****                 {
  96              		.loc 1 56 0
  97 006a 7B6C     		ldr	r3, [r7, #68]
  98 006c 012B     		cmp	r3, #1
  99 006e 0CD0     		beq	.L8
 100 0070 02DC     		bgt	.L9
 101 0072 002B     		cmp	r3, #0
 102 0074 05D0     		beq	.L10
  71:app_UART.c    ****                 }
 103              		.loc 1 71 0
ARM GAS  C:\Users\ANDREW~1\AppData\Local\Temp\ccGsmwk5.s 			page 5


 104 0076 14E0     		b	.L13
 105              	.L9:
  56:app_UART.c    ****                 {
 106              		.loc 1 56 0
 107 0078 022B     		cmp	r3, #2
 108 007a 0AD0     		beq	.L11
 109 007c 032B     		cmp	r3, #3
 110 007e 0CD0     		beq	.L12
  71:app_UART.c    ****                 }
 111              		.loc 1 71 0
 112 0080 0FE0     		b	.L13
 113              	.L10:
  59:app_UART.c    ****                         break;
 114              		.loc 1 59 0
 115 0082 0120     		mov	r0, #1
 116 0084 FFF7FEFF 		bl	LED_1_Write
  60:app_UART.c    ****                     case 1: 
 117              		.loc 1 60 0
 118 0088 0BE0     		b	.L13
 119              	.L8:
  62:app_UART.c    ****                         break;
 120              		.loc 1 62 0
 121 008a 0120     		mov	r0, #1
 122 008c FFF7FEFF 		bl	LED_2_Write
  63:app_UART.c    ****                     case 2: 
 123              		.loc 1 63 0
 124 0090 07E0     		b	.L13
 125              	.L11:
  65:app_UART.c    ****                         break;
 126              		.loc 1 65 0
 127 0092 0120     		mov	r0, #1
 128 0094 FFF7FEFF 		bl	LED_3_Write
  66:app_UART.c    ****                     case 3: 
 129              		.loc 1 66 0
 130 0098 03E0     		b	.L13
 131              	.L12:
  68:app_UART.c    ****                         break;
 132              		.loc 1 68 0
 133 009a 0120     		mov	r0, #1
 134 009c FFF7FEFF 		bl	LED_4_Write
  69:app_UART.c    ****                     default:
 135              		.loc 1 69 0
 136 00a0 C046     		mov	r8, r8
 137              	.L13:
  75:app_UART.c    ****                 uint32 timestamp = millis();
 138              		.loc 1 75 0
 139 00a2 0023     		mov	r3, #0
 140 00a4 FB63     		str	r3, [r7, #60]
  76:app_UART.c    ****                 dec_to_str (&writeBuffer[count], timestamp, 10);
 141              		.loc 1 76 0
 142 00a6 FFF7FEFF 		bl	millis
 143 00aa 031C     		mov	r3, r0
 144 00ac 7B63     		str	r3, [r7, #52]
  77:app_UART.c    ****                 writeBuffer[count + 11] = ',';
 145              		.loc 1 77 0
 146 00ae 0823     		mov	r3, #8
 147 00b0 FA18     		add	r2, r7, r3
ARM GAS  C:\Users\ANDREW~1\AppData\Local\Temp\ccGsmwk5.s 			page 6


 148 00b2 FB6B     		ldr	r3, [r7, #60]
 149 00b4 D218     		add	r2, r2, r3
 150 00b6 7B6B     		ldr	r3, [r7, #52]
 151 00b8 101C     		mov	r0, r2
 152 00ba 191C     		mov	r1, r3
 153 00bc 0A22     		mov	r2, #10
 154 00be FFF7FEFF 		bl	dec_to_str
  78:app_UART.c    ****                 count+=12;
 155              		.loc 1 78 0
 156 00c2 FB6B     		ldr	r3, [r7, #60]
 157 00c4 0B33     		add	r3, r3, #11
 158 00c6 0822     		mov	r2, #8
 159 00c8 BA18     		add	r2, r7, r2
 160 00ca 2C21     		mov	r1, #44
 161 00cc D154     		strb	r1, [r2, r3]
  79:app_UART.c    ****           
 162              		.loc 1 79 0
 163 00ce FB6B     		ldr	r3, [r7, #60]
 164 00d0 0C33     		add	r3, r3, #12
 165 00d2 FB63     		str	r3, [r7, #60]
  81:app_UART.c    ****                 {
 166              		.loc 1 81 0
 167 00d4 0023     		mov	r3, #0
 168 00d6 3B64     		str	r3, [r7, #64]
 169 00d8 2DE0     		b	.L14
 170              	.L15:
 171              	.LBB3:
  83:app_UART.c    ****                     uint8 AV1=ADC_CountsTo_mVolts(0,VAL1);
 172              		.loc 1 83 0 discriminator 3
 173 00da 3B6C     		ldr	r3, [r7, #64]
 174 00dc 181C     		mov	r0, r3
 175 00de FFF7FEFF 		bl	ADC_GetResult16
 176 00e2 031C     		mov	r3, r0
 177 00e4 1A1C     		mov	r2, r3
 178 00e6 3223     		mov	r3, #50
 179 00e8 FB18     		add	r3, r7, r3
 180 00ea 1A80     		strh	r2, [r3]
  84:app_UART.c    ****                     dec_to_str (&writeBuffer[count], AV1, 4);
 181              		.loc 1 84 0 discriminator 3
 182 00ec 3223     		mov	r3, #50
 183 00ee FB18     		add	r3, r7, r3
 184 00f0 1B88     		ldrh	r3, [r3]
 185 00f2 1BB2     		sxth	r3, r3
 186 00f4 0020     		mov	r0, #0
 187 00f6 191C     		mov	r1, r3
 188 00f8 FFF7FEFF 		bl	ADC_CountsTo_mVolts
 189 00fc 031C     		mov	r3, r0
 190 00fe 1A1C     		mov	r2, r3
 191 0100 3123     		mov	r3, #49
 192 0102 FB18     		add	r3, r7, r3
 193 0104 1A70     		strb	r2, [r3]
  85:app_UART.c    ****                     writeBuffer[count + 5] = ',';
 194              		.loc 1 85 0 discriminator 3
 195 0106 0823     		mov	r3, #8
 196 0108 FA18     		add	r2, r7, r3
 197 010a FB6B     		ldr	r3, [r7, #60]
 198 010c D218     		add	r2, r2, r3
ARM GAS  C:\Users\ANDREW~1\AppData\Local\Temp\ccGsmwk5.s 			page 7


 199 010e 3123     		mov	r3, #49
 200 0110 FB18     		add	r3, r7, r3
 201 0112 1B78     		ldrb	r3, [r3]
 202 0114 101C     		mov	r0, r2
 203 0116 191C     		mov	r1, r3
 204 0118 0422     		mov	r2, #4
 205 011a FFF7FEFF 		bl	dec_to_str
  86:app_UART.c    ****                     count+=6;
 206              		.loc 1 86 0 discriminator 3
 207 011e FB6B     		ldr	r3, [r7, #60]
 208 0120 0533     		add	r3, r3, #5
 209 0122 0822     		mov	r2, #8
 210 0124 BA18     		add	r2, r7, r2
 211 0126 2C21     		mov	r1, #44
 212 0128 D154     		strb	r1, [r2, r3]
  87:app_UART.c    ****                 }
 213              		.loc 1 87 0 discriminator 3
 214 012a FB6B     		ldr	r3, [r7, #60]
 215 012c 0633     		add	r3, r3, #6
 216 012e FB63     		str	r3, [r7, #60]
 217              	.LBE3:
  81:app_UART.c    ****                 {
 218              		.loc 1 81 0 discriminator 3
 219 0130 3B6C     		ldr	r3, [r7, #64]
 220 0132 0133     		add	r3, r3, #1
 221 0134 3B64     		str	r3, [r7, #64]
 222              	.L14:
  81:app_UART.c    ****                 {
 223              		.loc 1 81 0 is_stmt 0 discriminator 1
 224 0136 3B6C     		ldr	r3, [r7, #64]
 225 0138 032B     		cmp	r3, #3
 226 013a CEDD     		ble	.L15
  89:app_UART.c    ****                 sendCommand(writeBuffer);
 227              		.loc 1 89 0 is_stmt 1
 228 013c 0823     		mov	r3, #8
 229 013e FA18     		add	r2, r7, r3
 230 0140 FB6B     		ldr	r3, [r7, #60]
 231 0142 D218     		add	r2, r2, r3
 232 0144 7B6C     		ldr	r3, [r7, #68]
 233 0146 101C     		mov	r0, r2
 234 0148 191C     		mov	r1, r3
 235 014a 0022     		mov	r2, #0
 236 014c FFF7FEFF 		bl	dec_to_str
  90:app_UART.c    ****                 
 237              		.loc 1 90 0
 238 0150 0823     		mov	r3, #8
 239 0152 FB18     		add	r3, r7, r3
 240 0154 181C     		mov	r0, r3
 241 0156 FFF7FEFF 		bl	sendCommand
  92:app_UART.c    ****                 {
 242              		.loc 1 92 0
 243 015a 7B6C     		ldr	r3, [r7, #68]
 244 015c 012B     		cmp	r3, #1
 245 015e 0CD0     		beq	.L17
 246 0160 02DC     		bgt	.L18
 247 0162 002B     		cmp	r3, #0
 248 0164 05D0     		beq	.L19
ARM GAS  C:\Users\ANDREW~1\AppData\Local\Temp\ccGsmwk5.s 			page 8


 107:app_UART.c    ****                 }
 249              		.loc 1 107 0
 250 0166 14E0     		b	.L22
 251              	.L18:
  92:app_UART.c    ****                 {
 252              		.loc 1 92 0
 253 0168 022B     		cmp	r3, #2
 254 016a 0AD0     		beq	.L20
 255 016c 032B     		cmp	r3, #3
 256 016e 0CD0     		beq	.L21
 107:app_UART.c    ****                 }
 257              		.loc 1 107 0
 258 0170 0FE0     		b	.L22
 259              	.L19:
  95:app_UART.c    ****                         break;
 260              		.loc 1 95 0
 261 0172 0020     		mov	r0, #0
 262 0174 FFF7FEFF 		bl	LED_1_Write
  96:app_UART.c    ****                     case 1: 
 263              		.loc 1 96 0
 264 0178 0BE0     		b	.L22
 265              	.L17:
  98:app_UART.c    ****                         break;
 266              		.loc 1 98 0
 267 017a 0020     		mov	r0, #0
 268 017c FFF7FEFF 		bl	LED_2_Write
  99:app_UART.c    ****                     case 2: 
 269              		.loc 1 99 0
 270 0180 07E0     		b	.L22
 271              	.L20:
 101:app_UART.c    ****                         break;
 272              		.loc 1 101 0
 273 0182 0020     		mov	r0, #0
 274 0184 FFF7FEFF 		bl	LED_3_Write
 102:app_UART.c    ****                     case 3: 
 275              		.loc 1 102 0
 276 0188 03E0     		b	.L22
 277              	.L21:
 104:app_UART.c    ****                         break;
 278              		.loc 1 104 0
 279 018a 0020     		mov	r0, #0
 280 018c FFF7FEFF 		bl	LED_4_Write
 105:app_UART.c    ****                     default:
 281              		.loc 1 105 0
 282 0190 C046     		mov	r8, r8
 283              	.L22:
 284              	.LBE2:
  46:app_UART.c    ****             {
 285              		.loc 1 46 0 discriminator 1
 286 0192 7B6C     		ldr	r3, [r7, #68]
 287 0194 0133     		add	r3, r3, #1
 288 0196 7B64     		str	r3, [r7, #68]
 289              	.L6:
  46:app_UART.c    ****             {
 290              		.loc 1 46 0 is_stmt 0 discriminator 2
 291 0198 7B6C     		ldr	r3, [r7, #68]
 292 019a 042B     		cmp	r3, #4
ARM GAS  C:\Users\ANDREW~1\AppData\Local\Temp\ccGsmwk5.s 			page 9


 293 019c 00DC     		bgt	.LCB251
 294 019e 44E7     		b	.L23	@long jump
 295              	.LCB251:
 112:app_UART.c    ****             
 296              		.loc 1 112 0 is_stmt 1
 297 01a0 05E0     		b	.L1
 298              	.L4:
 115:app_UART.c    ****             break;
 299              		.loc 1 115 0
 300 01a2 FFF7FEFF 		bl	millis_Reset
 116:app_UART.c    ****         case 'm':
 301              		.loc 1 116 0
 302 01a6 02E0     		b	.L1
 303              	.L5:
 118:app_UART.c    ****             break;
 304              		.loc 1 118 0
 305 01a8 FFF7FEFF 		bl	CySoftwareReset
 119:app_UART.c    ****         default:
 306              		.loc 1 119 0
 307 01ac C046     		mov	r8, r8
 308              	.L1:
 122:app_UART.c    ****     }
 123:app_UART.c    ****     
 124:app_UART.c    **** }
 309              		.loc 1 124 0
 310 01ae BD46     		mov	sp, r7
 311 01b0 12B0     		add	sp, sp, #72
 312              		@ sp needed
 313 01b2 80BD     		pop	{r7, pc}
 314              		.cfi_endproc
 315              	.LFE37:
 316              		.size	HandleUartRxTraffic, .-HandleUartRxTraffic
 317              		.section	.text.sendCommand,"ax",%progbits
 318              		.align	2
 319              		.global	sendCommand
 320              		.code	16
 321              		.thumb_func
 322              		.type	sendCommand, %function
 323              	sendCommand:
 324              	.LFB38:
 125:app_UART.c    **** 
 126:app_UART.c    **** void sendCommand(uint8 a[])
 127:app_UART.c    **** {    
 325              		.loc 1 127 0
 326              		.cfi_startproc
 327 0000 90B5     		push	{r4, r7, lr}
 328              		.cfi_def_cfa_offset 12
 329              		.cfi_offset 4, -12
 330              		.cfi_offset 7, -8
 331              		.cfi_offset 14, -4
 332 0002 89B0     		sub	sp, sp, #36
 333              		.cfi_def_cfa_offset 48
 334 0004 00AF     		add	r7, sp, #0
 335              		.cfi_def_cfa_register 7
 336 0006 7860     		str	r0, [r7, #4]
 128:app_UART.c    ****     int j;
 129:app_UART.c    ****     for (j = 0; j < 40; j+=20)
ARM GAS  C:\Users\ANDREW~1\AppData\Local\Temp\ccGsmwk5.s 			page 10


 337              		.loc 1 129 0
 338 0008 0023     		mov	r3, #0
 339 000a FB61     		str	r3, [r7, #28]
 340 000c 36E0     		b	.L26
 341              	.L29:
 342              	.LBB4:
 130:app_UART.c    ****     {
 131:app_UART.c    ****         CYBLE_API_RESULT_T              bleApiResult = 0xCDF7;
 343              		.loc 1 131 0
 344 000e 1A23     		mov	r3, #26
 345 0010 FB18     		add	r3, r7, r3
 346 0012 1D4A     		ldr	r2, .L30
 347 0014 1A80     		strh	r2, [r3]
 132:app_UART.c    ****         CYBLE_GATTC_WRITE_CMD_REQ_T     uartTxDataWriteCmd;
 133:app_UART.c    ****     
 134:app_UART.c    ****         uartTxDataWriteCmd.attrHandle = rxCharHandle;
 348              		.loc 1 134 0
 349 0016 1D4B     		ldr	r3, .L30+4
 350 0018 1A88     		ldrh	r2, [r3]
 351 001a 0C23     		mov	r3, #12
 352 001c FB18     		add	r3, r7, r3
 353 001e 1A81     		strh	r2, [r3, #8]
 135:app_UART.c    ****         uartTxDataWriteCmd.value.len  = 20; //uartRxDataNotification->handleValPair.value.len;
 354              		.loc 1 135 0
 355 0020 0C23     		mov	r3, #12
 356 0022 FB18     		add	r3, r7, r3
 357 0024 1422     		mov	r2, #20
 358 0026 9A80     		strh	r2, [r3, #4]
 136:app_UART.c    ****         
 137:app_UART.c    ****         uartTxDataWriteCmd.value.val  = &a[j];  
 359              		.loc 1 137 0
 360 0028 FB69     		ldr	r3, [r7, #28]
 361 002a 7A68     		ldr	r2, [r7, #4]
 362 002c D218     		add	r2, r2, r3
 363 002e 0C23     		mov	r3, #12
 364 0030 FB18     		add	r3, r7, r3
 365 0032 1A60     		str	r2, [r3]
 366              	.L28:
 138:app_UART.c    ****         
 139:app_UART.c    ****         do
 140:app_UART.c    ****         {
 141:app_UART.c    ****             bleApiResult = CyBle_GattcWriteWithoutResponse(cyBle_connHandle, &uartTxDataWriteCmd);
 367              		.loc 1 141 0 discriminator 2
 368 0034 1A23     		mov	r3, #26
 369 0036 FC18     		add	r4, r7, r3
 370 0038 154B     		ldr	r3, .L30+8
 371 003a 0C22     		mov	r2, #12
 372 003c B918     		add	r1, r7, r2
 373 003e 1A78     		ldrb	r2, [r3]
 374 0040 5B78     		ldrb	r3, [r3, #1]
 375 0042 1B02     		lsl	r3, r3, #8
 376 0044 1A43     		orr	r2, r3
 377 0046 0023     		mov	r3, #0
 378 0048 1204     		lsl	r2, r2, #16
 379 004a 120C     		lsr	r2, r2, #16
 380 004c 1B0C     		lsr	r3, r3, #16
 381 004e 1B04     		lsl	r3, r3, #16
ARM GAS  C:\Users\ANDREW~1\AppData\Local\Temp\ccGsmwk5.s 			page 11


 382 0050 1343     		orr	r3, r2
 383 0052 181C     		mov	r0, r3
 384 0054 FFF7FEFF 		bl	CyBle_GattcWriteWithoutResponse
 385 0058 031C     		mov	r3, r0
 386 005a 2380     		strh	r3, [r4]
 142:app_UART.c    ****             CyBle_ProcessEvents();
 387              		.loc 1 142 0 discriminator 2
 388 005c FFF7FEFF 		bl	CyBle_ProcessEvents
 143:app_UART.c    ****         }
 144:app_UART.c    ****         while((CYBLE_ERROR_OK != bleApiResult) && (CYBLE_STATE_CONNECTED == cyBle_state));
 389              		.loc 1 144 0 discriminator 2
 390 0060 1A23     		mov	r3, #26
 391 0062 FB18     		add	r3, r7, r3
 392 0064 1B88     		ldrh	r3, [r3]
 393 0066 002B     		cmp	r3, #0
 394 0068 03D0     		beq	.L27
 395              		.loc 1 144 0 is_stmt 0 discriminator 1
 396 006a 0A4B     		ldr	r3, .L30+12
 397 006c 1B78     		ldrb	r3, [r3]
 398 006e 022B     		cmp	r3, #2
 399 0070 E0D0     		beq	.L28
 400              	.L27:
 145:app_UART.c    ****         
 146:app_UART.c    ****         CyBle_ProcessEvents();
 401              		.loc 1 146 0 is_stmt 1 discriminator 2
 402 0072 FFF7FEFF 		bl	CyBle_ProcessEvents
 403              	.LBE4:
 129:app_UART.c    ****     {
 404              		.loc 1 129 0 discriminator 2
 405 0076 FB69     		ldr	r3, [r7, #28]
 406 0078 1433     		add	r3, r3, #20
 407 007a FB61     		str	r3, [r7, #28]
 408              	.L26:
 129:app_UART.c    ****     {
 409              		.loc 1 129 0 is_stmt 0 discriminator 1
 410 007c FB69     		ldr	r3, [r7, #28]
 411 007e 272B     		cmp	r3, #39
 412 0080 C5DD     		ble	.L29
 147:app_UART.c    ****     }
 148:app_UART.c    **** }
 413              		.loc 1 148 0 is_stmt 1
 414 0082 BD46     		mov	sp, r7
 415 0084 09B0     		add	sp, sp, #36
 416              		@ sp needed
 417 0086 90BD     		pop	{r4, r7, pc}
 418              	.L31:
 419              		.align	2
 420              	.L30:
 421 0088 F7CDFFFF 		.word	-12809
 422 008c 00000000 		.word	rxCharHandle
 423 0090 00000000 		.word	cyBle_connHandle
 424 0094 00000000 		.word	cyBle_state
 425              		.cfi_endproc
 426              	.LFE38:
 427              		.size	sendCommand, .-sendCommand
 428              		.global	__aeabi_uidivmod
 429              		.global	__aeabi_uidiv
ARM GAS  C:\Users\ANDREW~1\AppData\Local\Temp\ccGsmwk5.s 			page 12


 430              		.section	.text.dec_to_str,"ax",%progbits
 431              		.align	2
 432              		.global	dec_to_str
 433              		.code	16
 434              		.thumb_func
 435              		.type	dec_to_str, %function
 436              	dec_to_str:
 437              	.LFB39:
 149:app_UART.c    **** 
 150:app_UART.c    **** 
 151:app_UART.c    **** void dec_to_str (uint8* str, uint32_t val, size_t digits)
 152:app_UART.c    **** {
 438              		.loc 1 152 0
 439              		.cfi_startproc
 440 0000 90B5     		push	{r4, r7, lr}
 441              		.cfi_def_cfa_offset 12
 442              		.cfi_offset 4, -12
 443              		.cfi_offset 7, -8
 444              		.cfi_offset 14, -4
 445 0002 87B0     		sub	sp, sp, #28
 446              		.cfi_def_cfa_offset 40
 447 0004 00AF     		add	r7, sp, #0
 448              		.cfi_def_cfa_register 7
 449 0006 F860     		str	r0, [r7, #12]
 450 0008 B960     		str	r1, [r7, #8]
 451 000a 7A60     		str	r2, [r7, #4]
 153:app_UART.c    ****   size_t i=1u;
 452              		.loc 1 153 0
 453 000c 0123     		mov	r3, #1
 454 000e 7B61     		str	r3, [r7, #20]
 154:app_UART.c    ****   digits++;
 455              		.loc 1 154 0
 456 0010 7B68     		ldr	r3, [r7, #4]
 457 0012 0133     		add	r3, r3, #1
 458 0014 7B60     		str	r3, [r7, #4]
 155:app_UART.c    ****     
 156:app_UART.c    ****   for(; i<=digits; i++)
 459              		.loc 1 156 0
 460 0016 38E0     		b	.L33
 461              	.L37:
 157:app_UART.c    ****   {
 158:app_UART.c    ****     
 159:app_UART.c    ****     if ((digits == 5) && (i == (digits - 1)))
 462              		.loc 1 159 0
 463 0018 7B68     		ldr	r3, [r7, #4]
 464 001a 052B     		cmp	r3, #5
 465 001c 0CD1     		bne	.L34
 466              		.loc 1 159 0 is_stmt 0 discriminator 1
 467 001e 7B68     		ldr	r3, [r7, #4]
 468 0020 5A1E     		sub	r2, r3, #1
 469 0022 7B69     		ldr	r3, [r7, #20]
 470 0024 9A42     		cmp	r2, r3
 471 0026 07D1     		bne	.L34
 160:app_UART.c    ****     {
 161:app_UART.c    ****         str[digits-i] = '.';
 472              		.loc 1 161 0 is_stmt 1
 473 0028 7A68     		ldr	r2, [r7, #4]
ARM GAS  C:\Users\ANDREW~1\AppData\Local\Temp\ccGsmwk5.s 			page 13


 474 002a 7B69     		ldr	r3, [r7, #20]
 475 002c D31A     		sub	r3, r2, r3
 476 002e FA68     		ldr	r2, [r7, #12]
 477 0030 D318     		add	r3, r2, r3
 478 0032 2E22     		mov	r2, #46
 479 0034 1A70     		strb	r2, [r3]
 480 0036 25E0     		b	.L35
 481              	.L34:
 162:app_UART.c    ****     }
 163:app_UART.c    ****     else if ((digits == 11) && (i == (digits - 7)))
 482              		.loc 1 163 0
 483 0038 7B68     		ldr	r3, [r7, #4]
 484 003a 0B2B     		cmp	r3, #11
 485 003c 0CD1     		bne	.L36
 486              		.loc 1 163 0 is_stmt 0 discriminator 1
 487 003e 7B68     		ldr	r3, [r7, #4]
 488 0040 DA1F     		sub	r2, r3, #7
 489 0042 7B69     		ldr	r3, [r7, #20]
 490 0044 9A42     		cmp	r2, r3
 491 0046 07D1     		bne	.L36
 164:app_UART.c    ****     {
 165:app_UART.c    ****         str[digits-i] = '.';
 492              		.loc 1 165 0 is_stmt 1
 493 0048 7A68     		ldr	r2, [r7, #4]
 494 004a 7B69     		ldr	r3, [r7, #20]
 495 004c D31A     		sub	r3, r2, r3
 496 004e FA68     		ldr	r2, [r7, #12]
 497 0050 D318     		add	r3, r2, r3
 498 0052 2E22     		mov	r2, #46
 499 0054 1A70     		strb	r2, [r3]
 500 0056 15E0     		b	.L35
 501              	.L36:
 166:app_UART.c    ****     }
 167:app_UART.c    ****     else
 168:app_UART.c    ****     {
 169:app_UART.c    ****         str[digits-i] = (char)((val % 10u) + '0');
 502              		.loc 1 169 0
 503 0058 7A68     		ldr	r2, [r7, #4]
 504 005a 7B69     		ldr	r3, [r7, #20]
 505 005c D31A     		sub	r3, r2, r3
 506 005e FA68     		ldr	r2, [r7, #12]
 507 0060 D418     		add	r4, r2, r3
 508 0062 BB68     		ldr	r3, [r7, #8]
 509 0064 181C     		mov	r0, r3
 510 0066 0A21     		mov	r1, #10
 511 0068 FFF7FEFF 		bl	__aeabi_uidivmod
 512 006c 0B1C     		mov	r3, r1
 513 006e DBB2     		uxtb	r3, r3
 514 0070 3033     		add	r3, r3, #48
 515 0072 DBB2     		uxtb	r3, r3
 516 0074 2370     		strb	r3, [r4]
 170:app_UART.c    ****         val/=10u;
 517              		.loc 1 170 0
 518 0076 BB68     		ldr	r3, [r7, #8]
 519 0078 181C     		mov	r0, r3
 520 007a 0A21     		mov	r1, #10
 521 007c FFF7FEFF 		bl	__aeabi_uidiv
ARM GAS  C:\Users\ANDREW~1\AppData\Local\Temp\ccGsmwk5.s 			page 14


 522 0080 031C     		mov	r3, r0
 523 0082 BB60     		str	r3, [r7, #8]
 524              	.L35:
 156:app_UART.c    ****   {
 525              		.loc 1 156 0
 526 0084 7B69     		ldr	r3, [r7, #20]
 527 0086 0133     		add	r3, r3, #1
 528 0088 7B61     		str	r3, [r7, #20]
 529              	.L33:
 156:app_UART.c    ****   {
 530              		.loc 1 156 0 is_stmt 0 discriminator 1
 531 008a 7A69     		ldr	r2, [r7, #20]
 532 008c 7B68     		ldr	r3, [r7, #4]
 533 008e 9A42     		cmp	r2, r3
 534 0090 C2D9     		bls	.L37
 171:app_UART.c    ****     }
 172:app_UART.c    ****   }
 173:app_UART.c    **** }
 535              		.loc 1 173 0 is_stmt 1
 536 0092 BD46     		mov	sp, r7
 537 0094 07B0     		add	sp, sp, #28
 538              		@ sp needed
 539 0096 90BD     		pop	{r4, r7, pc}
 540              		.cfi_endproc
 541              	.LFE39:
 542              		.size	dec_to_str, .-dec_to_str
 543              		.section	.text.HandleUartTxTraffic,"ax",%progbits
 544              		.align	2
 545              		.global	HandleUartTxTraffic
 546              		.code	16
 547              		.thumb_func
 548              		.type	HandleUartTxTraffic, %function
 549              	HandleUartTxTraffic:
 550              	.LFB40:
 174:app_UART.c    **** 
 175:app_UART.c    **** 
 176:app_UART.c    **** /*******************************************************************************
 177:app_UART.c    **** * Function Name: HandleUartTxTraffic
 178:app_UART.c    **** ********************************************************************************
 179:app_UART.c    **** *
 180:app_UART.c    **** * Summary:
 181:app_UART.c    **** *  This function takes data from UART RX buffer and pushes it to the server 
 182:app_UART.c    **** *  as Write Without Response command.
 183:app_UART.c    **** *
 184:app_UART.c    **** * Parameters:
 185:app_UART.c    **** *  None.
 186:app_UART.c    **** *
 187:app_UART.c    **** * Return:
 188:app_UART.c    **** *   None.
 189:app_UART.c    **** *
 190:app_UART.c    **** *******************************************************************************/
 191:app_UART.c    **** void HandleUartTxTraffic(void)
 192:app_UART.c    **** {
 551              		.loc 1 192 0
 552              		.cfi_startproc
 553 0000 80B5     		push	{r7, lr}
 554              		.cfi_def_cfa_offset 8
ARM GAS  C:\Users\ANDREW~1\AppData\Local\Temp\ccGsmwk5.s 			page 15


 555              		.cfi_offset 7, -8
 556              		.cfi_offset 14, -4
 557 0002 00AF     		add	r7, sp, #0
 558              		.cfi_def_cfa_register 7
 193:app_UART.c    ****     /*uint8   index;
 194:app_UART.c    ****     uint8   uartTxData[mtuSize - 3];
 195:app_UART.c    ****     uint16  uartTxDataLength;
 196:app_UART.c    ****     uint8   a[20]={0x31, 0x7A, 0x0D, 0x0a, 0x00, 0x00, 0x00, 0x00, 0x00, 0x00, 0x00, 0x00 ,0x00, 0x
 197:app_UART.c    ****     
 198:app_UART.c    ****     uartTxDataLength = UART_SpiUartGetRxBufferSize();
 199:app_UART.c    ****     
 200:app_UART.c    ****     static uint16 uartIdleCount = UART_IDLE_TIMEOUT;
 201:app_UART.c    ****     
 202:app_UART.c    ****     CYBLE_API_RESULT_T              bleApiResult;
 203:app_UART.c    ****     CYBLE_GATTC_WRITE_CMD_REQ_T     uartTxDataWriteCmd;
 204:app_UART.c    ****     
 205:app_UART.c    ****     
 206:app_UART.c    ****     
 207:app_UART.c    ****     #ifdef FLOW_CONTROL
 208:app_UART.c    ****         if(uartTxDataLength >= (UART_UART_RX_BUFFER_SIZE - (UART_UART_RX_BUFFER_SIZE/2)))
 209:app_UART.c    ****         {
 210:app_UART.c    ****             DisableUartRxInt();
 211:app_UART.c    ****         }
 212:app_UART.c    ****         else
 213:app_UART.c    ****         {
 214:app_UART.c    ****             EnableUartRxInt();
 215:app_UART.c    ****         }
 216:app_UART.c    ****     #endif
 217:app_UART.c    ****     
 218:app_UART.c    ****     if((uartTxDataLength != 0))
 219:app_UART.c    ****     {
 220:app_UART.c    ****         if(uartTxDataLength >= (mtuSize - 3))
 221:app_UART.c    ****         {
 222:app_UART.c    ****             uartIdleCount       = UART_IDLE_TIMEOUT;
 223:app_UART.c    ****             uartTxDataLength    = mtuSize - 3;
 224:app_UART.c    ****         }
 225:app_UART.c    ****         else
 226:app_UART.c    ****         {
 227:app_UART.c    ****             if(--uartIdleCount == 0)
 228:app_UART.c    ****             {
 229:app_UART.c    ****                 /*uartTxDataLength remains unchanged ;
 230:app_UART.c    ****             }
 231:app_UART.c    ****             else
 232:app_UART.c    ****             {
 233:app_UART.c    ****                 uartTxDataLength = 0;
 234:app_UART.c    ****             }
 235:app_UART.c    ****         }
 236:app_UART.c    ****         
 237:app_UART.c    ****         if(0 != uartTxDataLength)
 238:app_UART.c    ****         {
 239:app_UART.c    ****             uartIdleCount       = UART_IDLE_TIMEOUT;
 240:app_UART.c    ****             
 241:app_UART.c    ****             for(index = 0; index < uartTxDataLength; index++)
 242:app_UART.c    ****             {
 243:app_UART.c    ****                 uartTxData[index] = (uint8) UART_UartGetByte();
 244:app_UART.c    ****             }
 245:app_UART.c    ****             
ARM GAS  C:\Users\ANDREW~1\AppData\Local\Temp\ccGsmwk5.s 			page 16


 246:app_UART.c    ****             //uartTxDataWriteCmd.attrHandle = rxCharHandle;
 247:app_UART.c    ****             //uartTxDataWriteCmd.value.len  = uartTxDataLength;
 248:app_UART.c    ****             //uartTxDataWriteCmd.value.val  = uartTxData;           
 249:app_UART.c    ****   
 250:app_UART.c    ****             
 251:app_UART.c    ****             uartTxDataWriteCmd.attrHandle = rxCharHandle;
 252:app_UART.c    ****             uartTxDataWriteCmd.value.len  = 0x0004;
 253:app_UART.c    ****             uartTxDataWriteCmd.value.val  = a; 
 254:app_UART.c    ****             
 255:app_UART.c    ****             #ifdef FLOW_CONTROL
 256:app_UART.c    ****                 DisableUartRxInt();
 257:app_UART.c    ****             #endif
 258:app_UART.c    ****             
 259:app_UART.c    ****             do
 260:app_UART.c    ****             {
 261:app_UART.c    ****                 bleApiResult = CyBle_GattcWriteWithoutResponse(cyBle_connHandle, &uartTxDataWriteCm
 262:app_UART.c    ****                 CyBle_ProcessEvents();
 263:app_UART.c    ****             }
 264:app_UART.c    ****            while((CYBLE_ERROR_OK != bleApiResult) && (CYBLE_STATE_CONNECTED == cyBle_state));
 265:app_UART.c    ****             
 266:app_UART.c    ****         }
 267:app_UART.c    ****     }
 268:app_UART.c    **** */
 269:app_UART.c    **** }
 559              		.loc 1 269 0
 560 0004 BD46     		mov	sp, r7
 561              		@ sp needed
 562 0006 80BD     		pop	{r7, pc}
 563              		.cfi_endproc
 564              	.LFE40:
 565              		.size	HandleUartTxTraffic, .-HandleUartTxTraffic
 566              		.section	.text.DisableUartRxInt,"ax",%progbits
 567              		.align	2
 568              		.global	DisableUartRxInt
 569              		.code	16
 570              		.thumb_func
 571              		.type	DisableUartRxInt, %function
 572              	DisableUartRxInt:
 573              	.LFB41:
 270:app_UART.c    **** 
 271:app_UART.c    **** /*****************************************************************************************
 272:app_UART.c    **** * Function Name: DisableUartRxInt
 273:app_UART.c    **** ******************************************************************************************
 274:app_UART.c    **** *
 275:app_UART.c    **** * Summary:
 276:app_UART.c    **** *  This function disables the UART RX interrupt.
 277:app_UART.c    **** *
 278:app_UART.c    **** * Parameters:
 279:app_UART.c    **** *   None.
 280:app_UART.c    **** *
 281:app_UART.c    **** * Return:
 282:app_UART.c    **** *   None.
 283:app_UART.c    **** *
 284:app_UART.c    **** *****************************************************************************************/
 285:app_UART.c    **** void DisableUartRxInt(void)
 286:app_UART.c    **** {
 574              		.loc 1 286 0
ARM GAS  C:\Users\ANDREW~1\AppData\Local\Temp\ccGsmwk5.s 			page 17


 575              		.cfi_startproc
 576 0000 80B5     		push	{r7, lr}
 577              		.cfi_def_cfa_offset 8
 578              		.cfi_offset 7, -8
 579              		.cfi_offset 14, -4
 580 0002 00AF     		add	r7, sp, #0
 581              		.cfi_def_cfa_register 7
 287:app_UART.c    ****     UART_INTR_RX_MASK_REG &= ~UART_RX_INTR_MASK;  
 582              		.loc 1 287 0
 583 0004 034B     		ldr	r3, .L40
 584 0006 034A     		ldr	r2, .L40
 585 0008 1268     		ldr	r2, [r2]
 586 000a 0421     		mov	r1, #4
 587 000c 8A43     		bic	r2, r1
 588 000e 1A60     		str	r2, [r3]
 288:app_UART.c    **** }
 589              		.loc 1 288 0
 590 0010 BD46     		mov	sp, r7
 591              		@ sp needed
 592 0012 80BD     		pop	{r7, pc}
 593              	.L41:
 594              		.align	2
 595              	.L40:
 596 0014 C80F2440 		.word	1076105160
 597              		.cfi_endproc
 598              	.LFE41:
 599              		.size	DisableUartRxInt, .-DisableUartRxInt
 600              		.section	.text.EnableUartRxInt,"ax",%progbits
 601              		.align	2
 602              		.global	EnableUartRxInt
 603              		.code	16
 604              		.thumb_func
 605              		.type	EnableUartRxInt, %function
 606              	EnableUartRxInt:
 607              	.LFB42:
 289:app_UART.c    **** 
 290:app_UART.c    **** /*****************************************************************************************
 291:app_UART.c    **** * Function Name: EnableUartRxInt
 292:app_UART.c    **** ******************************************************************************************
 293:app_UART.c    **** *
 294:app_UART.c    **** * Summary:
 295:app_UART.c    **** *  This function enables the UART RX interrupt.
 296:app_UART.c    **** *
 297:app_UART.c    **** * Parameters:
 298:app_UART.c    **** *   None.
 299:app_UART.c    **** *
 300:app_UART.c    **** * Return:
 301:app_UART.c    **** *   None.
 302:app_UART.c    **** *
 303:app_UART.c    **** *****************************************************************************************/
 304:app_UART.c    **** void EnableUartRxInt(void)
 305:app_UART.c    **** {
 608              		.loc 1 305 0
 609              		.cfi_startproc
 610 0000 80B5     		push	{r7, lr}
 611              		.cfi_def_cfa_offset 8
 612              		.cfi_offset 7, -8
ARM GAS  C:\Users\ANDREW~1\AppData\Local\Temp\ccGsmwk5.s 			page 18


 613              		.cfi_offset 14, -4
 614 0002 00AF     		add	r7, sp, #0
 615              		.cfi_def_cfa_register 7
 306:app_UART.c    ****     UART_INTR_RX_MASK_REG |= UART_RX_INTR_MASK;  
 616              		.loc 1 306 0
 617 0004 034B     		ldr	r3, .L43
 618 0006 034A     		ldr	r2, .L43
 619 0008 1268     		ldr	r2, [r2]
 620 000a 0421     		mov	r1, #4
 621 000c 0A43     		orr	r2, r1
 622 000e 1A60     		str	r2, [r3]
 307:app_UART.c    **** }
 623              		.loc 1 307 0
 624 0010 BD46     		mov	sp, r7
 625              		@ sp needed
 626 0012 80BD     		pop	{r7, pc}
 627              	.L44:
 628              		.align	2
 629              	.L43:
 630 0014 C80F2440 		.word	1076105160
 631              		.cfi_endproc
 632              	.LFE42:
 633              		.size	EnableUartRxInt, .-EnableUartRxInt
 634              		.text
 635              	.Letext0:
 636              		.file 2 "c:\\program files (x86)\\cypress\\psoc creator\\4.0\\psoc creator\\import\\gnu\\arm\\4.9.
 637              		.file 3 "c:\\program files (x86)\\cypress\\psoc creator\\4.0\\psoc creator\\import\\gnu\\arm\\4.9.
 638              		.file 4 "Generated_Source\\PSoC4/cytypes.h"
 639              		.file 5 "c:\\program files (x86)\\cypress\\psoc creator\\4.0\\psoc creator\\import\\gnu\\arm\\4.9.
 640              		.file 6 "Generated_Source\\PSoC4/BLE_Stack.h"
 641              		.file 7 "Generated_Source\\PSoC4/BLE_StackGatt.h"
 642              		.file 8 "Generated_Source\\PSoC4/BLE_StackGattClient.h"
 643              		.file 9 "Generated_Source\\PSoC4/BLE_eventHandler.h"
 644              		.file 10 "app_UART.h"