ARM GAS  C:\Users\ANDREW~1\AppData\Local\Temp\ccpBQnLb.s 			page 1


   1              		.cpu cortex-m0
   2              		.fpu softvfp
   3              		.eabi_attribute 20, 1
   4              		.eabi_attribute 21, 1
   5              		.eabi_attribute 23, 3
   6              		.eabi_attribute 24, 1
   7              		.eabi_attribute 25, 1
   8              		.eabi_attribute 26, 1
   9              		.eabi_attribute 30, 6
  10              		.eabi_attribute 34, 0
  11              		.eabi_attribute 18, 4
  12              		.code	16
  13              		.file	"BLE_custom.c"
  14              		.text
  15              	.Ltext0:
  16              		.cfi_sections	.debug_frame
  17              		.section	.rodata
  18              		.align	2
  19              		.type	cyBle_customUuid128, %object
  20              		.size	cyBle_customUuid128, 48
  21              	cyBle_customUuid128:
  22 0000 FB       		.byte	-5
  23 0001 34       		.byte	52
  24 0002 9B       		.byte	-101
  25 0003 5F       		.byte	95
  26 0004 80       		.byte	-128
  27 0005 00       		.byte	0
  28 0006 00       		.byte	0
  29 0007 80       		.byte	-128
  30 0008 00       		.byte	0
  31 0009 10       		.byte	16
  32 000a 00       		.byte	0
  33 000b 00       		.byte	0
  34 000c 00       		.byte	0
  35 000d 00       		.byte	0
  36 000e 00       		.byte	0
  37 000f 00       		.byte	0
  38 0010 FB       		.byte	-5
  39 0011 34       		.byte	52
  40 0012 9B       		.byte	-101
  41 0013 5F       		.byte	95
  42 0014 80       		.byte	-128
  43 0015 00       		.byte	0
  44 0016 00       		.byte	0
  45 0017 80       		.byte	-128
  46 0018 00       		.byte	0
  47 0019 10       		.byte	16
  48 001a 00       		.byte	0
  49 001b 00       		.byte	0
  50 001c 00       		.byte	0
  51 001d 00       		.byte	0
  52 001e 00       		.byte	0
  53 001f 00       		.byte	0
  54 0020 FB       		.byte	-5
  55 0021 34       		.byte	52
  56 0022 9B       		.byte	-101
  57 0023 5F       		.byte	95
ARM GAS  C:\Users\ANDREW~1\AppData\Local\Temp\ccpBQnLb.s 			page 2


  58 0024 80       		.byte	-128
  59 0025 00       		.byte	0
  60 0026 00       		.byte	0
  61 0027 80       		.byte	-128
  62 0028 00       		.byte	0
  63 0029 10       		.byte	16
  64 002a 00       		.byte	0
  65 002b 00       		.byte	0
  66 002c 00       		.byte	0
  67 002d 00       		.byte	0
  68 002e 00       		.byte	0
  69 002f 00       		.byte	0
  70              		.data
  71              		.align	2
  72              		.type	cyBle_customCDesc, %object
  73              		.size	cyBle_customCDesc, 12
  74              	cyBle_customCDesc:
  75 0000 0000     		.short	0
  76 0002 0000     		.space	2
  77 0004 20000000 		.word	cyBle_customUuid128+32
  78 0008 02       		.byte	2
  79 0009 000000   		.space	3
  80              		.align	2
  81              		.type	cyBle_customCChar, %object
  82              		.size	cyBle_customCChar, 16
  83              	cyBle_customCChar:
  84 000c 0000     		.short	0
  85 000e 0000     		.short	0
  86 0010 10000000 		.word	cyBle_customUuid128+16
  87 0014 02       		.byte	2
  88 0015 00       		.byte	0
  89 0016 01       		.byte	1
  90 0017 00       		.space	1
  91 0018 00000000 		.word	cyBle_customCDesc
  92              		.global	cyBle_customCServ
  93              		.align	2
  94              		.type	cyBle_customCServ, %object
  95              		.size	cyBle_customCServ, 16
  96              	cyBle_customCServ:
  97 001c 0000     		.short	0
  98 001e 0000     		.space	2
  99 0020 00000000 		.word	cyBle_customUuid128
 100 0024 02       		.byte	2
 101 0025 01       		.byte	1
 102 0026 0000     		.space	2
 103 0028 0C000000 		.word	cyBle_customCChar
 104              		.bss
 105              		.align	1
 106              	cyBle_customDisServIndex:
 107 0000 0000     		.space	2
 108              		.align	1
 109              	cyBle_customDisCharIndex:
 110 0002 0000     		.space	2
 111              		.section	.text.CyBle_CustomInit,"ax",%progbits
 112              		.align	2
 113              		.global	CyBle_CustomInit
 114              		.code	16
ARM GAS  C:\Users\ANDREW~1\AppData\Local\Temp\ccpBQnLb.s 			page 3


 115              		.thumb_func
 116              		.type	CyBle_CustomInit, %function
 117              	CyBle_CustomInit:
 118              	.LFB2:
 119              		.file 1 "Generated_Source\\PSoC4\\BLE_custom.c"
   1:Generated_Source\PSoC4/BLE_custom.c **** /***************************************************************************//**
   2:Generated_Source\PSoC4/BLE_custom.c **** * \file CYBLE_custom.c
   3:Generated_Source\PSoC4/BLE_custom.c **** * \version 3.20
   4:Generated_Source\PSoC4/BLE_custom.c **** * 
   5:Generated_Source\PSoC4/BLE_custom.c **** * \brief
   6:Generated_Source\PSoC4/BLE_custom.c **** *  Contains the source code for the Custom Service.
   7:Generated_Source\PSoC4/BLE_custom.c **** * 
   8:Generated_Source\PSoC4/BLE_custom.c **** ********************************************************************************
   9:Generated_Source\PSoC4/BLE_custom.c **** * \copyright
  10:Generated_Source\PSoC4/BLE_custom.c **** * Copyright 2014-2016, Cypress Semiconductor Corporation.  All rights reserved.
  11:Generated_Source\PSoC4/BLE_custom.c **** * You may use this file only in accordance with the license, terms, conditions,
  12:Generated_Source\PSoC4/BLE_custom.c **** * disclaimers, and limitations in the end user license agreement accompanying
  13:Generated_Source\PSoC4/BLE_custom.c **** * the software package with which this file was provided.
  14:Generated_Source\PSoC4/BLE_custom.c **** *******************************************************************************/
  15:Generated_Source\PSoC4/BLE_custom.c **** 
  16:Generated_Source\PSoC4/BLE_custom.c **** 
  17:Generated_Source\PSoC4/BLE_custom.c **** #include "BLE_eventHandler.h"
  18:Generated_Source\PSoC4/BLE_custom.c **** 
  19:Generated_Source\PSoC4/BLE_custom.c **** #ifdef CYBLE_CUSTOM_SERVER
  20:Generated_Source\PSoC4/BLE_custom.c **** 
  21:Generated_Source\PSoC4/BLE_custom.c **** /* If any custom service with custom characterisctis is defined in the
  22:Generated_Source\PSoC4/BLE_custom.c **** * customizer's GUI their handles will be present in this array.
  23:Generated_Source\PSoC4/BLE_custom.c **** */
  24:Generated_Source\PSoC4/BLE_custom.c **** /* This array contains attribute handles for the defined Custom Services and their characteristics 
  25:Generated_Source\PSoC4/BLE_custom.c ****    The array index definitions are located in the CYBLE_custom.h file. */
  26:Generated_Source\PSoC4/BLE_custom.c **** 
  27:Generated_Source\PSoC4/BLE_custom.c **** 
  28:Generated_Source\PSoC4/BLE_custom.c **** #endif /* (CYBLE_CUSTOM_SERVER) */
  29:Generated_Source\PSoC4/BLE_custom.c **** 
  30:Generated_Source\PSoC4/BLE_custom.c **** #ifdef CYBLE_CUSTOM_CLIENT
  31:Generated_Source\PSoC4/BLE_custom.c ****     
  32:Generated_Source\PSoC4/BLE_custom.c **** static const CYBLE_UUID128_T cyBle_customUuid128[] = {
  33:Generated_Source\PSoC4/BLE_custom.c ****     /* Custom Service */
  34:Generated_Source\PSoC4/BLE_custom.c ****     { {0xFBu, 0x34u, 0x9Bu, 0x5Fu, 0x80u, 0x00u, 0x00u, 0x80u, 0x00u, 0x10u, 0x00u, 0x00u, 0x00u, 0
  35:Generated_Source\PSoC4/BLE_custom.c ****     /* Custom Characteristic */
  36:Generated_Source\PSoC4/BLE_custom.c ****     { {0xFBu, 0x34u, 0x9Bu, 0x5Fu, 0x80u, 0x00u, 0x00u, 0x80u, 0x00u, 0x10u, 0x00u, 0x00u, 0x00u, 0
  37:Generated_Source\PSoC4/BLE_custom.c ****     /* Custom Descriptor */
  38:Generated_Source\PSoC4/BLE_custom.c ****     { {0xFBu, 0x34u, 0x9Bu, 0x5Fu, 0x80u, 0x00u, 0x00u, 0x80u, 0x00u, 0x10u, 0x00u, 0x00u, 0x00u, 0
  39:Generated_Source\PSoC4/BLE_custom.c **** };
  40:Generated_Source\PSoC4/BLE_custom.c **** 
  41:Generated_Source\PSoC4/BLE_custom.c **** static CYBLE_CUSTOMC_DESC_T cyBle_customCDesc[0x01u] = {
  42:Generated_Source\PSoC4/BLE_custom.c **** 
  43:Generated_Source\PSoC4/BLE_custom.c ****     /* Custom Descriptor */
  44:Generated_Source\PSoC4/BLE_custom.c ****     {
  45:Generated_Source\PSoC4/BLE_custom.c ****         CYBLE_GATT_INVALID_ATTR_HANDLE_VALUE, /* Descriptor handle */ 
  46:Generated_Source\PSoC4/BLE_custom.c ****         (const CYBLE_UUID128_T *) &cyBle_customUuid128[2], /* 128-bit UUID */ 
  47:Generated_Source\PSoC4/BLE_custom.c ****         0x02u, /* UUID Format - 16-bit (0x01) or 128-bit (0x02) */ 
  48:Generated_Source\PSoC4/BLE_custom.c ****     },
  49:Generated_Source\PSoC4/BLE_custom.c **** };
  50:Generated_Source\PSoC4/BLE_custom.c **** 
  51:Generated_Source\PSoC4/BLE_custom.c **** static CYBLE_CUSTOMC_CHAR_T cyBle_customCChar[0x01u] = {
  52:Generated_Source\PSoC4/BLE_custom.c **** 
ARM GAS  C:\Users\ANDREW~1\AppData\Local\Temp\ccpBQnLb.s 			page 4


  53:Generated_Source\PSoC4/BLE_custom.c ****     /* Custom Characteristic */
  54:Generated_Source\PSoC4/BLE_custom.c ****     {
  55:Generated_Source\PSoC4/BLE_custom.c ****         CYBLE_GATT_INVALID_ATTR_HANDLE_VALUE, /* Characteristic handle */ 
  56:Generated_Source\PSoC4/BLE_custom.c ****         CYBLE_GATT_INVALID_ATTR_HANDLE_VALUE, /* Characteristic end handle */ 
  57:Generated_Source\PSoC4/BLE_custom.c ****         (const CYBLE_UUID128_T *) &cyBle_customUuid128[1], /* 128-bit UUID */ 
  58:Generated_Source\PSoC4/BLE_custom.c ****         0x02u, /* UUID Format - 16-bit (0x01) or 128-bit (0x02) */ 
  59:Generated_Source\PSoC4/BLE_custom.c ****         0x00u, /* Characteristic properties */ 
  60:Generated_Source\PSoC4/BLE_custom.c ****         0x01u, /* Number of descriptors */ 
  61:Generated_Source\PSoC4/BLE_custom.c ****         &cyBle_customCDesc[0], /* Characteristic Descriptors */ 
  62:Generated_Source\PSoC4/BLE_custom.c ****     },
  63:Generated_Source\PSoC4/BLE_custom.c **** };
  64:Generated_Source\PSoC4/BLE_custom.c **** 
  65:Generated_Source\PSoC4/BLE_custom.c **** CYBLE_CUSTOMC_T cyBle_customCServ[CYBLE_CUSTOMC_SERVICE_COUNT] = {
  66:Generated_Source\PSoC4/BLE_custom.c **** 
  67:Generated_Source\PSoC4/BLE_custom.c ****     /* Custom Service */
  68:Generated_Source\PSoC4/BLE_custom.c ****     {
  69:Generated_Source\PSoC4/BLE_custom.c ****         CYBLE_GATT_INVALID_ATTR_HANDLE_VALUE, /* Custom Service handle */ 
  70:Generated_Source\PSoC4/BLE_custom.c ****         (const CYBLE_UUID128_T *) &cyBle_customUuid128[0], /* 128-bit UUID */ 
  71:Generated_Source\PSoC4/BLE_custom.c ****         0x02u, /* UUID Format - 16-bit (0x01) or 128-bit (0x02) */ 
  72:Generated_Source\PSoC4/BLE_custom.c ****         0x01u, /* Number of characteristics */ 
  73:Generated_Source\PSoC4/BLE_custom.c ****         &cyBle_customCChar[0], /* Custom Service Characteristics */ 
  74:Generated_Source\PSoC4/BLE_custom.c ****     },
  75:Generated_Source\PSoC4/BLE_custom.c **** };
  76:Generated_Source\PSoC4/BLE_custom.c **** 
  77:Generated_Source\PSoC4/BLE_custom.c **** 
  78:Generated_Source\PSoC4/BLE_custom.c **** static uint16 cyBle_customDisServIndex;
  79:Generated_Source\PSoC4/BLE_custom.c **** static uint16 cyBle_customDisCharIndex;
  80:Generated_Source\PSoC4/BLE_custom.c **** 
  81:Generated_Source\PSoC4/BLE_custom.c **** #endif /* (CYBLE_CUSTOM_CLIENT) */
  82:Generated_Source\PSoC4/BLE_custom.c **** 
  83:Generated_Source\PSoC4/BLE_custom.c **** 
  84:Generated_Source\PSoC4/BLE_custom.c **** /****************************************************************************** 
  85:Generated_Source\PSoC4/BLE_custom.c **** * Function Name: CyBle_CustomInit
  86:Generated_Source\PSoC4/BLE_custom.c **** ***************************************************************************//**
  87:Generated_Source\PSoC4/BLE_custom.c **** * 
  88:Generated_Source\PSoC4/BLE_custom.c **** *  This function initializes Custom Service.
  89:Generated_Source\PSoC4/BLE_custom.c **** * 
  90:Generated_Source\PSoC4/BLE_custom.c **** * \return
  91:Generated_Source\PSoC4/BLE_custom.c **** *  None
  92:Generated_Source\PSoC4/BLE_custom.c **** * 
  93:Generated_Source\PSoC4/BLE_custom.c **** ******************************************************************************/
  94:Generated_Source\PSoC4/BLE_custom.c **** void CyBle_CustomInit(void)
  95:Generated_Source\PSoC4/BLE_custom.c **** {
 120              		.loc 1 95 0
 121              		.cfi_startproc
 122 0000 80B5     		push	{r7, lr}
 123              		.cfi_def_cfa_offset 8
 124              		.cfi_offset 7, -8
 125              		.cfi_offset 14, -4
 126 0002 82B0     		sub	sp, sp, #8
 127              		.cfi_def_cfa_offset 16
 128 0004 00AF     		add	r7, sp, #0
 129              		.cfi_def_cfa_register 7
  96:Generated_Source\PSoC4/BLE_custom.c ****     
  97:Generated_Source\PSoC4/BLE_custom.c **** #ifdef CYBLE_CUSTOM_CLIENT
  98:Generated_Source\PSoC4/BLE_custom.c **** 
  99:Generated_Source\PSoC4/BLE_custom.c ****     uint16 locServIndex;
ARM GAS  C:\Users\ANDREW~1\AppData\Local\Temp\ccpBQnLb.s 			page 5


 100:Generated_Source\PSoC4/BLE_custom.c ****     uint16 locCharIndex;
 101:Generated_Source\PSoC4/BLE_custom.c ****     uint16 locDescIndex;
 102:Generated_Source\PSoC4/BLE_custom.c ****     
 103:Generated_Source\PSoC4/BLE_custom.c ****     for(locServIndex = 0u; locServIndex < CYBLE_CUSTOMC_SERVICE_COUNT; locServIndex++)
 130              		.loc 1 103 0
 131 0006 BB1D     		add	r3, r7, #6
 132 0008 0022     		mov	r2, #0
 133 000a 1A80     		strh	r2, [r3]
 134 000c 60E0     		b	.L2
 135              	.L8:
 104:Generated_Source\PSoC4/BLE_custom.c ****     {
 105:Generated_Source\PSoC4/BLE_custom.c ****         if(cyBle_serverInfo[CYBLE_SRVI_CUSTOMS + locServIndex].range.startHandle == CYBLE_GATT_INVA
 136              		.loc 1 105 0
 137 000e BB1D     		add	r3, r7, #6
 138 0010 1B88     		ldrh	r3, [r3]
 139 0012 9A1C     		add	r2, r3, #2
 140 0014 3249     		ldr	r1, .L9
 141 0016 131C     		mov	r3, r2
 142 0018 5B00     		lsl	r3, r3, #1
 143 001a 9B18     		add	r3, r3, r2
 144 001c 5B00     		lsl	r3, r3, #1
 145 001e 5B5A     		ldrh	r3, [r3, r1]
 146 0020 002B     		cmp	r3, #0
 147 0022 50D1     		bne	.L3
 106:Generated_Source\PSoC4/BLE_custom.c ****         {
 107:Generated_Source\PSoC4/BLE_custom.c ****             for(locCharIndex = 0u; locCharIndex < cyBle_customCServ[locServIndex].charCount; locCha
 148              		.loc 1 107 0
 149 0024 3B1D     		add	r3, r7, #4
 150 0026 0022     		mov	r2, #0
 151 0028 1A80     		strh	r2, [r3]
 152 002a 40E0     		b	.L4
 153              	.L7:
 108:Generated_Source\PSoC4/BLE_custom.c ****             {
 109:Generated_Source\PSoC4/BLE_custom.c ****                 cyBle_customCServ[locServIndex].customServChar[locCharIndex].
 154              		.loc 1 109 0
 155 002c BB1D     		add	r3, r7, #6
 156 002e 1B88     		ldrh	r3, [r3]
 157 0030 2C4A     		ldr	r2, .L9+4
 158 0032 1B01     		lsl	r3, r3, #4
 159 0034 D318     		add	r3, r2, r3
 160 0036 0833     		add	r3, r3, #8
 161 0038 5A68     		ldr	r2, [r3, #4]
 162 003a 3B1D     		add	r3, r7, #4
 163 003c 1B88     		ldrh	r3, [r3]
 164 003e 1B01     		lsl	r3, r3, #4
 165 0040 D318     		add	r3, r2, r3
 110:Generated_Source\PSoC4/BLE_custom.c ****                     customServCharHandle = 0u;
 166              		.loc 1 110 0
 167 0042 0022     		mov	r2, #0
 168 0044 1A80     		strh	r2, [r3]
 111:Generated_Source\PSoC4/BLE_custom.c ****                 
 112:Generated_Source\PSoC4/BLE_custom.c ****                 for(locDescIndex = 0u; locDescIndex < 
 169              		.loc 1 112 0
 170 0046 BB1C     		add	r3, r7, #2
 171 0048 0022     		mov	r2, #0
 172 004a 1A80     		strh	r2, [r3]
 173 004c 19E0     		b	.L5
ARM GAS  C:\Users\ANDREW~1\AppData\Local\Temp\ccpBQnLb.s 			page 6


 174              	.L6:
 113:Generated_Source\PSoC4/BLE_custom.c ****                     cyBle_customCServ[locServIndex].customServChar[locCharIndex].descCount; 
 114:Generated_Source\PSoC4/BLE_custom.c ****                         locDescIndex++)
 115:Generated_Source\PSoC4/BLE_custom.c ****                 {
 116:Generated_Source\PSoC4/BLE_custom.c ****                     cyBle_customCServ[locServIndex].customServChar[locCharIndex].
 175              		.loc 1 116 0
 176 004e BB1D     		add	r3, r7, #6
 177 0050 1B88     		ldrh	r3, [r3]
 178 0052 244A     		ldr	r2, .L9+4
 179 0054 1B01     		lsl	r3, r3, #4
 180 0056 D318     		add	r3, r2, r3
 181 0058 0833     		add	r3, r3, #8
 182 005a 5A68     		ldr	r2, [r3, #4]
 183 005c 3B1D     		add	r3, r7, #4
 184 005e 1B88     		ldrh	r3, [r3]
 185 0060 1B01     		lsl	r3, r3, #4
 186 0062 D318     		add	r3, r2, r3
 187 0064 D968     		ldr	r1, [r3, #12]
 117:Generated_Source\PSoC4/BLE_custom.c ****                         customServCharDesc[locDescIndex].descHandle = 0u;
 188              		.loc 1 117 0
 189 0066 BB1C     		add	r3, r7, #2
 190 0068 1A88     		ldrh	r2, [r3]
 191 006a 131C     		mov	r3, r2
 192 006c 5B00     		lsl	r3, r3, #1
 193 006e 9B18     		add	r3, r3, r2
 194 0070 9B00     		lsl	r3, r3, #2
 195 0072 CB18     		add	r3, r1, r3
 196 0074 0022     		mov	r2, #0
 197 0076 1A80     		strh	r2, [r3]
 114:Generated_Source\PSoC4/BLE_custom.c ****                 {
 198              		.loc 1 114 0
 199 0078 BB1C     		add	r3, r7, #2
 200 007a 1A88     		ldrh	r2, [r3]
 201 007c BB1C     		add	r3, r7, #2
 202 007e 0132     		add	r2, r2, #1
 203 0080 1A80     		strh	r2, [r3]
 204              	.L5:
 113:Generated_Source\PSoC4/BLE_custom.c ****                     cyBle_customCServ[locServIndex].customServChar[locCharIndex].descCount; 
 205              		.loc 1 113 0 discriminator 1
 206 0082 BB1D     		add	r3, r7, #6
 207 0084 1B88     		ldrh	r3, [r3]
 208 0086 174A     		ldr	r2, .L9+4
 209 0088 1B01     		lsl	r3, r3, #4
 210 008a D318     		add	r3, r2, r3
 211 008c 0833     		add	r3, r3, #8
 212 008e 5A68     		ldr	r2, [r3, #4]
 213 0090 3B1D     		add	r3, r7, #4
 214 0092 1B88     		ldrh	r3, [r3]
 215 0094 1B01     		lsl	r3, r3, #4
 216 0096 D318     		add	r3, r2, r3
 217 0098 9B7A     		ldrb	r3, [r3, #10]
 112:Generated_Source\PSoC4/BLE_custom.c ****                     cyBle_customCServ[locServIndex].customServChar[locCharIndex].descCount; 
 218              		.loc 1 112 0 discriminator 1
 219 009a 9BB2     		uxth	r3, r3
 220 009c BA1C     		add	r2, r7, #2
 221 009e 1288     		ldrh	r2, [r2]
 222 00a0 9A42     		cmp	r2, r3
ARM GAS  C:\Users\ANDREW~1\AppData\Local\Temp\ccpBQnLb.s 			page 7


 223 00a2 D4D3     		bcc	.L6
 107:Generated_Source\PSoC4/BLE_custom.c ****             {
 224              		.loc 1 107 0 discriminator 2
 225 00a4 3B1D     		add	r3, r7, #4
 226 00a6 1A88     		ldrh	r2, [r3]
 227 00a8 3B1D     		add	r3, r7, #4
 228 00aa 0132     		add	r2, r2, #1
 229 00ac 1A80     		strh	r2, [r3]
 230              	.L4:
 107:Generated_Source\PSoC4/BLE_custom.c ****             {
 231              		.loc 1 107 0 is_stmt 0 discriminator 1
 232 00ae BB1D     		add	r3, r7, #6
 233 00b0 1B88     		ldrh	r3, [r3]
 234 00b2 0C4A     		ldr	r2, .L9+4
 235 00b4 1B01     		lsl	r3, r3, #4
 236 00b6 D318     		add	r3, r2, r3
 237 00b8 0833     		add	r3, r3, #8
 238 00ba 5B78     		ldrb	r3, [r3, #1]
 239 00bc 9BB2     		uxth	r3, r3
 240 00be 3A1D     		add	r2, r7, #4
 241 00c0 1288     		ldrh	r2, [r2]
 242 00c2 9A42     		cmp	r2, r3
 243 00c4 B2D3     		bcc	.L7
 244              	.L3:
 103:Generated_Source\PSoC4/BLE_custom.c ****     {
 245              		.loc 1 103 0 is_stmt 1 discriminator 2
 246 00c6 BB1D     		add	r3, r7, #6
 247 00c8 1A88     		ldrh	r2, [r3]
 248 00ca BB1D     		add	r3, r7, #6
 249 00cc 0132     		add	r2, r2, #1
 250 00ce 1A80     		strh	r2, [r3]
 251              	.L2:
 103:Generated_Source\PSoC4/BLE_custom.c ****     {
 252              		.loc 1 103 0 is_stmt 0 discriminator 1
 253 00d0 BB1D     		add	r3, r7, #6
 254 00d2 1B88     		ldrh	r3, [r3]
 255 00d4 002B     		cmp	r3, #0
 256 00d6 9AD0     		beq	.L8
 118:Generated_Source\PSoC4/BLE_custom.c ****                 }
 119:Generated_Source\PSoC4/BLE_custom.c ****             }
 120:Generated_Source\PSoC4/BLE_custom.c ****         }
 121:Generated_Source\PSoC4/BLE_custom.c ****     }
 122:Generated_Source\PSoC4/BLE_custom.c **** 
 123:Generated_Source\PSoC4/BLE_custom.c **** #endif /* (CYBLE_CUSTOM_CLIENT) */
 124:Generated_Source\PSoC4/BLE_custom.c **** }
 257              		.loc 1 124 0 is_stmt 1
 258 00d8 BD46     		mov	sp, r7
 259 00da 02B0     		add	sp, sp, #8
 260              		@ sp needed
 261 00dc 80BD     		pop	{r7, pc}
 262              	.L10:
 263 00de C046     		.align	2
 264              	.L9:
 265 00e0 00000000 		.word	cyBle_serverInfo
 266 00e4 00000000 		.word	cyBle_customCServ
 267              		.cfi_endproc
 268              	.LFE2:
ARM GAS  C:\Users\ANDREW~1\AppData\Local\Temp\ccpBQnLb.s 			page 8


 269              		.size	CyBle_CustomInit, .-CyBle_CustomInit
 270              		.section	.text.CyBle_CustomcDiscoverServiceEventHandler,"ax",%progbits
 271              		.align	2
 272              		.global	CyBle_CustomcDiscoverServiceEventHandler
 273              		.code	16
 274              		.thumb_func
 275              		.type	CyBle_CustomcDiscoverServiceEventHandler, %function
 276              	CyBle_CustomcDiscoverServiceEventHandler:
 277              	.LFB3:
 125:Generated_Source\PSoC4/BLE_custom.c **** 
 126:Generated_Source\PSoC4/BLE_custom.c **** 
 127:Generated_Source\PSoC4/BLE_custom.c **** #ifdef CYBLE_CUSTOM_CLIENT
 128:Generated_Source\PSoC4/BLE_custom.c **** 
 129:Generated_Source\PSoC4/BLE_custom.c ****     
 130:Generated_Source\PSoC4/BLE_custom.c **** /******************************************************************************
 131:Generated_Source\PSoC4/BLE_custom.c **** * Function Name: CyBle_CustomcDiscoverServiceEventHandler
 132:Generated_Source\PSoC4/BLE_custom.c **** ***************************************************************************//**
 133:Generated_Source\PSoC4/BLE_custom.c **** * 
 134:Generated_Source\PSoC4/BLE_custom.c **** *  This function is called on receiving a Read By Group Response event or 
 135:Generated_Source\PSoC4/BLE_custom.c **** *  Read response with 128-bit service uuid. 
 136:Generated_Source\PSoC4/BLE_custom.c **** * 
 137:Generated_Source\PSoC4/BLE_custom.c **** *  \param *discServInfo: The pointer to a service information structure.
 138:Generated_Source\PSoC4/BLE_custom.c **** * 
 139:Generated_Source\PSoC4/BLE_custom.c **** * \return
 140:Generated_Source\PSoC4/BLE_custom.c **** *  None
 141:Generated_Source\PSoC4/BLE_custom.c **** * 
 142:Generated_Source\PSoC4/BLE_custom.c **** ******************************************************************************/
 143:Generated_Source\PSoC4/BLE_custom.c **** void CyBle_CustomcDiscoverServiceEventHandler(const CYBLE_DISC_SRVC128_INFO_T *discServInfo)
 144:Generated_Source\PSoC4/BLE_custom.c **** {
 278              		.loc 1 144 0
 279              		.cfi_startproc
 280 0000 80B5     		push	{r7, lr}
 281              		.cfi_def_cfa_offset 8
 282              		.cfi_offset 7, -8
 283              		.cfi_offset 14, -4
 284 0002 84B0     		sub	sp, sp, #16
 285              		.cfi_def_cfa_offset 24
 286 0004 00AF     		add	r7, sp, #0
 287              		.cfi_def_cfa_register 7
 288 0006 7860     		str	r0, [r7, #4]
 145:Generated_Source\PSoC4/BLE_custom.c ****     uint16 j;
 146:Generated_Source\PSoC4/BLE_custom.c ****     uint8 flag = 0u;
 289              		.loc 1 146 0
 290 0008 0D23     		mov	r3, #13
 291 000a FB18     		add	r3, r7, r3
 292 000c 0022     		mov	r2, #0
 293 000e 1A70     		strb	r2, [r3]
 147:Generated_Source\PSoC4/BLE_custom.c ****     
 148:Generated_Source\PSoC4/BLE_custom.c ****     /* Services with 128 bit UUID have discServInfo->uuid equal to 0 and address to 
 149:Generated_Source\PSoC4/BLE_custom.c ****        128 uuid is stored in cyBle_customCServ.uuid128
 150:Generated_Source\PSoC4/BLE_custom.c ****     */
 151:Generated_Source\PSoC4/BLE_custom.c **** 	for(j = 0u; (j < CYBLE_CUSTOMC_SERVICE_COUNT) && (flag == 0u); j++)
 294              		.loc 1 151 0
 295 0010 0E23     		mov	r3, #14
 296 0012 FB18     		add	r3, r7, r3
 297 0014 0022     		mov	r2, #0
 298 0016 1A80     		strh	r2, [r3]
ARM GAS  C:\Users\ANDREW~1\AppData\Local\Temp\ccpBQnLb.s 			page 9


 299 0018 46E0     		b	.L12
 300              	.L15:
 152:Generated_Source\PSoC4/BLE_custom.c ****     {
 153:Generated_Source\PSoC4/BLE_custom.c ****         if(cyBle_customCServ[j].uuidFormat == CYBLE_GATT_128_BIT_UUID_FORMAT)
 301              		.loc 1 153 0
 302 001a 0E23     		mov	r3, #14
 303 001c FB18     		add	r3, r7, r3
 304 001e 1B88     		ldrh	r3, [r3]
 305 0020 284A     		ldr	r2, .L16
 306 0022 1B01     		lsl	r3, r3, #4
 307 0024 D318     		add	r3, r2, r3
 308 0026 0833     		add	r3, r3, #8
 309 0028 1B78     		ldrb	r3, [r3]
 310 002a 022B     		cmp	r3, #2
 311 002c 35D1     		bne	.L13
 154:Generated_Source\PSoC4/BLE_custom.c ****         {
 155:Generated_Source\PSoC4/BLE_custom.c ****             if(memcmp(cyBle_customCServ[j].uuid, &discServInfo->uuid.uuid128, CYBLE_GATT_128_BIT_UU
 312              		.loc 1 155 0
 313 002e 0E23     		mov	r3, #14
 314 0030 FB18     		add	r3, r7, r3
 315 0032 1B88     		ldrh	r3, [r3]
 316 0034 234A     		ldr	r2, .L16
 317 0036 1B01     		lsl	r3, r3, #4
 318 0038 D318     		add	r3, r2, r3
 319 003a 5A68     		ldr	r2, [r3, #4]
 320 003c 7B68     		ldr	r3, [r7, #4]
 321 003e 0433     		add	r3, r3, #4
 322 0040 101C     		mov	r0, r2
 323 0042 191C     		mov	r1, r3
 324 0044 1022     		mov	r2, #16
 325 0046 FFF7FEFF 		bl	memcmp
 326 004a 031E     		sub	r3, r0, #0
 327 004c 25D1     		bne	.L13
 156:Generated_Source\PSoC4/BLE_custom.c ****             {
 157:Generated_Source\PSoC4/BLE_custom.c ****                 if(cyBle_serverInfo[j + (uint16)CYBLE_SRVI_CUSTOMS].range.startHandle == 
 328              		.loc 1 157 0
 329 004e 0E23     		mov	r3, #14
 330 0050 FB18     		add	r3, r7, r3
 331 0052 1B88     		ldrh	r3, [r3]
 332 0054 9A1C     		add	r2, r3, #2
 333 0056 1C49     		ldr	r1, .L16+4
 334 0058 131C     		mov	r3, r2
 335 005a 5B00     		lsl	r3, r3, #1
 336 005c 9B18     		add	r3, r3, r2
 337 005e 5B00     		lsl	r3, r3, #1
 338 0060 5B5A     		ldrh	r3, [r3, r1]
 339 0062 002B     		cmp	r3, #0
 340 0064 19D1     		bne	.L13
 158:Generated_Source\PSoC4/BLE_custom.c ****                    CYBLE_GATT_INVALID_ATTR_HANDLE_VALUE)
 159:Generated_Source\PSoC4/BLE_custom.c ****                 {
 160:Generated_Source\PSoC4/BLE_custom.c ****                     cyBle_serverInfo[j + (uint16)CYBLE_SRVI_CUSTOMS].range = discServInfo->range;
 341              		.loc 1 160 0
 342 0066 0E23     		mov	r3, #14
 343 0068 FB18     		add	r3, r7, r3
 344 006a 1B88     		ldrh	r3, [r3]
 345 006c 9A1C     		add	r2, r3, #2
 346 006e 1649     		ldr	r1, .L16+4
ARM GAS  C:\Users\ANDREW~1\AppData\Local\Temp\ccpBQnLb.s 			page 10


 347 0070 131C     		mov	r3, r2
 348 0072 5B00     		lsl	r3, r3, #1
 349 0074 9B18     		add	r3, r3, r2
 350 0076 5B00     		lsl	r3, r3, #1
 351 0078 7A68     		ldr	r2, [r7, #4]
 352 007a CB18     		add	r3, r1, r3
 353 007c 111C     		mov	r1, r2
 354 007e 0422     		mov	r2, #4
 355 0080 181C     		mov	r0, r3
 356 0082 FFF7FEFF 		bl	memcpy
 161:Generated_Source\PSoC4/BLE_custom.c ****                     cyBle_disCount++;
 357              		.loc 1 161 0
 358 0086 114B     		ldr	r3, .L16+8
 359 0088 1B78     		ldrb	r3, [r3]
 360 008a 0133     		add	r3, r3, #1
 361 008c DAB2     		uxtb	r2, r3
 362 008e 0F4B     		ldr	r3, .L16+8
 363 0090 1A70     		strb	r2, [r3]
 162:Generated_Source\PSoC4/BLE_custom.c ****                     flag = 1u;
 364              		.loc 1 162 0
 365 0092 0D23     		mov	r3, #13
 366 0094 FB18     		add	r3, r7, r3
 367 0096 0122     		mov	r2, #1
 368 0098 1A70     		strb	r2, [r3]
 369              	.L13:
 151:Generated_Source\PSoC4/BLE_custom.c ****     {
 370              		.loc 1 151 0 discriminator 2
 371 009a 0E23     		mov	r3, #14
 372 009c FB18     		add	r3, r7, r3
 373 009e 1A88     		ldrh	r2, [r3]
 374 00a0 0E23     		mov	r3, #14
 375 00a2 FB18     		add	r3, r7, r3
 376 00a4 0132     		add	r2, r2, #1
 377 00a6 1A80     		strh	r2, [r3]
 378              	.L12:
 151:Generated_Source\PSoC4/BLE_custom.c ****     {
 379              		.loc 1 151 0 is_stmt 0 discriminator 1
 380 00a8 0E23     		mov	r3, #14
 381 00aa FB18     		add	r3, r7, r3
 382 00ac 1B88     		ldrh	r3, [r3]
 383 00ae 002B     		cmp	r3, #0
 384 00b0 04D1     		bne	.L11
 151:Generated_Source\PSoC4/BLE_custom.c ****     {
 385              		.loc 1 151 0 discriminator 3
 386 00b2 0D23     		mov	r3, #13
 387 00b4 FB18     		add	r3, r7, r3
 388 00b6 1B78     		ldrb	r3, [r3]
 389 00b8 002B     		cmp	r3, #0
 390 00ba AED0     		beq	.L15
 391              	.L11:
 163:Generated_Source\PSoC4/BLE_custom.c ****                 }
 164:Generated_Source\PSoC4/BLE_custom.c ****             }
 165:Generated_Source\PSoC4/BLE_custom.c ****         }
 166:Generated_Source\PSoC4/BLE_custom.c ****     }
 167:Generated_Source\PSoC4/BLE_custom.c **** }
 392              		.loc 1 167 0 is_stmt 1
 393 00bc BD46     		mov	sp, r7
ARM GAS  C:\Users\ANDREW~1\AppData\Local\Temp\ccpBQnLb.s 			page 11


 394 00be 04B0     		add	sp, sp, #16
 395              		@ sp needed
 396 00c0 80BD     		pop	{r7, pc}
 397              	.L17:
 398 00c2 C046     		.align	2
 399              	.L16:
 400 00c4 00000000 		.word	cyBle_customCServ
 401 00c8 00000000 		.word	cyBle_serverInfo
 402 00cc 00000000 		.word	cyBle_disCount
 403              		.cfi_endproc
 404              	.LFE3:
 405              		.size	CyBle_CustomcDiscoverServiceEventHandler, .-CyBle_CustomcDiscoverServiceEventHandler
 406              		.section	.text.CyBle_CustomcDiscoverCharacteristicsEventHandler,"ax",%progbits
 407              		.align	2
 408              		.global	CyBle_CustomcDiscoverCharacteristicsEventHandler
 409              		.code	16
 410              		.thumb_func
 411              		.type	CyBle_CustomcDiscoverCharacteristicsEventHandler, %function
 412              	CyBle_CustomcDiscoverCharacteristicsEventHandler:
 413              	.LFB4:
 168:Generated_Source\PSoC4/BLE_custom.c **** 
 169:Generated_Source\PSoC4/BLE_custom.c **** 
 170:Generated_Source\PSoC4/BLE_custom.c **** /******************************************************************************
 171:Generated_Source\PSoC4/BLE_custom.c **** * Function Name: CyBle_CustomcDiscoverCharacteristicsEventHandler
 172:Generated_Source\PSoC4/BLE_custom.c **** ***************************************************************************//**
 173:Generated_Source\PSoC4/BLE_custom.c **** * 
 174:Generated_Source\PSoC4/BLE_custom.c **** *  This function is called on receiving a CYBLE_EVT_GATTC_READ_BY_TYPE_RSP
 175:Generated_Source\PSoC4/BLE_custom.c **** *  event. Based on the service index, an appropriate data structure is populated
 176:Generated_Source\PSoC4/BLE_custom.c **** *  using the data received as part of the callback.
 177:Generated_Source\PSoC4/BLE_custom.c **** * 
 178:Generated_Source\PSoC4/BLE_custom.c **** *  \param *discCharInfo: The pointer to a characteristic information structure.
 179:Generated_Source\PSoC4/BLE_custom.c **** *  \param discoveryService: The index of the service instance.
 180:Generated_Source\PSoC4/BLE_custom.c **** * 
 181:Generated_Source\PSoC4/BLE_custom.c **** * \return
 182:Generated_Source\PSoC4/BLE_custom.c **** *  None
 183:Generated_Source\PSoC4/BLE_custom.c **** * 
 184:Generated_Source\PSoC4/BLE_custom.c **** ******************************************************************************/
 185:Generated_Source\PSoC4/BLE_custom.c **** void CyBle_CustomcDiscoverCharacteristicsEventHandler(uint16 discoveryService, const CYBLE_DISC_CHA
 186:Generated_Source\PSoC4/BLE_custom.c **** {
 414              		.loc 1 186 0
 415              		.cfi_startproc
 416 0000 80B5     		push	{r7, lr}
 417              		.cfi_def_cfa_offset 8
 418              		.cfi_offset 7, -8
 419              		.cfi_offset 14, -4
 420 0002 84B0     		sub	sp, sp, #16
 421              		.cfi_def_cfa_offset 24
 422 0004 00AF     		add	r7, sp, #0
 423              		.cfi_def_cfa_register 7
 424 0006 021C     		mov	r2, r0
 425 0008 3960     		str	r1, [r7]
 426 000a BB1D     		add	r3, r7, #6
 427 000c 1A80     		strh	r2, [r3]
 187:Generated_Source\PSoC4/BLE_custom.c ****     uint16 locCharIndex;
 188:Generated_Source\PSoC4/BLE_custom.c ****     static CYBLE_GATT_DB_ATTR_HANDLE_T *customsLastEndHandle = NULL;
 189:Generated_Source\PSoC4/BLE_custom.c ****     static uint16 discoveryLastServ = 0u;    
 190:Generated_Source\PSoC4/BLE_custom.c ****     uint8 locReqHandle = 0u;
ARM GAS  C:\Users\ANDREW~1\AppData\Local\Temp\ccpBQnLb.s 			page 12


 428              		.loc 1 190 0
 429 000e 0D23     		mov	r3, #13
 430 0010 FB18     		add	r3, r7, r3
 431 0012 0022     		mov	r2, #0
 432 0014 1A70     		strb	r2, [r3]
 191:Generated_Source\PSoC4/BLE_custom.c **** 
 192:Generated_Source\PSoC4/BLE_custom.c ****     /* Update last characteristic endHandle to declaration handle of this characteristic */
 193:Generated_Source\PSoC4/BLE_custom.c ****     if(customsLastEndHandle != NULL)
 433              		.loc 1 193 0
 434 0016 774B     		ldr	r3, .L28
 435 0018 1B68     		ldr	r3, [r3]
 436 001a 002B     		cmp	r3, #0
 437 001c 0FD0     		beq	.L19
 194:Generated_Source\PSoC4/BLE_custom.c ****     {
 195:Generated_Source\PSoC4/BLE_custom.c ****         if(discoveryLastServ == discoveryService)
 438              		.loc 1 195 0
 439 001e 764B     		ldr	r3, .L28+4
 440 0020 1B88     		ldrh	r3, [r3]
 441 0022 BA1D     		add	r2, r7, #6
 442 0024 1288     		ldrh	r2, [r2]
 443 0026 9A42     		cmp	r2, r3
 444 0028 06D1     		bne	.L20
 196:Generated_Source\PSoC4/BLE_custom.c ****         {
 197:Generated_Source\PSoC4/BLE_custom.c ****             *customsLastEndHandle = discCharInfo->charDeclHandle - 1u;
 445              		.loc 1 197 0
 446 002a 724B     		ldr	r3, .L28
 447 002c 1B68     		ldr	r3, [r3]
 448 002e 3A68     		ldr	r2, [r7]
 449 0030 1288     		ldrh	r2, [r2]
 450 0032 013A     		sub	r2, r2, #1
 451 0034 92B2     		uxth	r2, r2
 452 0036 1A80     		strh	r2, [r3]
 453              	.L20:
 198:Generated_Source\PSoC4/BLE_custom.c ****         }
 199:Generated_Source\PSoC4/BLE_custom.c ****         customsLastEndHandle = NULL;
 454              		.loc 1 199 0
 455 0038 6E4B     		ldr	r3, .L28
 456 003a 0022     		mov	r2, #0
 457 003c 1A60     		str	r2, [r3]
 458              	.L19:
 200:Generated_Source\PSoC4/BLE_custom.c ****     }
 201:Generated_Source\PSoC4/BLE_custom.c ****     
 202:Generated_Source\PSoC4/BLE_custom.c ****     for(locCharIndex = 0u; (locCharIndex < cyBle_customCServ[discoveryService].charCount) && (locRe
 459              		.loc 1 202 0
 460 003e 0E23     		mov	r3, #14
 461 0040 FB18     		add	r3, r7, r3
 462 0042 0022     		mov	r2, #0
 463 0044 1A80     		strh	r2, [r3]
 464 0046 ADE0     		b	.L21
 465              	.L26:
 466              	.LBB2:
 203:Generated_Source\PSoC4/BLE_custom.c ****         locCharIndex++)
 204:Generated_Source\PSoC4/BLE_custom.c ****     {
 205:Generated_Source\PSoC4/BLE_custom.c ****         uint8 flag = 0u;
 467              		.loc 1 205 0
 468 0048 0C23     		mov	r3, #12
 469 004a FB18     		add	r3, r7, r3
ARM GAS  C:\Users\ANDREW~1\AppData\Local\Temp\ccpBQnLb.s 			page 13


 470 004c 0022     		mov	r2, #0
 471 004e 1A70     		strb	r2, [r3]
 206:Generated_Source\PSoC4/BLE_custom.c ****         
 207:Generated_Source\PSoC4/BLE_custom.c ****         /* Support 128 bit uuid */
 208:Generated_Source\PSoC4/BLE_custom.c ****         if((discCharInfo->uuidFormat == CYBLE_GATT_128_BIT_UUID_FORMAT) &&
 472              		.loc 1 208 0
 473 0050 3B68     		ldr	r3, [r7]
 474 0052 9B7D     		ldrb	r3, [r3, #22]
 475 0054 022B     		cmp	r3, #2
 476 0056 28D1     		bne	.L22
 209:Generated_Source\PSoC4/BLE_custom.c ****            (cyBle_customCServ[discoveryService].customServChar[locCharIndex].uuidFormat == 
 477              		.loc 1 209 0 discriminator 1
 478 0058 BB1D     		add	r3, r7, #6
 479 005a 1B88     		ldrh	r3, [r3]
 480 005c 674A     		ldr	r2, .L28+8
 481 005e 1B01     		lsl	r3, r3, #4
 482 0060 D318     		add	r3, r2, r3
 483 0062 0833     		add	r3, r3, #8
 484 0064 5A68     		ldr	r2, [r3, #4]
 485 0066 0E23     		mov	r3, #14
 486 0068 FB18     		add	r3, r7, r3
 487 006a 1B88     		ldrh	r3, [r3]
 488 006c 1B01     		lsl	r3, r3, #4
 489 006e D318     		add	r3, r2, r3
 490 0070 1B7A     		ldrb	r3, [r3, #8]
 208:Generated_Source\PSoC4/BLE_custom.c ****            (cyBle_customCServ[discoveryService].customServChar[locCharIndex].uuidFormat == 
 491              		.loc 1 208 0 discriminator 1
 492 0072 022B     		cmp	r3, #2
 493 0074 19D1     		bne	.L22
 210:Generated_Source\PSoC4/BLE_custom.c ****                 CYBLE_GATT_128_BIT_UUID_FORMAT))
 211:Generated_Source\PSoC4/BLE_custom.c ****         {
 212:Generated_Source\PSoC4/BLE_custom.c ****             if(memcmp(cyBle_customCServ[discoveryService].customServChar[locCharIndex].uuid, 
 494              		.loc 1 212 0
 495 0076 BB1D     		add	r3, r7, #6
 496 0078 1B88     		ldrh	r3, [r3]
 497 007a 604A     		ldr	r2, .L28+8
 498 007c 1B01     		lsl	r3, r3, #4
 499 007e D318     		add	r3, r2, r3
 500 0080 0833     		add	r3, r3, #8
 501 0082 5A68     		ldr	r2, [r3, #4]
 502 0084 0E23     		mov	r3, #14
 503 0086 FB18     		add	r3, r7, r3
 504 0088 1B88     		ldrh	r3, [r3]
 505 008a 1B01     		lsl	r3, r3, #4
 506 008c D318     		add	r3, r2, r3
 507 008e 5A68     		ldr	r2, [r3, #4]
 213:Generated_Source\PSoC4/BLE_custom.c ****                 &discCharInfo->uuid.uuid128, CYBLE_GATT_128_BIT_UUID_SIZE) == 0u)
 508              		.loc 1 213 0
 509 0090 3B68     		ldr	r3, [r7]
 510 0092 0633     		add	r3, r3, #6
 212:Generated_Source\PSoC4/BLE_custom.c ****                 &discCharInfo->uuid.uuid128, CYBLE_GATT_128_BIT_UUID_SIZE) == 0u)
 511              		.loc 1 212 0
 512 0094 101C     		mov	r0, r2
 513 0096 191C     		mov	r1, r3
 514 0098 1022     		mov	r2, #16
 515 009a FFF7FEFF 		bl	memcmp
 516 009e 031E     		sub	r3, r0, #0
ARM GAS  C:\Users\ANDREW~1\AppData\Local\Temp\ccpBQnLb.s 			page 14


 517 00a0 03D1     		bne	.L22
 214:Generated_Source\PSoC4/BLE_custom.c ****             {
 215:Generated_Source\PSoC4/BLE_custom.c ****                 flag = 1u;
 518              		.loc 1 215 0
 519 00a2 0C23     		mov	r3, #12
 520 00a4 FB18     		add	r3, r7, r3
 521 00a6 0122     		mov	r2, #1
 522 00a8 1A70     		strb	r2, [r3]
 523              	.L22:
 216:Generated_Source\PSoC4/BLE_custom.c ****             }
 217:Generated_Source\PSoC4/BLE_custom.c ****         }
 218:Generated_Source\PSoC4/BLE_custom.c ****         
 219:Generated_Source\PSoC4/BLE_custom.c ****         /* And support 16 bit uuid */
 220:Generated_Source\PSoC4/BLE_custom.c ****         if((discCharInfo->uuidFormat == CYBLE_GATT_16_BIT_UUID_FORMAT) &&
 524              		.loc 1 220 0
 525 00aa 3B68     		ldr	r3, [r7]
 526 00ac 9B7D     		ldrb	r3, [r3, #22]
 527 00ae 012B     		cmp	r3, #1
 528 00b0 28D1     		bne	.L23
 221:Generated_Source\PSoC4/BLE_custom.c ****            (cyBle_customCServ[discoveryService].customServChar[locCharIndex].uuidFormat == 
 529              		.loc 1 221 0 discriminator 1
 530 00b2 BB1D     		add	r3, r7, #6
 531 00b4 1B88     		ldrh	r3, [r3]
 532 00b6 514A     		ldr	r2, .L28+8
 533 00b8 1B01     		lsl	r3, r3, #4
 534 00ba D318     		add	r3, r2, r3
 535 00bc 0833     		add	r3, r3, #8
 536 00be 5A68     		ldr	r2, [r3, #4]
 537 00c0 0E23     		mov	r3, #14
 538 00c2 FB18     		add	r3, r7, r3
 539 00c4 1B88     		ldrh	r3, [r3]
 540 00c6 1B01     		lsl	r3, r3, #4
 541 00c8 D318     		add	r3, r2, r3
 542 00ca 1B7A     		ldrb	r3, [r3, #8]
 220:Generated_Source\PSoC4/BLE_custom.c ****            (cyBle_customCServ[discoveryService].customServChar[locCharIndex].uuidFormat == 
 543              		.loc 1 220 0 discriminator 1
 544 00cc 012B     		cmp	r3, #1
 545 00ce 19D1     		bne	.L23
 222:Generated_Source\PSoC4/BLE_custom.c ****                 CYBLE_GATT_16_BIT_UUID_FORMAT))
 223:Generated_Source\PSoC4/BLE_custom.c ****         {
 224:Generated_Source\PSoC4/BLE_custom.c ****             if(memcmp(cyBle_customCServ[discoveryService].customServChar[locCharIndex].uuid, 
 546              		.loc 1 224 0
 547 00d0 BB1D     		add	r3, r7, #6
 548 00d2 1B88     		ldrh	r3, [r3]
 549 00d4 494A     		ldr	r2, .L28+8
 550 00d6 1B01     		lsl	r3, r3, #4
 551 00d8 D318     		add	r3, r2, r3
 552 00da 0833     		add	r3, r3, #8
 553 00dc 5A68     		ldr	r2, [r3, #4]
 554 00de 0E23     		mov	r3, #14
 555 00e0 FB18     		add	r3, r7, r3
 556 00e2 1B88     		ldrh	r3, [r3]
 557 00e4 1B01     		lsl	r3, r3, #4
 558 00e6 D318     		add	r3, r2, r3
 559 00e8 5A68     		ldr	r2, [r3, #4]
 225:Generated_Source\PSoC4/BLE_custom.c ****                 &discCharInfo->uuid.uuid16, CYBLE_GATT_16_BIT_UUID_SIZE) == 0u)
 560              		.loc 1 225 0
ARM GAS  C:\Users\ANDREW~1\AppData\Local\Temp\ccpBQnLb.s 			page 15


 561 00ea 3B68     		ldr	r3, [r7]
 562 00ec 0633     		add	r3, r3, #6
 224:Generated_Source\PSoC4/BLE_custom.c ****                 &discCharInfo->uuid.uuid16, CYBLE_GATT_16_BIT_UUID_SIZE) == 0u)
 563              		.loc 1 224 0
 564 00ee 101C     		mov	r0, r2
 565 00f0 191C     		mov	r1, r3
 566 00f2 0222     		mov	r2, #2
 567 00f4 FFF7FEFF 		bl	memcmp
 568 00f8 031E     		sub	r3, r0, #0
 569 00fa 03D1     		bne	.L23
 226:Generated_Source\PSoC4/BLE_custom.c ****             {
 227:Generated_Source\PSoC4/BLE_custom.c ****                 flag = 1u;
 570              		.loc 1 227 0
 571 00fc 0C23     		mov	r3, #12
 572 00fe FB18     		add	r3, r7, r3
 573 0100 0122     		mov	r2, #1
 574 0102 1A70     		strb	r2, [r3]
 575              	.L23:
 228:Generated_Source\PSoC4/BLE_custom.c ****             }
 229:Generated_Source\PSoC4/BLE_custom.c ****         }
 230:Generated_Source\PSoC4/BLE_custom.c ****         
 231:Generated_Source\PSoC4/BLE_custom.c ****         if((flag == 1u) && 
 576              		.loc 1 231 0
 577 0104 0C23     		mov	r3, #12
 578 0106 FB18     		add	r3, r7, r3
 579 0108 1B78     		ldrb	r3, [r3]
 580 010a 012B     		cmp	r3, #1
 581 010c 43D1     		bne	.L24
 232:Generated_Source\PSoC4/BLE_custom.c ****            (cyBle_customCServ[discoveryService].customServChar[locCharIndex].customServCharHandle
 582              		.loc 1 232 0 discriminator 1
 583 010e BB1D     		add	r3, r7, #6
 584 0110 1B88     		ldrh	r3, [r3]
 585 0112 3A4A     		ldr	r2, .L28+8
 586 0114 1B01     		lsl	r3, r3, #4
 587 0116 D318     		add	r3, r2, r3
 588 0118 0833     		add	r3, r3, #8
 589 011a 5A68     		ldr	r2, [r3, #4]
 590 011c 0E23     		mov	r3, #14
 591 011e FB18     		add	r3, r7, r3
 592 0120 1B88     		ldrh	r3, [r3]
 593 0122 1B01     		lsl	r3, r3, #4
 594 0124 D318     		add	r3, r2, r3
 595 0126 1B88     		ldrh	r3, [r3]
 231:Generated_Source\PSoC4/BLE_custom.c ****            (cyBle_customCServ[discoveryService].customServChar[locCharIndex].customServCharHandle
 596              		.loc 1 231 0 discriminator 1
 597 0128 002B     		cmp	r3, #0
 598 012a 34D1     		bne	.L24
 233:Generated_Source\PSoC4/BLE_custom.c ****                 == CYBLE_GATT_INVALID_ATTR_HANDLE_VALUE))
 234:Generated_Source\PSoC4/BLE_custom.c ****         {
 235:Generated_Source\PSoC4/BLE_custom.c ****             cyBle_customCServ[discoveryService].customServChar[locCharIndex].customServCharHandle =
 599              		.loc 1 235 0
 600 012c BB1D     		add	r3, r7, #6
 601 012e 1B88     		ldrh	r3, [r3]
 602 0130 324A     		ldr	r2, .L28+8
 603 0132 1B01     		lsl	r3, r3, #4
 604 0134 D318     		add	r3, r2, r3
 605 0136 0833     		add	r3, r3, #8
ARM GAS  C:\Users\ANDREW~1\AppData\Local\Temp\ccpBQnLb.s 			page 16


 606 0138 5A68     		ldr	r2, [r3, #4]
 607 013a 0E23     		mov	r3, #14
 608 013c FB18     		add	r3, r7, r3
 609 013e 1B88     		ldrh	r3, [r3]
 610 0140 1B01     		lsl	r3, r3, #4
 611 0142 D318     		add	r3, r2, r3
 236:Generated_Source\PSoC4/BLE_custom.c ****                 discCharInfo->valueHandle;
 612              		.loc 1 236 0
 613 0144 3A68     		ldr	r2, [r7]
 614 0146 9288     		ldrh	r2, [r2, #4]
 235:Generated_Source\PSoC4/BLE_custom.c ****                 discCharInfo->valueHandle;
 615              		.loc 1 235 0
 616 0148 1A80     		strh	r2, [r3]
 237:Generated_Source\PSoC4/BLE_custom.c ****             cyBle_customCServ[discoveryService].customServChar[locCharIndex].properties = 
 617              		.loc 1 237 0
 618 014a BB1D     		add	r3, r7, #6
 619 014c 1B88     		ldrh	r3, [r3]
 620 014e 2B4A     		ldr	r2, .L28+8
 621 0150 1B01     		lsl	r3, r3, #4
 622 0152 D318     		add	r3, r2, r3
 623 0154 0833     		add	r3, r3, #8
 624 0156 5A68     		ldr	r2, [r3, #4]
 625 0158 0E23     		mov	r3, #14
 626 015a FB18     		add	r3, r7, r3
 627 015c 1B88     		ldrh	r3, [r3]
 628 015e 1B01     		lsl	r3, r3, #4
 629 0160 D318     		add	r3, r2, r3
 238:Generated_Source\PSoC4/BLE_custom.c ****                 discCharInfo->properties;
 630              		.loc 1 238 0
 631 0162 3A68     		ldr	r2, [r7]
 632 0164 9278     		ldrb	r2, [r2, #2]
 237:Generated_Source\PSoC4/BLE_custom.c ****             cyBle_customCServ[discoveryService].customServChar[locCharIndex].properties = 
 633              		.loc 1 237 0
 634 0166 5A72     		strb	r2, [r3, #9]
 239:Generated_Source\PSoC4/BLE_custom.c ****             /* Init pointer to characteristic endHandle */
 240:Generated_Source\PSoC4/BLE_custom.c ****             customsLastEndHandle = &cyBle_customCServ[discoveryService].customServChar[locCharIndex
 635              		.loc 1 240 0
 636 0168 BB1D     		add	r3, r7, #6
 637 016a 1B88     		ldrh	r3, [r3]
 638 016c 234A     		ldr	r2, .L28+8
 639 016e 1B01     		lsl	r3, r3, #4
 640 0170 D318     		add	r3, r2, r3
 641 0172 0833     		add	r3, r3, #8
 642 0174 5A68     		ldr	r2, [r3, #4]
 643 0176 0E23     		mov	r3, #14
 644 0178 FB18     		add	r3, r7, r3
 645 017a 1B88     		ldrh	r3, [r3]
 646 017c 1B01     		lsl	r3, r3, #4
 647 017e D318     		add	r3, r2, r3
 648 0180 9A1C     		add	r2, r3, #2
 649 0182 1C4B     		ldr	r3, .L28
 650 0184 1A60     		str	r2, [r3]
 241:Generated_Source\PSoC4/BLE_custom.c ****                                     customServCharEndHandle;
 242:Generated_Source\PSoC4/BLE_custom.c ****             /* Init service index of discovered characteristic */
 243:Generated_Source\PSoC4/BLE_custom.c ****             discoveryLastServ = discoveryService;
 651              		.loc 1 243 0
 652 0186 1C4B     		ldr	r3, .L28+4
ARM GAS  C:\Users\ANDREW~1\AppData\Local\Temp\ccpBQnLb.s 			page 17


 653 0188 BA1D     		add	r2, r7, #6
 654 018a 1288     		ldrh	r2, [r2]
 655 018c 1A80     		strh	r2, [r3]
 244:Generated_Source\PSoC4/BLE_custom.c ****             locReqHandle = 1u;
 656              		.loc 1 244 0
 657 018e 0D23     		mov	r3, #13
 658 0190 FB18     		add	r3, r7, r3
 659 0192 0122     		mov	r2, #1
 660 0194 1A70     		strb	r2, [r3]
 661              	.L24:
 662              	.LBE2:
 203:Generated_Source\PSoC4/BLE_custom.c ****     {
 663              		.loc 1 203 0
 664 0196 0E23     		mov	r3, #14
 665 0198 FB18     		add	r3, r7, r3
 666 019a 1A88     		ldrh	r2, [r3]
 667 019c 0E23     		mov	r3, #14
 668 019e FB18     		add	r3, r7, r3
 669 01a0 0132     		add	r2, r2, #1
 670 01a2 1A80     		strh	r2, [r3]
 671              	.L21:
 202:Generated_Source\PSoC4/BLE_custom.c ****         locCharIndex++)
 672              		.loc 1 202 0 discriminator 1
 673 01a4 BB1D     		add	r3, r7, #6
 674 01a6 1B88     		ldrh	r3, [r3]
 675 01a8 144A     		ldr	r2, .L28+8
 676 01aa 1B01     		lsl	r3, r3, #4
 677 01ac D318     		add	r3, r2, r3
 678 01ae 0833     		add	r3, r3, #8
 679 01b0 5B78     		ldrb	r3, [r3, #1]
 680 01b2 9BB2     		uxth	r3, r3
 681 01b4 0E22     		mov	r2, #14
 682 01b6 BA18     		add	r2, r7, r2
 683 01b8 1288     		ldrh	r2, [r2]
 684 01ba 9A42     		cmp	r2, r3
 685 01bc 05D2     		bcs	.L25
 202:Generated_Source\PSoC4/BLE_custom.c ****         locCharIndex++)
 686              		.loc 1 202 0 is_stmt 0 discriminator 2
 687 01be 0D23     		mov	r3, #13
 688 01c0 FB18     		add	r3, r7, r3
 689 01c2 1B78     		ldrb	r3, [r3]
 690 01c4 002B     		cmp	r3, #0
 691 01c6 00D1     		bne	.LCB530
 692 01c8 3EE7     		b	.L26	@long jump
 693              	.LCB530:
 694              	.L25:
 245:Generated_Source\PSoC4/BLE_custom.c ****         }
 246:Generated_Source\PSoC4/BLE_custom.c ****     }
 247:Generated_Source\PSoC4/BLE_custom.c ****     
 248:Generated_Source\PSoC4/BLE_custom.c ****     /* Init characteristic endHandle to Service endHandle.
 249:Generated_Source\PSoC4/BLE_custom.c ****        Characteristic endHandle will be updated to the declaration
 250:Generated_Source\PSoC4/BLE_custom.c ****        Handler of the following characteristic,
 251:Generated_Source\PSoC4/BLE_custom.c ****        in the following characteristic discovery procedure. */
 252:Generated_Source\PSoC4/BLE_custom.c ****     if(customsLastEndHandle != NULL)
 695              		.loc 1 252 0 is_stmt 1
 696 01ca 0A4B     		ldr	r3, .L28
 697 01cc 1B68     		ldr	r3, [r3]
ARM GAS  C:\Users\ANDREW~1\AppData\Local\Temp\ccpBQnLb.s 			page 18


 698 01ce 002B     		cmp	r3, #0
 699 01d0 0CD0     		beq	.L18
 253:Generated_Source\PSoC4/BLE_custom.c ****     {
 254:Generated_Source\PSoC4/BLE_custom.c ****         *customsLastEndHandle = cyBle_serverInfo[cyBle_disCount].range.endHandle;
 700              		.loc 1 254 0
 701 01d2 084B     		ldr	r3, .L28
 702 01d4 1A68     		ldr	r2, [r3]
 703 01d6 0A4B     		ldr	r3, .L28+12
 704 01d8 1B78     		ldrb	r3, [r3]
 705 01da 181C     		mov	r0, r3
 706 01dc 0949     		ldr	r1, .L28+16
 707 01de 031C     		mov	r3, r0
 708 01e0 5B00     		lsl	r3, r3, #1
 709 01e2 1B18     		add	r3, r3, r0
 710 01e4 5B00     		lsl	r3, r3, #1
 711 01e6 CB18     		add	r3, r1, r3
 712 01e8 5B88     		ldrh	r3, [r3, #2]
 713 01ea 1380     		strh	r3, [r2]
 714              	.L18:
 255:Generated_Source\PSoC4/BLE_custom.c ****     }
 256:Generated_Source\PSoC4/BLE_custom.c **** }
 715              		.loc 1 256 0
 716 01ec BD46     		mov	sp, r7
 717 01ee 04B0     		add	sp, sp, #16
 718              		@ sp needed
 719 01f0 80BD     		pop	{r7, pc}
 720              	.L29:
 721 01f2 C046     		.align	2
 722              	.L28:
 723 01f4 04000000 		.word	customsLastEndHandle.6496
 724 01f8 08000000 		.word	discoveryLastServ.6497
 725 01fc 00000000 		.word	cyBle_customCServ
 726 0200 00000000 		.word	cyBle_disCount
 727 0204 00000000 		.word	cyBle_serverInfo
 728              		.cfi_endproc
 729              	.LFE4:
 730              		.size	CyBle_CustomcDiscoverCharacteristicsEventHandler, .-CyBle_CustomcDiscoverCharacteristicsEven
 731              		.section	.text.CyBle_CustomcGetCharRange,"ax",%progbits
 732              		.align	2
 733              		.global	CyBle_CustomcGetCharRange
 734              		.code	16
 735              		.thumb_func
 736              		.type	CyBle_CustomcGetCharRange, %function
 737              	CyBle_CustomcGetCharRange:
 738              	.LFB5:
 257:Generated_Source\PSoC4/BLE_custom.c **** 
 258:Generated_Source\PSoC4/BLE_custom.c **** 
 259:Generated_Source\PSoC4/BLE_custom.c **** /****************************************************************************** 
 260:Generated_Source\PSoC4/BLE_custom.c **** * Function Name: CyBle_GetCustomCharRange
 261:Generated_Source\PSoC4/BLE_custom.c **** ***************************************************************************//**
 262:Generated_Source\PSoC4/BLE_custom.c **** * 
 263:Generated_Source\PSoC4/BLE_custom.c **** *  Returns a possible range of the current characteristic descriptor
 264:Generated_Source\PSoC4/BLE_custom.c **** *  which is pointed by custom service and char index.
 265:Generated_Source\PSoC4/BLE_custom.c **** * 
 266:Generated_Source\PSoC4/BLE_custom.c **** *  \param incrementIndex: Not zero value indicates that service and characteristic index
 267:Generated_Source\PSoC4/BLE_custom.c **** *                  should be incremented.
 268:Generated_Source\PSoC4/BLE_custom.c **** * \return
ARM GAS  C:\Users\ANDREW~1\AppData\Local\Temp\ccpBQnLb.s 			page 19


 269:Generated_Source\PSoC4/BLE_custom.c **** *  CYBLE_GATT_ATTR_HANDLE_RANGE_T range: the block of start and end handles.
 270:Generated_Source\PSoC4/BLE_custom.c **** * 
 271:Generated_Source\PSoC4/BLE_custom.c **** ******************************************************************************/
 272:Generated_Source\PSoC4/BLE_custom.c **** CYBLE_GATT_ATTR_HANDLE_RANGE_T CyBle_CustomcGetCharRange(uint8 incrementIndex)
 273:Generated_Source\PSoC4/BLE_custom.c **** {
 739              		.loc 1 273 0
 740              		.cfi_startproc
 741 0000 80B5     		push	{r7, lr}
 742              		.cfi_def_cfa_offset 8
 743              		.cfi_offset 7, -8
 744              		.cfi_offset 14, -4
 745 0002 84B0     		sub	sp, sp, #16
 746              		.cfi_def_cfa_offset 24
 747 0004 00AF     		add	r7, sp, #0
 748              		.cfi_def_cfa_register 7
 749 0006 021C     		mov	r2, r0
 750 0008 FB1D     		add	r3, r7, #7
 751 000a 1A70     		strb	r2, [r3]
 274:Generated_Source\PSoC4/BLE_custom.c ****     CYBLE_GATT_ATTR_HANDLE_RANGE_T charRange = {CYBLE_GATT_INVALID_ATTR_HANDLE_VALUE, CYBLE_GATT_IN
 752              		.loc 1 274 0
 753 000c 0823     		mov	r3, #8
 754 000e FB18     		add	r3, r7, r3
 755 0010 0022     		mov	r2, #0
 756 0012 1A80     		strh	r2, [r3]
 757 0014 0823     		mov	r3, #8
 758 0016 FB18     		add	r3, r7, r3
 759 0018 0022     		mov	r2, #0
 760 001a 5A80     		strh	r2, [r3, #2]
 761              	.L39:
 275:Generated_Source\PSoC4/BLE_custom.c **** 
 276:Generated_Source\PSoC4/BLE_custom.c ****     do{
 277:Generated_Source\PSoC4/BLE_custom.c ****         if(incrementIndex != CYBLE_DISCOVERY_INIT)
 762              		.loc 1 277 0
 763 001c FB1D     		add	r3, r7, #7
 764 001e 1B78     		ldrb	r3, [r3]
 765 0020 002B     		cmp	r3, #0
 766 0022 2DD0     		beq	.L31
 278:Generated_Source\PSoC4/BLE_custom.c ****         {
 279:Generated_Source\PSoC4/BLE_custom.c ****             if((cyBle_customDisCharIndex + 1u) < cyBle_customCServ[cyBle_customDisServIndex].charCo
 767              		.loc 1 279 0
 768 0024 524B     		ldr	r3, .L41
 769 0026 1B88     		ldrh	r3, [r3]
 770 0028 0133     		add	r3, r3, #1
 771 002a 524A     		ldr	r2, .L41+4
 772 002c 1288     		ldrh	r2, [r2]
 773 002e 5249     		ldr	r1, .L41+8
 774 0030 1201     		lsl	r2, r2, #4
 775 0032 8A18     		add	r2, r1, r2
 776 0034 0832     		add	r2, r2, #8
 777 0036 5278     		ldrb	r2, [r2, #1]
 778 0038 9342     		cmp	r3, r2
 779 003a 06D2     		bcs	.L32
 280:Generated_Source\PSoC4/BLE_custom.c ****             {
 281:Generated_Source\PSoC4/BLE_custom.c ****                 cyBle_customDisCharIndex++;
 780              		.loc 1 281 0
 781 003c 4C4B     		ldr	r3, .L41
 782 003e 1B88     		ldrh	r3, [r3]
ARM GAS  C:\Users\ANDREW~1\AppData\Local\Temp\ccpBQnLb.s 			page 20


 783 0040 0133     		add	r3, r3, #1
 784 0042 9AB2     		uxth	r2, r3
 785 0044 4A4B     		ldr	r3, .L41
 786 0046 1A80     		strh	r2, [r3]
 787 0048 23E0     		b	.L35
 788              	.L32:
 282:Generated_Source\PSoC4/BLE_custom.c ****             }
 283:Generated_Source\PSoC4/BLE_custom.c ****             else 
 284:Generated_Source\PSoC4/BLE_custom.c ****             {
 285:Generated_Source\PSoC4/BLE_custom.c ****                 if((cyBle_customDisServIndex + 1u) < CYBLE_CUSTOMC_SERVICE_COUNT)
 789              		.loc 1 285 0
 790 004a 4A4B     		ldr	r3, .L41+4
 791 004c 1B88     		ldrh	r3, [r3]
 792 004e 0133     		add	r3, r3, #1
 793 0050 09D1     		bne	.L34
 286:Generated_Source\PSoC4/BLE_custom.c ****                 {
 287:Generated_Source\PSoC4/BLE_custom.c ****                     cyBle_customDisServIndex++;      /* Discover descriptors for next custom servic
 794              		.loc 1 287 0
 795 0052 484B     		ldr	r3, .L41+4
 796 0054 1B88     		ldrh	r3, [r3]
 797 0056 0133     		add	r3, r3, #1
 798 0058 9AB2     		uxth	r2, r3
 799 005a 464B     		ldr	r3, .L41+4
 800 005c 1A80     		strh	r2, [r3]
 288:Generated_Source\PSoC4/BLE_custom.c ****                     /* Set characteristic index to first characteristic of custom service */
 289:Generated_Source\PSoC4/BLE_custom.c ****                     cyBle_customDisCharIndex = 0u;
 801              		.loc 1 289 0
 802 005e 444B     		ldr	r3, .L41
 803 0060 0022     		mov	r2, #0
 804 0062 1A80     		strh	r2, [r3]
 805 0064 15E0     		b	.L35
 806              	.L34:
 290:Generated_Source\PSoC4/BLE_custom.c ****                 }
 291:Generated_Source\PSoC4/BLE_custom.c ****                 else /* Increment general discovery index when custom characteristic discovery is d
 292:Generated_Source\PSoC4/BLE_custom.c ****                 {
 293:Generated_Source\PSoC4/BLE_custom.c ****                     cyBle_disCount++;  
 807              		.loc 1 293 0
 808 0066 454B     		ldr	r3, .L41+12
 809 0068 1B78     		ldrb	r3, [r3]
 810 006a 0133     		add	r3, r3, #1
 811 006c DAB2     		uxtb	r2, r3
 812 006e 434B     		ldr	r3, .L41+12
 813 0070 1A70     		strb	r2, [r3]
 294:Generated_Source\PSoC4/BLE_custom.c ****                     cyBle_customDisCharIndex++;
 814              		.loc 1 294 0
 815 0072 3F4B     		ldr	r3, .L41
 816 0074 1B88     		ldrh	r3, [r3]
 817 0076 0133     		add	r3, r3, #1
 818 0078 9AB2     		uxth	r2, r3
 819 007a 3D4B     		ldr	r3, .L41
 820 007c 1A80     		strh	r2, [r3]
 821 007e 08E0     		b	.L35
 822              	.L31:
 295:Generated_Source\PSoC4/BLE_custom.c ****                 }
 296:Generated_Source\PSoC4/BLE_custom.c ****             }
 297:Generated_Source\PSoC4/BLE_custom.c ****         }
 298:Generated_Source\PSoC4/BLE_custom.c ****         else    /* Increment indexes in the following loop */
ARM GAS  C:\Users\ANDREW~1\AppData\Local\Temp\ccpBQnLb.s 			page 21


 299:Generated_Source\PSoC4/BLE_custom.c ****         {
 300:Generated_Source\PSoC4/BLE_custom.c ****             cyBle_customDisServIndex = 0u;
 823              		.loc 1 300 0
 824 0080 3C4B     		ldr	r3, .L41+4
 825 0082 0022     		mov	r2, #0
 826 0084 1A80     		strh	r2, [r3]
 301:Generated_Source\PSoC4/BLE_custom.c ****             cyBle_customDisCharIndex = 0u;
 827              		.loc 1 301 0
 828 0086 3A4B     		ldr	r3, .L41
 829 0088 0022     		mov	r2, #0
 830 008a 1A80     		strh	r2, [r3]
 302:Generated_Source\PSoC4/BLE_custom.c ****             incrementIndex = 1u;
 831              		.loc 1 302 0
 832 008c FB1D     		add	r3, r7, #7
 833 008e 0122     		mov	r2, #1
 834 0090 1A70     		strb	r2, [r3]
 835              	.L35:
 303:Generated_Source\PSoC4/BLE_custom.c ****         }            
 304:Generated_Source\PSoC4/BLE_custom.c ****         /* Read characteristic range */
 305:Generated_Source\PSoC4/BLE_custom.c ****         if(cyBle_customDisCharIndex < (cyBle_customCServ[cyBle_customDisServIndex].charCount))
 836              		.loc 1 305 0
 837 0092 384B     		ldr	r3, .L41+4
 838 0094 1B88     		ldrh	r3, [r3]
 839 0096 384A     		ldr	r2, .L41+8
 840 0098 1B01     		lsl	r3, r3, #4
 841 009a D318     		add	r3, r2, r3
 842 009c 0833     		add	r3, r3, #8
 843 009e 5B78     		ldrb	r3, [r3, #1]
 844 00a0 9AB2     		uxth	r2, r3
 845 00a2 334B     		ldr	r3, .L41
 846 00a4 1B88     		ldrh	r3, [r3]
 847 00a6 9A42     		cmp	r2, r3
 848 00a8 1FD9     		bls	.L36
 306:Generated_Source\PSoC4/BLE_custom.c ****         {
 307:Generated_Source\PSoC4/BLE_custom.c ****             charRange.startHandle = cyBle_customCServ[cyBle_customDisServIndex].
 849              		.loc 1 307 0
 850 00aa 324B     		ldr	r3, .L41+4
 851 00ac 1B88     		ldrh	r3, [r3]
 852 00ae 324A     		ldr	r2, .L41+8
 853 00b0 1B01     		lsl	r3, r3, #4
 854 00b2 D318     		add	r3, r2, r3
 855 00b4 0833     		add	r3, r3, #8
 856 00b6 5A68     		ldr	r2, [r3, #4]
 308:Generated_Source\PSoC4/BLE_custom.c ****                                 customServChar[cyBle_customDisCharIndex].customServCharHandle + 1u;
 857              		.loc 1 308 0
 858 00b8 2D4B     		ldr	r3, .L41
 859 00ba 1B88     		ldrh	r3, [r3]
 860 00bc 1B01     		lsl	r3, r3, #4
 861 00be D318     		add	r3, r2, r3
 862 00c0 1B88     		ldrh	r3, [r3]
 307:Generated_Source\PSoC4/BLE_custom.c ****                                 customServChar[cyBle_customDisCharIndex].customServCharHandle + 1u;
 863              		.loc 1 307 0
 864 00c2 0133     		add	r3, r3, #1
 865 00c4 9AB2     		uxth	r2, r3
 866 00c6 0823     		mov	r3, #8
 867 00c8 FB18     		add	r3, r7, r3
 868 00ca 1A80     		strh	r2, [r3]
ARM GAS  C:\Users\ANDREW~1\AppData\Local\Temp\ccpBQnLb.s 			page 22


 309:Generated_Source\PSoC4/BLE_custom.c ****             charRange.endHandle = cyBle_customCServ[cyBle_customDisServIndex].
 869              		.loc 1 309 0
 870 00cc 294B     		ldr	r3, .L41+4
 871 00ce 1B88     		ldrh	r3, [r3]
 872 00d0 294A     		ldr	r2, .L41+8
 873 00d2 1B01     		lsl	r3, r3, #4
 874 00d4 D318     		add	r3, r2, r3
 875 00d6 0833     		add	r3, r3, #8
 876 00d8 5A68     		ldr	r2, [r3, #4]
 310:Generated_Source\PSoC4/BLE_custom.c ****                                 customServChar[cyBle_customDisCharIndex].customServCharEndHandle;
 877              		.loc 1 310 0
 878 00da 254B     		ldr	r3, .L41
 879 00dc 1B88     		ldrh	r3, [r3]
 880 00de 1B01     		lsl	r3, r3, #4
 881 00e0 D318     		add	r3, r2, r3
 882 00e2 5A88     		ldrh	r2, [r3, #2]
 309:Generated_Source\PSoC4/BLE_custom.c ****             charRange.endHandle = cyBle_customCServ[cyBle_customDisServIndex].
 883              		.loc 1 309 0
 884 00e4 0823     		mov	r3, #8
 885 00e6 FB18     		add	r3, r7, r3
 886 00e8 5A80     		strh	r2, [r3, #2]
 887              	.L36:
 311:Generated_Source\PSoC4/BLE_custom.c ****         }
 312:Generated_Source\PSoC4/BLE_custom.c ****     }while(((charRange.startHandle <= cyBle_gattcDiscoveryRange.startHandle) || 
 888              		.loc 1 312 0
 889 00ea 0823     		mov	r3, #8
 890 00ec FB18     		add	r3, r7, r3
 891 00ee 1A88     		ldrh	r2, [r3]
 892 00f0 234B     		ldr	r3, .L41+16
 893 00f2 1B88     		ldrh	r3, [r3]
 313:Generated_Source\PSoC4/BLE_custom.c ****             (charRange.startHandle > cyBle_gattcDiscoveryRange.endHandle) ||
 314:Generated_Source\PSoC4/BLE_custom.c ****             (charRange.endHandle < cyBle_gattcDiscoveryRange.startHandle) ||
 315:Generated_Source\PSoC4/BLE_custom.c ****             (charRange.startHandle > charRange.endHandle)) && 
 316:Generated_Source\PSoC4/BLE_custom.c ****             (cyBle_customDisCharIndex < cyBle_customCServ[cyBle_customDisServIndex].charCount));
 894              		.loc 1 316 0
 895 00f4 9A42     		cmp	r2, r3
 896 00f6 15D9     		bls	.L37
 313:Generated_Source\PSoC4/BLE_custom.c ****             (charRange.startHandle > cyBle_gattcDiscoveryRange.endHandle) ||
 897              		.loc 1 313 0
 898 00f8 0823     		mov	r3, #8
 899 00fa FB18     		add	r3, r7, r3
 900 00fc 1A88     		ldrh	r2, [r3]
 901 00fe 204B     		ldr	r3, .L41+16
 902 0100 5B88     		ldrh	r3, [r3, #2]
 312:Generated_Source\PSoC4/BLE_custom.c ****             (charRange.startHandle > cyBle_gattcDiscoveryRange.endHandle) ||
 903              		.loc 1 312 0
 904 0102 9A42     		cmp	r2, r3
 905 0104 0ED8     		bhi	.L37
 314:Generated_Source\PSoC4/BLE_custom.c ****             (charRange.startHandle > charRange.endHandle)) && 
 906              		.loc 1 314 0
 907 0106 0823     		mov	r3, #8
 908 0108 FB18     		add	r3, r7, r3
 909 010a 5A88     		ldrh	r2, [r3, #2]
 910 010c 1C4B     		ldr	r3, .L41+16
 911 010e 1B88     		ldrh	r3, [r3]
 313:Generated_Source\PSoC4/BLE_custom.c ****             (charRange.startHandle > cyBle_gattcDiscoveryRange.endHandle) ||
 912              		.loc 1 313 0
ARM GAS  C:\Users\ANDREW~1\AppData\Local\Temp\ccpBQnLb.s 			page 23


 913 0110 9A42     		cmp	r2, r3
 914 0112 07D3     		bcc	.L37
 315:Generated_Source\PSoC4/BLE_custom.c ****             (cyBle_customDisCharIndex < cyBle_customCServ[cyBle_customDisServIndex].charCount));
 915              		.loc 1 315 0
 916 0114 0823     		mov	r3, #8
 917 0116 FB18     		add	r3, r7, r3
 918 0118 1A88     		ldrh	r2, [r3]
 919 011a 0823     		mov	r3, #8
 920 011c FB18     		add	r3, r7, r3
 921 011e 5B88     		ldrh	r3, [r3, #2]
 314:Generated_Source\PSoC4/BLE_custom.c ****             (charRange.startHandle > charRange.endHandle)) && 
 922              		.loc 1 314 0
 923 0120 9A42     		cmp	r2, r3
 924 0122 0CD9     		bls	.L38
 925              	.L37:
 926              		.loc 1 316 0 discriminator 1
 927 0124 134B     		ldr	r3, .L41+4
 928 0126 1B88     		ldrh	r3, [r3]
 929 0128 134A     		ldr	r2, .L41+8
 930 012a 1B01     		lsl	r3, r3, #4
 931 012c D318     		add	r3, r2, r3
 932 012e 0833     		add	r3, r3, #8
 933 0130 5B78     		ldrb	r3, [r3, #1]
 934 0132 9AB2     		uxth	r2, r3
 935 0134 0E4B     		ldr	r3, .L41
 936 0136 1B88     		ldrh	r3, [r3]
 315:Generated_Source\PSoC4/BLE_custom.c ****             (cyBle_customDisCharIndex < cyBle_customCServ[cyBle_customDisServIndex].charCount));
 937              		.loc 1 315 0 discriminator 1
 938 0138 9A42     		cmp	r2, r3
 939 013a 00D9     		bls	.LCB752
 940 013c 6EE7     		b	.L39	@long jump
 941              	.LCB752:
 942              	.L38:
 317:Generated_Source\PSoC4/BLE_custom.c ****     
 318:Generated_Source\PSoC4/BLE_custom.c ****     return(charRange);
 943              		.loc 1 318 0
 944 013e 0C23     		mov	r3, #12
 945 0140 FB18     		add	r3, r7, r3
 946 0142 0822     		mov	r2, #8
 947 0144 BA18     		add	r2, r7, r2
 948 0146 1268     		ldr	r2, [r2]
 949 0148 1A60     		str	r2, [r3]
 950 014a 0C23     		mov	r3, #12
 951 014c FA18     		add	r2, r7, r3
 952 014e 0023     		mov	r3, #0
 953 0150 1188     		ldrh	r1, [r2]
 954 0152 0904     		lsl	r1, r1, #16
 955 0154 090C     		lsr	r1, r1, #16
 956 0156 1B0C     		lsr	r3, r3, #16
 957 0158 1B04     		lsl	r3, r3, #16
 958 015a 0B43     		orr	r3, r1
 959 015c 5288     		ldrh	r2, [r2, #2]
 960 015e 1204     		lsl	r2, r2, #16
 961 0160 1B04     		lsl	r3, r3, #16
 962 0162 1B0C     		lsr	r3, r3, #16
 963 0164 1343     		orr	r3, r2
 319:Generated_Source\PSoC4/BLE_custom.c **** }
ARM GAS  C:\Users\ANDREW~1\AppData\Local\Temp\ccpBQnLb.s 			page 24


 964              		.loc 1 319 0
 965 0166 181C     		mov	r0, r3
 966 0168 BD46     		mov	sp, r7
 967 016a 04B0     		add	sp, sp, #16
 968              		@ sp needed
 969 016c 80BD     		pop	{r7, pc}
 970              	.L42:
 971 016e C046     		.align	2
 972              	.L41:
 973 0170 02000000 		.word	cyBle_customDisCharIndex
 974 0174 00000000 		.word	cyBle_customDisServIndex
 975 0178 00000000 		.word	cyBle_customCServ
 976 017c 00000000 		.word	cyBle_disCount
 977 0180 00000000 		.word	cyBle_gattcDiscoveryRange
 978              		.cfi_endproc
 979              	.LFE5:
 980              		.size	CyBle_CustomcGetCharRange, .-CyBle_CustomcGetCharRange
 981              		.section	.text.CyBle_CustomcDiscoverCharDescriptorsEventHandler,"ax",%progbits
 982              		.align	2
 983              		.global	CyBle_CustomcDiscoverCharDescriptorsEventHandler
 984              		.code	16
 985              		.thumb_func
 986              		.type	CyBle_CustomcDiscoverCharDescriptorsEventHandler, %function
 987              	CyBle_CustomcDiscoverCharDescriptorsEventHandler:
 988              	.LFB6:
 320:Generated_Source\PSoC4/BLE_custom.c **** 
 321:Generated_Source\PSoC4/BLE_custom.c **** 
 322:Generated_Source\PSoC4/BLE_custom.c **** /******************************************************************************
 323:Generated_Source\PSoC4/BLE_custom.c **** * Function Name: CyBle_CustomcDiscoverCharDescriptorsEventHandler
 324:Generated_Source\PSoC4/BLE_custom.c **** ***************************************************************************//**
 325:Generated_Source\PSoC4/BLE_custom.c **** * 
 326:Generated_Source\PSoC4/BLE_custom.c **** *  This function is called on receiving a CYBLE_EVT_GATTC_FIND_INFO_RSP event.
 327:Generated_Source\PSoC4/BLE_custom.c **** *  Based on the descriptor UUID, an appropriate data structure is populated using
 328:Generated_Source\PSoC4/BLE_custom.c **** *  the data received as part of the callback.
 329:Generated_Source\PSoC4/BLE_custom.c **** * 
 330:Generated_Source\PSoC4/BLE_custom.c **** *  \param *discDescrInfo: The pointer to a descriptor information structure.
 331:Generated_Source\PSoC4/BLE_custom.c **** * 
 332:Generated_Source\PSoC4/BLE_custom.c **** * \return
 333:Generated_Source\PSoC4/BLE_custom.c **** *  None
 334:Generated_Source\PSoC4/BLE_custom.c **** * 
 335:Generated_Source\PSoC4/BLE_custom.c **** ******************************************************************************/
 336:Generated_Source\PSoC4/BLE_custom.c **** void CyBle_CustomcDiscoverCharDescriptorsEventHandler(const CYBLE_DISC_DESCR_INFO_T *discDescrInfo)
 337:Generated_Source\PSoC4/BLE_custom.c **** {
 989              		.loc 1 337 0
 990              		.cfi_startproc
 991 0000 80B5     		push	{r7, lr}
 992              		.cfi_def_cfa_offset 8
 993              		.cfi_offset 7, -8
 994              		.cfi_offset 14, -4
 995 0002 84B0     		sub	sp, sp, #16
 996              		.cfi_def_cfa_offset 24
 997 0004 00AF     		add	r7, sp, #0
 998              		.cfi_def_cfa_register 7
 999 0006 7860     		str	r0, [r7, #4]
 338:Generated_Source\PSoC4/BLE_custom.c ****     uint8 locDescIndex;
 339:Generated_Source\PSoC4/BLE_custom.c ****     uint8 locReqHandle = 0u;
 1000              		.loc 1 339 0
ARM GAS  C:\Users\ANDREW~1\AppData\Local\Temp\ccpBQnLb.s 			page 25


 1001 0008 0E23     		mov	r3, #14
 1002 000a FB18     		add	r3, r7, r3
 1003 000c 0022     		mov	r2, #0
 1004 000e 1A70     		strb	r2, [r3]
 340:Generated_Source\PSoC4/BLE_custom.c **** 
 341:Generated_Source\PSoC4/BLE_custom.c ****     for(locDescIndex = 0u; (locDescIndex < cyBle_customCServ[cyBle_customDisServIndex].
 1005              		.loc 1 341 0
 1006 0010 0F23     		mov	r3, #15
 1007 0012 FB18     		add	r3, r7, r3
 1008 0014 0022     		mov	r2, #0
 1009 0016 1A70     		strb	r2, [r3]
 1010 0018 BBE0     		b	.L44
 1011              	.L49:
 1012              	.LBB3:
 342:Generated_Source\PSoC4/BLE_custom.c ****           customServChar[cyBle_customDisCharIndex].descCount) && (locReqHandle == 0u); locDescIndex
 343:Generated_Source\PSoC4/BLE_custom.c ****     {
 344:Generated_Source\PSoC4/BLE_custom.c ****         uint8 flag = 0u;
 1013              		.loc 1 344 0
 1014 001a 0D23     		mov	r3, #13
 1015 001c FB18     		add	r3, r7, r3
 1016 001e 0022     		mov	r2, #0
 1017 0020 1A70     		strb	r2, [r3]
 345:Generated_Source\PSoC4/BLE_custom.c ****         
 346:Generated_Source\PSoC4/BLE_custom.c ****         if((discDescrInfo->uuidFormat == CYBLE_GATT_128_BIT_UUID_FORMAT) &&
 1018              		.loc 1 346 0
 1019 0022 7B68     		ldr	r3, [r7, #4]
 1020 0024 1B7D     		ldrb	r3, [r3, #20]
 1021 0026 022B     		cmp	r3, #2
 1022 0028 38D1     		bne	.L45
 347:Generated_Source\PSoC4/BLE_custom.c ****            (cyBle_customCServ[cyBle_customDisServIndex].customServChar[cyBle_customDisCharIndex].
 1023              		.loc 1 347 0 discriminator 1
 1024 002a 674B     		ldr	r3, .L50
 1025 002c 1B88     		ldrh	r3, [r3]
 1026 002e 674A     		ldr	r2, .L50+4
 1027 0030 1B01     		lsl	r3, r3, #4
 1028 0032 D318     		add	r3, r2, r3
 1029 0034 0833     		add	r3, r3, #8
 1030 0036 5A68     		ldr	r2, [r3, #4]
 1031 0038 654B     		ldr	r3, .L50+8
 1032 003a 1B88     		ldrh	r3, [r3]
 1033 003c 1B01     		lsl	r3, r3, #4
 1034 003e D318     		add	r3, r2, r3
 1035 0040 D968     		ldr	r1, [r3, #12]
 348:Generated_Source\PSoC4/BLE_custom.c ****              customServCharDesc[locDescIndex].uuidFormat == CYBLE_GATT_128_BIT_UUID_FORMAT))
 1036              		.loc 1 348 0 discriminator 1
 1037 0042 0F23     		mov	r3, #15
 1038 0044 FB18     		add	r3, r7, r3
 1039 0046 1A78     		ldrb	r2, [r3]
 1040 0048 131C     		mov	r3, r2
 1041 004a 5B00     		lsl	r3, r3, #1
 1042 004c 9B18     		add	r3, r3, r2
 1043 004e 9B00     		lsl	r3, r3, #2
 1044 0050 CB18     		add	r3, r1, r3
 1045 0052 1B7A     		ldrb	r3, [r3, #8]
 346:Generated_Source\PSoC4/BLE_custom.c ****            (cyBle_customCServ[cyBle_customDisServIndex].customServChar[cyBle_customDisCharIndex].
 1046              		.loc 1 346 0 discriminator 1
 1047 0054 022B     		cmp	r3, #2
ARM GAS  C:\Users\ANDREW~1\AppData\Local\Temp\ccpBQnLb.s 			page 26


 1048 0056 21D1     		bne	.L45
 349:Generated_Source\PSoC4/BLE_custom.c ****         {
 350:Generated_Source\PSoC4/BLE_custom.c ****             if(memcmp(cyBle_customCServ[cyBle_customDisServIndex].
 1049              		.loc 1 350 0
 1050 0058 5B4B     		ldr	r3, .L50
 1051 005a 1B88     		ldrh	r3, [r3]
 1052 005c 5B4A     		ldr	r2, .L50+4
 1053 005e 1B01     		lsl	r3, r3, #4
 1054 0060 D318     		add	r3, r2, r3
 1055 0062 0833     		add	r3, r3, #8
 1056 0064 5A68     		ldr	r2, [r3, #4]
 351:Generated_Source\PSoC4/BLE_custom.c ****                 customServChar[cyBle_customDisCharIndex].customServCharDesc[locDescIndex].uuid, 
 1057              		.loc 1 351 0
 1058 0066 5A4B     		ldr	r3, .L50+8
 1059 0068 1B88     		ldrh	r3, [r3]
 1060 006a 1B01     		lsl	r3, r3, #4
 1061 006c D318     		add	r3, r2, r3
 1062 006e D968     		ldr	r1, [r3, #12]
 1063 0070 0F23     		mov	r3, #15
 1064 0072 FB18     		add	r3, r7, r3
 1065 0074 1A78     		ldrb	r2, [r3]
 1066 0076 131C     		mov	r3, r2
 1067 0078 5B00     		lsl	r3, r3, #1
 1068 007a 9B18     		add	r3, r3, r2
 1069 007c 9B00     		lsl	r3, r3, #2
 1070 007e CB18     		add	r3, r1, r3
 350:Generated_Source\PSoC4/BLE_custom.c ****                 customServChar[cyBle_customDisCharIndex].customServCharDesc[locDescIndex].uuid, 
 1071              		.loc 1 350 0
 1072 0080 5A68     		ldr	r2, [r3, #4]
 352:Generated_Source\PSoC4/BLE_custom.c ****                 &discDescrInfo->uuid.uuid128, CYBLE_GATT_128_BIT_UUID_SIZE) == 0u)
 1073              		.loc 1 352 0
 1074 0082 7B68     		ldr	r3, [r7, #4]
 1075 0084 0433     		add	r3, r3, #4
 350:Generated_Source\PSoC4/BLE_custom.c ****                 customServChar[cyBle_customDisCharIndex].customServCharDesc[locDescIndex].uuid, 
 1076              		.loc 1 350 0
 1077 0086 101C     		mov	r0, r2
 1078 0088 191C     		mov	r1, r3
 1079 008a 1022     		mov	r2, #16
 1080 008c FFF7FEFF 		bl	memcmp
 1081 0090 031E     		sub	r3, r0, #0
 1082 0092 03D1     		bne	.L45
 353:Generated_Source\PSoC4/BLE_custom.c ****             {
 354:Generated_Source\PSoC4/BLE_custom.c ****                 flag = 1u;
 1083              		.loc 1 354 0
 1084 0094 0D23     		mov	r3, #13
 1085 0096 FB18     		add	r3, r7, r3
 1086 0098 0122     		mov	r2, #1
 1087 009a 1A70     		strb	r2, [r3]
 1088              	.L45:
 355:Generated_Source\PSoC4/BLE_custom.c ****             }
 356:Generated_Source\PSoC4/BLE_custom.c ****         }
 357:Generated_Source\PSoC4/BLE_custom.c ****         
 358:Generated_Source\PSoC4/BLE_custom.c ****         if((discDescrInfo->uuidFormat == CYBLE_GATT_16_BIT_UUID_FORMAT) &&
 1089              		.loc 1 358 0
 1090 009c 7B68     		ldr	r3, [r7, #4]
 1091 009e 1B7D     		ldrb	r3, [r3, #20]
 1092 00a0 012B     		cmp	r3, #1
ARM GAS  C:\Users\ANDREW~1\AppData\Local\Temp\ccpBQnLb.s 			page 27


 1093 00a2 38D1     		bne	.L46
 359:Generated_Source\PSoC4/BLE_custom.c ****            (cyBle_customCServ[cyBle_customDisServIndex].customServChar[cyBle_customDisCharIndex].
 1094              		.loc 1 359 0 discriminator 1
 1095 00a4 484B     		ldr	r3, .L50
 1096 00a6 1B88     		ldrh	r3, [r3]
 1097 00a8 484A     		ldr	r2, .L50+4
 1098 00aa 1B01     		lsl	r3, r3, #4
 1099 00ac D318     		add	r3, r2, r3
 1100 00ae 0833     		add	r3, r3, #8
 1101 00b0 5A68     		ldr	r2, [r3, #4]
 1102 00b2 474B     		ldr	r3, .L50+8
 1103 00b4 1B88     		ldrh	r3, [r3]
 1104 00b6 1B01     		lsl	r3, r3, #4
 1105 00b8 D318     		add	r3, r2, r3
 1106 00ba D968     		ldr	r1, [r3, #12]
 360:Generated_Source\PSoC4/BLE_custom.c ****              customServCharDesc[locDescIndex].uuidFormat == CYBLE_GATT_16_BIT_UUID_FORMAT))
 1107              		.loc 1 360 0 discriminator 1
 1108 00bc 0F23     		mov	r3, #15
 1109 00be FB18     		add	r3, r7, r3
 1110 00c0 1A78     		ldrb	r2, [r3]
 1111 00c2 131C     		mov	r3, r2
 1112 00c4 5B00     		lsl	r3, r3, #1
 1113 00c6 9B18     		add	r3, r3, r2
 1114 00c8 9B00     		lsl	r3, r3, #2
 1115 00ca CB18     		add	r3, r1, r3
 1116 00cc 1B7A     		ldrb	r3, [r3, #8]
 358:Generated_Source\PSoC4/BLE_custom.c ****            (cyBle_customCServ[cyBle_customDisServIndex].customServChar[cyBle_customDisCharIndex].
 1117              		.loc 1 358 0 discriminator 1
 1118 00ce 012B     		cmp	r3, #1
 1119 00d0 21D1     		bne	.L46
 361:Generated_Source\PSoC4/BLE_custom.c ****         {
 362:Generated_Source\PSoC4/BLE_custom.c ****             if(memcmp(cyBle_customCServ[cyBle_customDisServIndex].
 1120              		.loc 1 362 0
 1121 00d2 3D4B     		ldr	r3, .L50
 1122 00d4 1B88     		ldrh	r3, [r3]
 1123 00d6 3D4A     		ldr	r2, .L50+4
 1124 00d8 1B01     		lsl	r3, r3, #4
 1125 00da D318     		add	r3, r2, r3
 1126 00dc 0833     		add	r3, r3, #8
 1127 00de 5A68     		ldr	r2, [r3, #4]
 363:Generated_Source\PSoC4/BLE_custom.c ****                 customServChar[cyBle_customDisCharIndex].customServCharDesc[locDescIndex].uuid, 
 1128              		.loc 1 363 0
 1129 00e0 3B4B     		ldr	r3, .L50+8
 1130 00e2 1B88     		ldrh	r3, [r3]
 1131 00e4 1B01     		lsl	r3, r3, #4
 1132 00e6 D318     		add	r3, r2, r3
 1133 00e8 D968     		ldr	r1, [r3, #12]
 1134 00ea 0F23     		mov	r3, #15
 1135 00ec FB18     		add	r3, r7, r3
 1136 00ee 1A78     		ldrb	r2, [r3]
 1137 00f0 131C     		mov	r3, r2
 1138 00f2 5B00     		lsl	r3, r3, #1
 1139 00f4 9B18     		add	r3, r3, r2
 1140 00f6 9B00     		lsl	r3, r3, #2
 1141 00f8 CB18     		add	r3, r1, r3
 362:Generated_Source\PSoC4/BLE_custom.c ****                 customServChar[cyBle_customDisCharIndex].customServCharDesc[locDescIndex].uuid, 
 1142              		.loc 1 362 0
ARM GAS  C:\Users\ANDREW~1\AppData\Local\Temp\ccpBQnLb.s 			page 28


 1143 00fa 5A68     		ldr	r2, [r3, #4]
 364:Generated_Source\PSoC4/BLE_custom.c ****                 &discDescrInfo->uuid.uuid16, CYBLE_GATT_16_BIT_UUID_SIZE) == 0u)
 1144              		.loc 1 364 0
 1145 00fc 7B68     		ldr	r3, [r7, #4]
 1146 00fe 0433     		add	r3, r3, #4
 362:Generated_Source\PSoC4/BLE_custom.c ****                 customServChar[cyBle_customDisCharIndex].customServCharDesc[locDescIndex].uuid, 
 1147              		.loc 1 362 0
 1148 0100 101C     		mov	r0, r2
 1149 0102 191C     		mov	r1, r3
 1150 0104 0222     		mov	r2, #2
 1151 0106 FFF7FEFF 		bl	memcmp
 1152 010a 031E     		sub	r3, r0, #0
 1153 010c 03D1     		bne	.L46
 365:Generated_Source\PSoC4/BLE_custom.c ****             {
 366:Generated_Source\PSoC4/BLE_custom.c ****                 flag = 1u;
 1154              		.loc 1 366 0
 1155 010e 0D23     		mov	r3, #13
 1156 0110 FB18     		add	r3, r7, r3
 1157 0112 0122     		mov	r2, #1
 1158 0114 1A70     		strb	r2, [r3]
 1159              	.L46:
 367:Generated_Source\PSoC4/BLE_custom.c ****             }
 368:Generated_Source\PSoC4/BLE_custom.c ****         }
 369:Generated_Source\PSoC4/BLE_custom.c ****         
 370:Generated_Source\PSoC4/BLE_custom.c ****         if((flag == 1u) && 
 1160              		.loc 1 370 0
 1161 0116 0D23     		mov	r3, #13
 1162 0118 FB18     		add	r3, r7, r3
 1163 011a 1B78     		ldrb	r3, [r3]
 1164 011c 012B     		cmp	r3, #1
 1165 011e 31D1     		bne	.L47
 371:Generated_Source\PSoC4/BLE_custom.c ****            (cyBle_customCServ[cyBle_customDisServIndex].customServChar[cyBle_customDisCharIndex].
 1166              		.loc 1 371 0 discriminator 1
 1167 0120 294B     		ldr	r3, .L50
 1168 0122 1B88     		ldrh	r3, [r3]
 1169 0124 294A     		ldr	r2, .L50+4
 1170 0126 1B01     		lsl	r3, r3, #4
 1171 0128 D318     		add	r3, r2, r3
 1172 012a 0833     		add	r3, r3, #8
 1173 012c 5A68     		ldr	r2, [r3, #4]
 1174 012e 284B     		ldr	r3, .L50+8
 1175 0130 1B88     		ldrh	r3, [r3]
 1176 0132 1B01     		lsl	r3, r3, #4
 1177 0134 D318     		add	r3, r2, r3
 1178 0136 D968     		ldr	r1, [r3, #12]
 372:Generated_Source\PSoC4/BLE_custom.c ****                customServCharDesc[locDescIndex].descHandle == CYBLE_GATT_INVALID_ATTR_HANDLE_VALUE)
 1179              		.loc 1 372 0 discriminator 1
 1180 0138 0F23     		mov	r3, #15
 1181 013a FB18     		add	r3, r7, r3
 1182 013c 1A78     		ldrb	r2, [r3]
 1183 013e 131C     		mov	r3, r2
 1184 0140 5B00     		lsl	r3, r3, #1
 1185 0142 9B18     		add	r3, r3, r2
 1186 0144 9B00     		lsl	r3, r3, #2
 1187 0146 CB18     		add	r3, r1, r3
 1188 0148 1B88     		ldrh	r3, [r3]
 370:Generated_Source\PSoC4/BLE_custom.c ****            (cyBle_customCServ[cyBle_customDisServIndex].customServChar[cyBle_customDisCharIndex].
ARM GAS  C:\Users\ANDREW~1\AppData\Local\Temp\ccpBQnLb.s 			page 29


 1189              		.loc 1 370 0 discriminator 1
 1190 014a 002B     		cmp	r3, #0
 1191 014c 1AD1     		bne	.L47
 373:Generated_Source\PSoC4/BLE_custom.c ****         {
 374:Generated_Source\PSoC4/BLE_custom.c ****             cyBle_customCServ[cyBle_customDisServIndex].customServChar[cyBle_customDisCharIndex].
 1192              		.loc 1 374 0
 1193 014e 1E4B     		ldr	r3, .L50
 1194 0150 1B88     		ldrh	r3, [r3]
 1195 0152 1E4A     		ldr	r2, .L50+4
 1196 0154 1B01     		lsl	r3, r3, #4
 1197 0156 D318     		add	r3, r2, r3
 1198 0158 0833     		add	r3, r3, #8
 1199 015a 5A68     		ldr	r2, [r3, #4]
 1200 015c 1C4B     		ldr	r3, .L50+8
 1201 015e 1B88     		ldrh	r3, [r3]
 1202 0160 1B01     		lsl	r3, r3, #4
 1203 0162 D318     		add	r3, r2, r3
 1204 0164 D968     		ldr	r1, [r3, #12]
 375:Generated_Source\PSoC4/BLE_custom.c ****                 customServCharDesc[locDescIndex].descHandle = discDescrInfo->descrHandle;
 1205              		.loc 1 375 0
 1206 0166 0F23     		mov	r3, #15
 1207 0168 FB18     		add	r3, r7, r3
 1208 016a 1A78     		ldrb	r2, [r3]
 1209 016c 131C     		mov	r3, r2
 1210 016e 5B00     		lsl	r3, r3, #1
 1211 0170 9B18     		add	r3, r3, r2
 1212 0172 9B00     		lsl	r3, r3, #2
 1213 0174 CB18     		add	r3, r1, r3
 1214 0176 7A68     		ldr	r2, [r7, #4]
 1215 0178 5288     		ldrh	r2, [r2, #2]
 1216 017a 1A80     		strh	r2, [r3]
 376:Generated_Source\PSoC4/BLE_custom.c ****             locReqHandle = 1u;
 1217              		.loc 1 376 0
 1218 017c 0E23     		mov	r3, #14
 1219 017e FB18     		add	r3, r7, r3
 1220 0180 0122     		mov	r2, #1
 1221 0182 1A70     		strb	r2, [r3]
 1222              	.L47:
 1223              	.LBE3:
 342:Generated_Source\PSoC4/BLE_custom.c ****     {
 1224              		.loc 1 342 0
 1225 0184 0F23     		mov	r3, #15
 1226 0186 FB18     		add	r3, r7, r3
 1227 0188 1A78     		ldrb	r2, [r3]
 1228 018a 0F23     		mov	r3, #15
 1229 018c FB18     		add	r3, r7, r3
 1230 018e 0132     		add	r2, r2, #1
 1231 0190 1A70     		strb	r2, [r3]
 1232              	.L44:
 341:Generated_Source\PSoC4/BLE_custom.c ****           customServChar[cyBle_customDisCharIndex].descCount) && (locReqHandle == 0u); locDescIndex
 1233              		.loc 1 341 0 discriminator 1
 1234 0192 0D4B     		ldr	r3, .L50
 1235 0194 1B88     		ldrh	r3, [r3]
 1236 0196 0D4A     		ldr	r2, .L50+4
 1237 0198 1B01     		lsl	r3, r3, #4
 1238 019a D318     		add	r3, r2, r3
 1239 019c 0833     		add	r3, r3, #8
ARM GAS  C:\Users\ANDREW~1\AppData\Local\Temp\ccpBQnLb.s 			page 30


 1240 019e 5A68     		ldr	r2, [r3, #4]
 342:Generated_Source\PSoC4/BLE_custom.c ****     {
 1241              		.loc 1 342 0 discriminator 1
 1242 01a0 0B4B     		ldr	r3, .L50+8
 1243 01a2 1B88     		ldrh	r3, [r3]
 1244 01a4 1B01     		lsl	r3, r3, #4
 1245 01a6 D318     		add	r3, r2, r3
 1246 01a8 9B7A     		ldrb	r3, [r3, #10]
 341:Generated_Source\PSoC4/BLE_custom.c ****           customServChar[cyBle_customDisCharIndex].descCount) && (locReqHandle == 0u); locDescIndex
 1247              		.loc 1 341 0 discriminator 1
 1248 01aa 0F22     		mov	r2, #15
 1249 01ac BA18     		add	r2, r7, r2
 1250 01ae 1278     		ldrb	r2, [r2]
 1251 01b0 9A42     		cmp	r2, r3
 1252 01b2 05D2     		bcs	.L43
 342:Generated_Source\PSoC4/BLE_custom.c ****     {
 1253              		.loc 1 342 0
 1254 01b4 0E23     		mov	r3, #14
 1255 01b6 FB18     		add	r3, r7, r3
 1256 01b8 1B78     		ldrb	r3, [r3]
 1257 01ba 002B     		cmp	r3, #0
 1258 01bc 00D1     		bne	.LCB1040
 1259 01be 2CE7     		b	.L49	@long jump
 1260              	.LCB1040:
 1261              	.L43:
 377:Generated_Source\PSoC4/BLE_custom.c ****         }
 378:Generated_Source\PSoC4/BLE_custom.c ****     }
 379:Generated_Source\PSoC4/BLE_custom.c **** }
 1262              		.loc 1 379 0
 1263 01c0 BD46     		mov	sp, r7
 1264 01c2 04B0     		add	sp, sp, #16
 1265              		@ sp needed
 1266 01c4 80BD     		pop	{r7, pc}
 1267              	.L51:
 1268 01c6 C046     		.align	2
 1269              	.L50:
 1270 01c8 00000000 		.word	cyBle_customDisServIndex
 1271 01cc 00000000 		.word	cyBle_customCServ
 1272 01d0 02000000 		.word	cyBle_customDisCharIndex
 1273              		.cfi_endproc
 1274              	.LFE6:
 1275              		.size	CyBle_CustomcDiscoverCharDescriptorsEventHandler, .-CyBle_CustomcDiscoverCharDescriptorsEven
 1276              		.bss
 1277              		.align	2
 1278              	customsLastEndHandle.6496:
 1279 0004 00000000 		.space	4
 1280              		.align	1
 1281              	discoveryLastServ.6497:
 1282 0008 0000     		.space	2
 1283 000a 0000     		.text
 1284              	.Letext0:
 1285              		.file 2 "Generated_Source\\PSoC4\\cytypes.h"
 1286              		.file 3 "Generated_Source\\PSoC4\\BLE_StackGatt.h"
 1287              		.file 4 "Generated_Source\\PSoC4\\BLE_gatt.h"
 1288              		.file 5 "Generated_Source\\PSoC4\\BLE_custom.h"
 1289              		.file 6 "Generated_Source\\PSoC4\\BLE_Stack.h"
 1290              		.file 7 "Generated_Source\\PSoC4\\BLE_eventHandler.h"
ARM GAS  C:\Users\ANDREW~1\AppData\Local\Temp\ccpBQnLb.s 			page 31

