ARM GAS  C:\Users\ANDREW~1\AppData\Local\Temp\ccKT4bII.s 			page 1


   1              		.cpu cortex-m0
   2              		.fpu softvfp
   3              		.eabi_attribute 20, 1
   4              		.eabi_attribute 21, 1
   5              		.eabi_attribute 23, 3
   6              		.eabi_attribute 24, 1
   7              		.eabi_attribute 25, 1
   8              		.eabi_attribute 26, 1
   9              		.eabi_attribute 30, 6
  10              		.eabi_attribute 34, 0
  11              		.eabi_attribute 18, 4
  12              		.code	16
  13              		.file	"BLE_eventHandler.c"
  14              		.text
  15              	.Ltext0:
  16              		.cfi_sections	.debug_frame
  17              		.comm	cyBle_connHandle,2,4
  18              		.comm	cyBle_eventHandlerFlag,1,1
  19              		.comm	cyBle_busyStatus,1,1
  20              		.comm	cyBle_scanningIntervalType,1,1
  21              		.comm	cyBle_disCount,1,1
  22              		.bss
  23              		.align	2
  24              	cyBle_discInclInfo:
  25 0000 00000000 		.space	24
  25      00000000 
  25      00000000 
  25      00000000 
  25      00000000 
  26              		.global	cyBle_serverInfo
  27              		.data
  28              		.align	2
  29              		.type	cyBle_serverInfo, %object
  30              		.size	cyBle_serverInfo, 18
  31              	cyBle_serverInfo:
  32 0000 0000     		.short	0
  33 0002 0000     		.short	0
  34 0004 0018     		.short	6144
  35 0006 0000     		.short	0
  36 0008 0000     		.short	0
  37 000a 0118     		.short	6145
  38 000c 0000     		.short	0
  39 000e 0000     		.short	0
  40 0010 0000     		.short	0
  41              		.comm	cyBle_gapc,12,4
  42              		.global	cyBle_authInfo
  43 0012 0000     		.align	2
  44              		.type	cyBle_authInfo, %object
  45              		.size	cyBle_authInfo, 5
  46              	cyBle_authInfo:
  47 0014 10       		.byte	16
  48 0015 00       		.byte	0
  49 0016 10       		.byte	16
  50 0017 00       		.byte	0
  51 0018 00       		.byte	0
  52 0019 000000   		.section	.text.CyBle_GattcWriteResponseEventHandler,"ax",%progbits
  53              		.align	2
ARM GAS  C:\Users\ANDREW~1\AppData\Local\Temp\ccKT4bII.s 			page 2


  54              		.code	16
  55              		.thumb_func
  56              		.type	CyBle_GattcWriteResponseEventHandler, %function
  57              	CyBle_GattcWriteResponseEventHandler:
  58              	.LFB2:
  59              		.file 1 "Generated_Source\\PSoC4\\BLE_eventHandler.c"
   1:Generated_Source\PSoC4/BLE_eventHandler.c **** /***************************************************************************//**
   2:Generated_Source\PSoC4/BLE_eventHandler.c **** * \file CYBLE_eventHandler.c
   3:Generated_Source\PSoC4/BLE_eventHandler.c **** * \version 3.20
   4:Generated_Source\PSoC4/BLE_eventHandler.c **** * 
   5:Generated_Source\PSoC4/BLE_eventHandler.c **** * \brief
   6:Generated_Source\PSoC4/BLE_eventHandler.c **** *  This file contains the source code for the Event Handler State Machine
   7:Generated_Source\PSoC4/BLE_eventHandler.c **** *  of the BLE Component.
   8:Generated_Source\PSoC4/BLE_eventHandler.c **** * 
   9:Generated_Source\PSoC4/BLE_eventHandler.c **** ********************************************************************************
  10:Generated_Source\PSoC4/BLE_eventHandler.c **** * \copyright
  11:Generated_Source\PSoC4/BLE_eventHandler.c **** * Copyright 2014-2016, Cypress Semiconductor Corporation.  All rights reserved.
  12:Generated_Source\PSoC4/BLE_eventHandler.c **** * You may use this file only in accordance with the license, terms, conditions,
  13:Generated_Source\PSoC4/BLE_eventHandler.c **** * disclaimers, and limitations in the end user license agreement accompanying
  14:Generated_Source\PSoC4/BLE_eventHandler.c **** * the software package with which this file was provided.
  15:Generated_Source\PSoC4/BLE_eventHandler.c **** *******************************************************************************/
  16:Generated_Source\PSoC4/BLE_eventHandler.c **** 
  17:Generated_Source\PSoC4/BLE_eventHandler.c **** #include "BLE_eventHandler.h"
  18:Generated_Source\PSoC4/BLE_eventHandler.c **** 
  19:Generated_Source\PSoC4/BLE_eventHandler.c **** 
  20:Generated_Source\PSoC4/BLE_eventHandler.c **** /***************************************
  21:Generated_Source\PSoC4/BLE_eventHandler.c **** * Private Function Prototypes
  22:Generated_Source\PSoC4/BLE_eventHandler.c **** ***************************************/
  23:Generated_Source\PSoC4/BLE_eventHandler.c **** 
  24:Generated_Source\PSoC4/BLE_eventHandler.c **** static void CyBle_GattDisconnectEventHandler(void);
  25:Generated_Source\PSoC4/BLE_eventHandler.c **** static void CyBle_TimeOutEventHandler(const CYBLE_TO_REASON_CODE_T *eventParam);
  26:Generated_Source\PSoC4/BLE_eventHandler.c **** static void CyBle_GattConnectReqHandler(void);
  27:Generated_Source\PSoC4/BLE_eventHandler.c **** static void CyBle_L2Cap_ConnParamUpdateRspEventHandler(uint16 response);
  28:Generated_Source\PSoC4/BLE_eventHandler.c **** static void CyBle_GapConnUpdateCompleteEventHandler(const CYBLE_GAP_CONN_PARAM_UPDATED_IN_CONTROLLE
  29:Generated_Source\PSoC4/BLE_eventHandler.c **** 
  30:Generated_Source\PSoC4/BLE_eventHandler.c **** 
  31:Generated_Source\PSoC4/BLE_eventHandler.c **** #if (CYBLE_GATT_ROLE_SERVER)
  32:Generated_Source\PSoC4/BLE_eventHandler.c **** 
  33:Generated_Source\PSoC4/BLE_eventHandler.c **** static void CyBle_WriteReqHandler(CYBLE_GATTS_WRITE_REQ_PARAM_T *eventParam);
  34:Generated_Source\PSoC4/BLE_eventHandler.c **** static void CyBle_ValueConfirmation(const CYBLE_CONN_HANDLE_T *eventParam);
  35:Generated_Source\PSoC4/BLE_eventHandler.c **** 
  36:Generated_Source\PSoC4/BLE_eventHandler.c **** #endif /* CYBLE_GATT_ROLE_SERVER */
  37:Generated_Source\PSoC4/BLE_eventHandler.c **** 
  38:Generated_Source\PSoC4/BLE_eventHandler.c **** #if (CYBLE_GATT_ROLE_CLIENT)
  39:Generated_Source\PSoC4/BLE_eventHandler.c **** 
  40:Generated_Source\PSoC4/BLE_eventHandler.c **** static void CyBle_GapcDiscoverCharacteristicsEventHandler(CYBLE_DISC_CHAR_INFO_T *discCharInfo);
  41:Generated_Source\PSoC4/BLE_eventHandler.c **** static CYBLE_GATT_ATTR_HANDLE_RANGE_T CyBle_GetCharRange(void);
  42:Generated_Source\PSoC4/BLE_eventHandler.c **** static void CyBle_GattcWriteResponseEventHandler(const CYBLE_CONN_HANDLE_T *eventParam);
  43:Generated_Source\PSoC4/BLE_eventHandler.c **** static void CyBle_NotificationEventHandler(CYBLE_GATTC_HANDLE_VALUE_NTF_PARAM_T *eventParam);
  44:Generated_Source\PSoC4/BLE_eventHandler.c **** static void CyBle_IndicationEventHandler(CYBLE_GATTC_HANDLE_VALUE_IND_PARAM_T *eventParam);
  45:Generated_Source\PSoC4/BLE_eventHandler.c **** static void CyBle_ReadResponseEventHandler(CYBLE_GATTC_READ_RSP_PARAM_T *eventParam);
  46:Generated_Source\PSoC4/BLE_eventHandler.c **** static void CyBle_ReadMultipleResponseEventHandler(CYBLE_GATTC_READ_RSP_PARAM_T *eventParam);
  47:Generated_Source\PSoC4/BLE_eventHandler.c **** 
  48:Generated_Source\PSoC4/BLE_eventHandler.c **** #endif /* CYBLE_GATT_ROLE_CLIENT */
  49:Generated_Source\PSoC4/BLE_eventHandler.c **** 
  50:Generated_Source\PSoC4/BLE_eventHandler.c **** 
  51:Generated_Source\PSoC4/BLE_eventHandler.c **** /***************************************
ARM GAS  C:\Users\ANDREW~1\AppData\Local\Temp\ccKT4bII.s 			page 3


  52:Generated_Source\PSoC4/BLE_eventHandler.c **** * Global Variables
  53:Generated_Source\PSoC4/BLE_eventHandler.c **** ***************************************/
  54:Generated_Source\PSoC4/BLE_eventHandler.c **** 
  55:Generated_Source\PSoC4/BLE_eventHandler.c **** /* This global variable is initialized after connection with peer device, 
  56:Generated_Source\PSoC4/BLE_eventHandler.c ****    after CYBLE_EVT_GATT_CONNECT_IND event, and could be used by application code
  57:Generated_Source\PSoC4/BLE_eventHandler.c ****    to send data to peer device. 
  58:Generated_Source\PSoC4/BLE_eventHandler.c **** */
  59:Generated_Source\PSoC4/BLE_eventHandler.c **** CYBLE_CONN_HANDLE_T cyBle_connHandle;
  60:Generated_Source\PSoC4/BLE_eventHandler.c **** 
  61:Generated_Source\PSoC4/BLE_eventHandler.c **** volatile uint8 cyBle_eventHandlerFlag;
  62:Generated_Source\PSoC4/BLE_eventHandler.c **** volatile uint8 cyBle_busyStatus;
  63:Generated_Source\PSoC4/BLE_eventHandler.c **** 
  64:Generated_Source\PSoC4/BLE_eventHandler.c **** #if(CYBLE_GAP_ROLE_PERIPHERAL || CYBLE_GAP_ROLE_BROADCASTER) 
  65:Generated_Source\PSoC4/BLE_eventHandler.c ****     uint8 cyBle_advertisingIntervalType;
  66:Generated_Source\PSoC4/BLE_eventHandler.c **** #endif /* CYBLE_GAP_ROLE_PERIPHERAL || CYBLE_GAP_ROLE_BROADCASTER) */
  67:Generated_Source\PSoC4/BLE_eventHandler.c **** 
  68:Generated_Source\PSoC4/BLE_eventHandler.c **** #if(CYBLE_GAP_ROLE_CENTRAL || CYBLE_GAP_ROLE_OBSERVER) 
  69:Generated_Source\PSoC4/BLE_eventHandler.c ****     uint8 cyBle_scanningIntervalType;
  70:Generated_Source\PSoC4/BLE_eventHandler.c **** #endif /* CYBLE_GAP_ROLE_CENTRAL || CYBLE_GAP_ROLE_OBSERVER */
  71:Generated_Source\PSoC4/BLE_eventHandler.c **** 
  72:Generated_Source\PSoC4/BLE_eventHandler.c **** #if(CYBLE_GATT_ROLE_SERVER)
  73:Generated_Source\PSoC4/BLE_eventHandler.c **** #if defined CYBLE_CTS_SERVER || defined CYBLE_ESS_SERVER
  74:Generated_Source\PSoC4/BLE_eventHandler.c **** CYBLE_GATT_ERR_CODE_T cyBle_gattError;
  75:Generated_Source\PSoC4/BLE_eventHandler.c **** #endif /* defined CYBLE_CTS_SERVER || defined CYBLE_ESS_SERVER */
  76:Generated_Source\PSoC4/BLE_eventHandler.c **** #endif /* CYBLE_GATT_ROLE_SERVER */
  77:Generated_Source\PSoC4/BLE_eventHandler.c **** 
  78:Generated_Source\PSoC4/BLE_eventHandler.c **** #if(CYBLE_GATT_ROLE_CLIENT)
  79:Generated_Source\PSoC4/BLE_eventHandler.c **** uint8 cyBle_disCount; /* Counter for discovery procedures */
  80:Generated_Source\PSoC4/BLE_eventHandler.c **** 
  81:Generated_Source\PSoC4/BLE_eventHandler.c **** #ifdef CYBLE_CUSTOM_CLIENT
  82:Generated_Source\PSoC4/BLE_eventHandler.c **** /* Discovery included service information, used for 128-bit UUID read response handle 
  83:Generated_Source\PSoC4/BLE_eventHandler.c ****    and for continue discovery. 
  84:Generated_Source\PSoC4/BLE_eventHandler.c **** */
  85:Generated_Source\PSoC4/BLE_eventHandler.c **** static CYBLE_DISC_INCL_INFO_T cyBle_discInclInfo;
  86:Generated_Source\PSoC4/BLE_eventHandler.c **** #endif /* CYBLE_CUSTOM_CLIENT */
  87:Generated_Source\PSoC4/BLE_eventHandler.c **** 
  88:Generated_Source\PSoC4/BLE_eventHandler.c **** #ifdef CYBLE_HIDS_CLIENT
  89:Generated_Source\PSoC4/BLE_eventHandler.c ****     static uint8 disServiceIndex;      /* To discovery descriptors for multiple HID service instanc
  90:Generated_Source\PSoC4/BLE_eventHandler.c **** #endif /* CYBLE_HIDS_CLIENT */
  91:Generated_Source\PSoC4/BLE_eventHandler.c **** 
  92:Generated_Source\PSoC4/BLE_eventHandler.c **** CYBLE_DISC_SRVC_INFO_T cyBle_serverInfo[CYBLE_SRVI_COUNT] = /*3*/
  93:Generated_Source\PSoC4/BLE_eventHandler.c **** {
  94:Generated_Source\PSoC4/BLE_eventHandler.c ****     {{CYBLE_GATT_INVALID_ATTR_HANDLE_VALUE, CYBLE_GATT_INVALID_ATTR_HANDLE_VALUE}, CYBLE_UUID_GAP_S
  95:Generated_Source\PSoC4/BLE_eventHandler.c ****     {{CYBLE_GATT_INVALID_ATTR_HANDLE_VALUE, CYBLE_GATT_INVALID_ATTR_HANDLE_VALUE}, CYBLE_UUID_GATT_
  96:Generated_Source\PSoC4/BLE_eventHandler.c **** #ifdef CYBLE_ANCS_CLIENT
  97:Generated_Source\PSoC4/BLE_eventHandler.c ****     {{CYBLE_GATT_INVALID_ATTR_HANDLE_VALUE, CYBLE_GATT_INVALID_ATTR_HANDLE_VALUE}, 0x0000u},
  98:Generated_Source\PSoC4/BLE_eventHandler.c **** #endif /* CYBLE_ANCS_CLIENT */
  99:Generated_Source\PSoC4/BLE_eventHandler.c **** #ifdef CYBLE_ANS_CLIENT
 100:Generated_Source\PSoC4/BLE_eventHandler.c ****     {{CYBLE_GATT_INVALID_ATTR_HANDLE_VALUE, CYBLE_GATT_INVALID_ATTR_HANDLE_VALUE}, 
 101:Generated_Source\PSoC4/BLE_eventHandler.c ****         CYBLE_UUID_ALERT_NOTIFICATION_SERVICE},
 102:Generated_Source\PSoC4/BLE_eventHandler.c **** #endif /* CYBLE_ANS_CLIENT */
 103:Generated_Source\PSoC4/BLE_eventHandler.c **** #ifdef CYBLE_BAS_CLIENT
 104:Generated_Source\PSoC4/BLE_eventHandler.c ****     {{CYBLE_GATT_INVALID_ATTR_HANDLE_VALUE, CYBLE_GATT_INVALID_ATTR_HANDLE_VALUE}, CYBLE_UUID_BAS_S
 105:Generated_Source\PSoC4/BLE_eventHandler.c ****     #if(CYBLE_BASC_SERVICE_COUNT > 1u) /* Generate it by GUI */
 106:Generated_Source\PSoC4/BLE_eventHandler.c ****         
 107:Generated_Source\PSoC4/BLE_eventHandler.c ****     #endif /* CYBLE_BASC_SERVICE_COUNT > 1u */
 108:Generated_Source\PSoC4/BLE_eventHandler.c **** #endif /* CYBLE_BAS_CLIENT */
ARM GAS  C:\Users\ANDREW~1\AppData\Local\Temp\ccKT4bII.s 			page 4


 109:Generated_Source\PSoC4/BLE_eventHandler.c **** #ifdef CYBLE_BCS_CLIENT
 110:Generated_Source\PSoC4/BLE_eventHandler.c ****     {{CYBLE_GATT_INVALID_ATTR_HANDLE_VALUE, CYBLE_GATT_INVALID_ATTR_HANDLE_VALUE}, CYBLE_UUID_BODY_
 111:Generated_Source\PSoC4/BLE_eventHandler.c **** #endif /* CYBLE_BCS_CLIENT */
 112:Generated_Source\PSoC4/BLE_eventHandler.c **** #ifdef CYBLE_BLS_CLIENT
 113:Generated_Source\PSoC4/BLE_eventHandler.c ****     {{CYBLE_GATT_INVALID_ATTR_HANDLE_VALUE, CYBLE_GATT_INVALID_ATTR_HANDLE_VALUE}, CYBLE_UUID_BLOOD
 114:Generated_Source\PSoC4/BLE_eventHandler.c **** #endif /* CYBLE_BLS_CLIENT */
 115:Generated_Source\PSoC4/BLE_eventHandler.c **** #ifdef CYBLE_BMS_CLIENT
 116:Generated_Source\PSoC4/BLE_eventHandler.c ****     {{CYBLE_GATT_INVALID_ATTR_HANDLE_VALUE, CYBLE_GATT_INVALID_ATTR_HANDLE_VALUE}, CYBLE_UUID_BOND_
 117:Generated_Source\PSoC4/BLE_eventHandler.c **** #endif /* CYBLE_BMS_CLIENT */
 118:Generated_Source\PSoC4/BLE_eventHandler.c **** #ifdef CYBLE_CGMS_CLIENT
 119:Generated_Source\PSoC4/BLE_eventHandler.c ****     {{CYBLE_GATT_INVALID_ATTR_HANDLE_VALUE, CYBLE_GATT_INVALID_ATTR_HANDLE_VALUE}, CYBLE_UUID_CGM_S
 120:Generated_Source\PSoC4/BLE_eventHandler.c **** #endif /* CYBLE_CGMS_CLIENT */
 121:Generated_Source\PSoC4/BLE_eventHandler.c **** #ifdef CYBLE_CPS_CLIENT
 122:Generated_Source\PSoC4/BLE_eventHandler.c ****     {{CYBLE_GATT_INVALID_ATTR_HANDLE_VALUE, CYBLE_GATT_INVALID_ATTR_HANDLE_VALUE}, CYBLE_UUID_CPS_S
 123:Generated_Source\PSoC4/BLE_eventHandler.c **** #endif /* CYBLE_CPS_CLIENT */
 124:Generated_Source\PSoC4/BLE_eventHandler.c **** #ifdef CYBLE_CSCS_CLIENT
 125:Generated_Source\PSoC4/BLE_eventHandler.c ****     {{CYBLE_GATT_INVALID_ATTR_HANDLE_VALUE, CYBLE_GATT_INVALID_ATTR_HANDLE_VALUE}, 
 126:Generated_Source\PSoC4/BLE_eventHandler.c ****         CYBLE_UUID_CYCLING_SPEED_AND_CADENCE_SERVICE},
 127:Generated_Source\PSoC4/BLE_eventHandler.c **** #endif /* CYBLE_CSCS_CLIENT */
 128:Generated_Source\PSoC4/BLE_eventHandler.c **** #ifdef CYBLE_CTS_CLIENT
 129:Generated_Source\PSoC4/BLE_eventHandler.c ****     {{CYBLE_GATT_INVALID_ATTR_HANDLE_VALUE, CYBLE_GATT_INVALID_ATTR_HANDLE_VALUE}, CYBLE_UUID_CURRE
 130:Generated_Source\PSoC4/BLE_eventHandler.c **** #endif /* CYBLE_CTS_CLIENT */
 131:Generated_Source\PSoC4/BLE_eventHandler.c **** #ifdef CYBLE_CUSTOM_CLIENT
 132:Generated_Source\PSoC4/BLE_eventHandler.c ****             {{CYBLE_GATT_INVALID_ATTR_HANDLE_VALUE, CYBLE_GATT_INVALID_ATTR_HANDLE_VALUE}, 0x0000u}
 133:Generated_Source\PSoC4/BLE_eventHandler.c **** 
 134:Generated_Source\PSoC4/BLE_eventHandler.c **** #endif /* CYBLE_CUSTOM_CLIENT */
 135:Generated_Source\PSoC4/BLE_eventHandler.c **** #ifdef CYBLE_DIS_CLIENT
 136:Generated_Source\PSoC4/BLE_eventHandler.c ****     {{CYBLE_GATT_INVALID_ATTR_HANDLE_VALUE, CYBLE_GATT_INVALID_ATTR_HANDLE_VALUE}, CYBLE_UUID_DEVIC
 137:Generated_Source\PSoC4/BLE_eventHandler.c **** #endif /* CYBLE_DIS_CLIENT */
 138:Generated_Source\PSoC4/BLE_eventHandler.c **** #ifdef CYBLE_ESS_CLIENT
 139:Generated_Source\PSoC4/BLE_eventHandler.c ****     {{CYBLE_GATT_INVALID_ATTR_HANDLE_VALUE, CYBLE_GATT_INVALID_ATTR_HANDLE_VALUE}, 
 140:Generated_Source\PSoC4/BLE_eventHandler.c ****         CYBLE_UUID_ENVIRONMENTAL_SENSING_SERVICE},
 141:Generated_Source\PSoC4/BLE_eventHandler.c **** #endif /* CYBLE_ESS_CLIENT */
 142:Generated_Source\PSoC4/BLE_eventHandler.c **** #ifdef CYBLE_GLS_CLIENT
 143:Generated_Source\PSoC4/BLE_eventHandler.c ****     {{CYBLE_GATT_INVALID_ATTR_HANDLE_VALUE, CYBLE_GATT_INVALID_ATTR_HANDLE_VALUE}, CYBLE_UUID_GLUCO
 144:Generated_Source\PSoC4/BLE_eventHandler.c **** #endif /* CYBLE_GLS_CLIENT */
 145:Generated_Source\PSoC4/BLE_eventHandler.c **** #ifdef CYBLE_HIDS_CLIENT
 146:Generated_Source\PSoC4/BLE_eventHandler.c ****     {{CYBLE_GATT_INVALID_ATTR_HANDLE_VALUE, CYBLE_GATT_INVALID_ATTR_HANDLE_VALUE}, CYBLE_UUID_HIDS_
 147:Generated_Source\PSoC4/BLE_eventHandler.c ****     #if(CYBLE_HIDSC_SERVICE_COUNT > 1u) /* Generate it by GUI */
 148:Generated_Source\PSoC4/BLE_eventHandler.c ****         
 149:Generated_Source\PSoC4/BLE_eventHandler.c ****     #endif /* CYBLE_HIDSC_SERVICE_COUNT > 1u */
 150:Generated_Source\PSoC4/BLE_eventHandler.c **** #endif /* CYBLE_HIDS_CLIENT */
 151:Generated_Source\PSoC4/BLE_eventHandler.c **** #ifdef CYBLE_HPS_CLIENT
 152:Generated_Source\PSoC4/BLE_eventHandler.c ****     {{CYBLE_GATT_INVALID_ATTR_HANDLE_VALUE, CYBLE_GATT_INVALID_ATTR_HANDLE_VALUE}, CYBLE_UUID_HTTP_
 153:Generated_Source\PSoC4/BLE_eventHandler.c **** #endif /* CYBLE_HPS_CLIENT */
 154:Generated_Source\PSoC4/BLE_eventHandler.c **** #ifdef CYBLE_HRS_CLIENT
 155:Generated_Source\PSoC4/BLE_eventHandler.c ****     {{CYBLE_GATT_INVALID_ATTR_HANDLE_VALUE, CYBLE_GATT_INVALID_ATTR_HANDLE_VALUE}, CYBLE_UUID_HEART
 156:Generated_Source\PSoC4/BLE_eventHandler.c **** #endif /* CYBLE_HRS_CLIENT */
 157:Generated_Source\PSoC4/BLE_eventHandler.c **** #ifdef CYBLE_HTS_CLIENT
 158:Generated_Source\PSoC4/BLE_eventHandler.c ****     {{CYBLE_GATT_INVALID_ATTR_HANDLE_VALUE, CYBLE_GATT_INVALID_ATTR_HANDLE_VALUE}, CYBLE_UUID_HEALT
 159:Generated_Source\PSoC4/BLE_eventHandler.c **** #endif /* CYBLE_HTS_CLIENT */
 160:Generated_Source\PSoC4/BLE_eventHandler.c **** #ifdef CYBLE_IAS_CLIENT
 161:Generated_Source\PSoC4/BLE_eventHandler.c ****     {{CYBLE_GATT_INVALID_ATTR_HANDLE_VALUE, CYBLE_GATT_INVALID_ATTR_HANDLE_VALUE}, CYBLE_UUID_IMMED
 162:Generated_Source\PSoC4/BLE_eventHandler.c **** #endif /* CYBLE_IAS_CLIENT */
 163:Generated_Source\PSoC4/BLE_eventHandler.c **** #ifdef CYBLE_IPS_CLIENT
 164:Generated_Source\PSoC4/BLE_eventHandler.c ****     {{CYBLE_GATT_INVALID_ATTR_HANDLE_VALUE, CYBLE_GATT_INVALID_ATTR_HANDLE_VALUE}, CYBLE_UUID_IPS_S
 165:Generated_Source\PSoC4/BLE_eventHandler.c **** #endif /* CYBLE_IPS_CLIENT */
ARM GAS  C:\Users\ANDREW~1\AppData\Local\Temp\ccKT4bII.s 			page 5


 166:Generated_Source\PSoC4/BLE_eventHandler.c **** #ifdef CYBLE_LLS_CLIENT
 167:Generated_Source\PSoC4/BLE_eventHandler.c ****     {{CYBLE_GATT_INVALID_ATTR_HANDLE_VALUE, CYBLE_GATT_INVALID_ATTR_HANDLE_VALUE}, CYBLE_UUID_LINK_
 168:Generated_Source\PSoC4/BLE_eventHandler.c **** #endif /* CYBLE_LLS_CLIENT */
 169:Generated_Source\PSoC4/BLE_eventHandler.c **** #ifdef CYBLE_LNS_CLIENT
 170:Generated_Source\PSoC4/BLE_eventHandler.c ****     {{CYBLE_GATT_INVALID_ATTR_HANDLE_VALUE, CYBLE_GATT_INVALID_ATTR_HANDLE_VALUE}, CYBLE_UUID_LOCAT
 171:Generated_Source\PSoC4/BLE_eventHandler.c **** #endif /* CYBLE_LNS_CLIENT */
 172:Generated_Source\PSoC4/BLE_eventHandler.c **** #ifdef CYBLE_NDCS_CLIENT
 173:Generated_Source\PSoC4/BLE_eventHandler.c ****     {{CYBLE_GATT_INVALID_ATTR_HANDLE_VALUE, CYBLE_GATT_INVALID_ATTR_HANDLE_VALUE}, CYBLE_UUID_NEXT_
 174:Generated_Source\PSoC4/BLE_eventHandler.c **** #endif /* CYBLE_NDCS_CLIENT */
 175:Generated_Source\PSoC4/BLE_eventHandler.c **** #ifdef CYBLE_IPSS_CLIENT
 176:Generated_Source\PSoC4/BLE_eventHandler.c ****     {{CYBLE_GATT_INVALID_ATTR_HANDLE_VALUE, CYBLE_GATT_INVALID_ATTR_HANDLE_VALUE}, CYBLE_UUID_INTER
 177:Generated_Source\PSoC4/BLE_eventHandler.c **** #endif /* CYBLE_IPSS_CLIENT */
 178:Generated_Source\PSoC4/BLE_eventHandler.c **** #ifdef CYBLE_PASS_CLIENT
 179:Generated_Source\PSoC4/BLE_eventHandler.c ****     {{CYBLE_GATT_INVALID_ATTR_HANDLE_VALUE, CYBLE_GATT_INVALID_ATTR_HANDLE_VALUE}, CYBLE_UUID_PHONE
 180:Generated_Source\PSoC4/BLE_eventHandler.c **** #endif /* CYBLE_PASS_CLIENT */
 181:Generated_Source\PSoC4/BLE_eventHandler.c **** #ifdef CYBLE_PLXS_CLIENT
 182:Generated_Source\PSoC4/BLE_eventHandler.c ****     {{CYBLE_GATT_INVALID_ATTR_HANDLE_VALUE, CYBLE_GATT_INVALID_ATTR_HANDLE_VALUE}, CYBLE_UUID_PLXS_
 183:Generated_Source\PSoC4/BLE_eventHandler.c **** #endif /* CYBLE_PLXS_CLIENT */
 184:Generated_Source\PSoC4/BLE_eventHandler.c **** #ifdef CYBLE_RSCS_CLIENT
 185:Generated_Source\PSoC4/BLE_eventHandler.c ****     {{CYBLE_GATT_INVALID_ATTR_HANDLE_VALUE, CYBLE_GATT_INVALID_ATTR_HANDLE_VALUE}, CYBLE_UUID_RUNNI
 186:Generated_Source\PSoC4/BLE_eventHandler.c **** #endif /* CYBLE_RSCS_CLIENT */
 187:Generated_Source\PSoC4/BLE_eventHandler.c **** #ifdef CYBLE_RTUS_CLIENT
 188:Generated_Source\PSoC4/BLE_eventHandler.c ****     {{CYBLE_GATT_INVALID_ATTR_HANDLE_VALUE, CYBLE_GATT_INVALID_ATTR_HANDLE_VALUE}, CYBLE_UUID_REF_T
 189:Generated_Source\PSoC4/BLE_eventHandler.c **** #endif /* CYBLE_RTUS_CLIENT */
 190:Generated_Source\PSoC4/BLE_eventHandler.c **** #ifdef CYBLE_SCPS_CLIENT
 191:Generated_Source\PSoC4/BLE_eventHandler.c ****     {{CYBLE_GATT_INVALID_ATTR_HANDLE_VALUE, CYBLE_GATT_INVALID_ATTR_HANDLE_VALUE}, CYBLE_UUID_SCAN_
 192:Generated_Source\PSoC4/BLE_eventHandler.c **** #endif /* CYBLE_SCPS_CLIENT */
 193:Generated_Source\PSoC4/BLE_eventHandler.c **** #ifdef CYBLE_TPS_CLIENT
 194:Generated_Source\PSoC4/BLE_eventHandler.c ****     {{CYBLE_GATT_INVALID_ATTR_HANDLE_VALUE, CYBLE_GATT_INVALID_ATTR_HANDLE_VALUE}, CYBLE_UUID_TX_PO
 195:Generated_Source\PSoC4/BLE_eventHandler.c **** #endif /* CYBLE_TPS_CLIENT */
 196:Generated_Source\PSoC4/BLE_eventHandler.c **** #ifdef CYBLE_UDS_CLIENT
 197:Generated_Source\PSoC4/BLE_eventHandler.c ****     {{CYBLE_GATT_INVALID_ATTR_HANDLE_VALUE, CYBLE_GATT_INVALID_ATTR_HANDLE_VALUE}, CYBLE_UUID_USER_
 198:Generated_Source\PSoC4/BLE_eventHandler.c **** #endif /* CYBLE_UDS_CLIENT */
 199:Generated_Source\PSoC4/BLE_eventHandler.c **** #ifdef CYBLE_WSS_CLIENT
 200:Generated_Source\PSoC4/BLE_eventHandler.c ****     {{CYBLE_GATT_INVALID_ATTR_HANDLE_VALUE, CYBLE_GATT_INVALID_ATTR_HANDLE_VALUE}, CYBLE_UUID_WEIGH
 201:Generated_Source\PSoC4/BLE_eventHandler.c **** #endif /* CYBLE_WSS_CLIENT */
 202:Generated_Source\PSoC4/BLE_eventHandler.c **** #ifdef CYBLE_WPTS_CLIENT
 203:Generated_Source\PSoC4/BLE_eventHandler.c ****     {{CYBLE_GATT_INVALID_ATTR_HANDLE_VALUE, CYBLE_GATT_INVALID_ATTR_HANDLE_VALUE}, CYBLE_UUID_WIREL
 204:Generated_Source\PSoC4/BLE_eventHandler.c **** #endif /* CYBLE_WPTS_CLIENT */
 205:Generated_Source\PSoC4/BLE_eventHandler.c **** };
 206:Generated_Source\PSoC4/BLE_eventHandler.c **** 
 207:Generated_Source\PSoC4/BLE_eventHandler.c **** CYBLE_GAPC_T cyBle_gapc;
 208:Generated_Source\PSoC4/BLE_eventHandler.c **** 
 209:Generated_Source\PSoC4/BLE_eventHandler.c **** #endif /* CYBLE_GATT_ROLE_CLIENT */
 210:Generated_Source\PSoC4/BLE_eventHandler.c **** 
 211:Generated_Source\PSoC4/BLE_eventHandler.c **** /* Default device security */
 212:Generated_Source\PSoC4/BLE_eventHandler.c **** CYBLE_GAP_AUTH_INFO_T cyBle_authInfo =
 213:Generated_Source\PSoC4/BLE_eventHandler.c **** {
 214:Generated_Source\PSoC4/BLE_eventHandler.c ****     (CYBLE_GAP_SEC_MODE_1 | CYBLE_GAP_SEC_LEVEL_1 ), /* uint8 security */
 215:Generated_Source\PSoC4/BLE_eventHandler.c ****     CYBLE_GAP_BONDING_NONE, /* uint8 bonding */
 216:Generated_Source\PSoC4/BLE_eventHandler.c ****     0x10u,      /* uint8 ekeySize */
 217:Generated_Source\PSoC4/BLE_eventHandler.c ****     CYBLE_GAP_AUTH_ERROR_NONE, /* CYBLE_AUTH_FAILED_REASON_T authErr */
 218:Generated_Source\PSoC4/BLE_eventHandler.c ****     0x00u,      /* uint8 pairingProperties */
 219:Generated_Source\PSoC4/BLE_eventHandler.c **** };
 220:Generated_Source\PSoC4/BLE_eventHandler.c **** 
 221:Generated_Source\PSoC4/BLE_eventHandler.c **** #if(CYBLE_GATT_ROLE_SERVER)
 222:Generated_Source\PSoC4/BLE_eventHandler.c **** 
ARM GAS  C:\Users\ANDREW~1\AppData\Local\Temp\ccKT4bII.s 			page 6


 223:Generated_Source\PSoC4/BLE_eventHandler.c **** 
 224:Generated_Source\PSoC4/BLE_eventHandler.c **** /******************************************************************************    
 225:Generated_Source\PSoC4/BLE_eventHandler.c **** * Function Name: CyBle_WriteReqHandler
 226:Generated_Source\PSoC4/BLE_eventHandler.c **** ***************************************************************************//**
 227:Generated_Source\PSoC4/BLE_eventHandler.c **** * 
 228:Generated_Source\PSoC4/BLE_eventHandler.c **** *  Handles the Write Request event from BLE stack.
 229:Generated_Source\PSoC4/BLE_eventHandler.c **** * 
 230:Generated_Source\PSoC4/BLE_eventHandler.c **** *  CYBLE_GATTS_WRITE_REQ_PARAM_T * eventParam - event parameter
 231:Generated_Source\PSoC4/BLE_eventHandler.c **** * 
 232:Generated_Source\PSoC4/BLE_eventHandler.c **** * \return
 233:Generated_Source\PSoC4/BLE_eventHandler.c **** *  None
 234:Generated_Source\PSoC4/BLE_eventHandler.c **** * 
 235:Generated_Source\PSoC4/BLE_eventHandler.c **** ******************************************************************************/
 236:Generated_Source\PSoC4/BLE_eventHandler.c **** static void CyBle_WriteReqHandler(CYBLE_GATTS_WRITE_REQ_PARAM_T *eventParam)
 237:Generated_Source\PSoC4/BLE_eventHandler.c **** {
 238:Generated_Source\PSoC4/BLE_eventHandler.c ****     CYBLE_GATT_ERR_CODE_T gattErr;
 239:Generated_Source\PSoC4/BLE_eventHandler.c **** #if defined CYBLE_CTS_SERVER || defined CYBLE_ESS_SERVER
 240:Generated_Source\PSoC4/BLE_eventHandler.c ****     cyBle_gattError = CYBLE_GATT_ERR_NONE;
 241:Generated_Source\PSoC4/BLE_eventHandler.c **** #endif /* defined CYBLE_CTS_SERVER || defined CYBLE_ESS_SERVER */
 242:Generated_Source\PSoC4/BLE_eventHandler.c ****     
 243:Generated_Source\PSoC4/BLE_eventHandler.c ****     gattErr = CyBle_GattsWriteEventHandler(eventParam);
 244:Generated_Source\PSoC4/BLE_eventHandler.c **** #ifdef CYBLE_ANCS_SERVER
 245:Generated_Source\PSoC4/BLE_eventHandler.c ****     if(((cyBle_eventHandlerFlag & CYBLE_CALLBACK) != 0u) && (gattErr == CYBLE_GATT_ERR_NONE))
 246:Generated_Source\PSoC4/BLE_eventHandler.c ****     {
 247:Generated_Source\PSoC4/BLE_eventHandler.c ****         gattErr = CyBle_AncssWriteEventHandler(eventParam);
 248:Generated_Source\PSoC4/BLE_eventHandler.c ****     }
 249:Generated_Source\PSoC4/BLE_eventHandler.c **** #endif /* CYBLE_ANCS_SERVER */
 250:Generated_Source\PSoC4/BLE_eventHandler.c **** #ifdef CYBLE_ANS_SERVER
 251:Generated_Source\PSoC4/BLE_eventHandler.c ****     if(((cyBle_eventHandlerFlag & CYBLE_CALLBACK) != 0u) && (gattErr == CYBLE_GATT_ERR_NONE))
 252:Generated_Source\PSoC4/BLE_eventHandler.c ****     {
 253:Generated_Source\PSoC4/BLE_eventHandler.c ****         gattErr = CyBle_AnssWriteEventHandler(eventParam);
 254:Generated_Source\PSoC4/BLE_eventHandler.c ****     }
 255:Generated_Source\PSoC4/BLE_eventHandler.c **** #endif /* CYBLE_ANS_SERVER */
 256:Generated_Source\PSoC4/BLE_eventHandler.c **** #ifdef CYBLE_BAS_SERVER
 257:Generated_Source\PSoC4/BLE_eventHandler.c ****     if(((cyBle_eventHandlerFlag & CYBLE_CALLBACK) != 0u) && (gattErr == CYBLE_GATT_ERR_NONE))
 258:Generated_Source\PSoC4/BLE_eventHandler.c ****     {
 259:Generated_Source\PSoC4/BLE_eventHandler.c ****         gattErr = CyBle_BassWriteEventHandler(eventParam);
 260:Generated_Source\PSoC4/BLE_eventHandler.c ****     }
 261:Generated_Source\PSoC4/BLE_eventHandler.c **** #endif /* CYBLE_BAS_SERVER */
 262:Generated_Source\PSoC4/BLE_eventHandler.c **** #ifdef CYBLE_BCS_SERVER
 263:Generated_Source\PSoC4/BLE_eventHandler.c ****     if(((cyBle_eventHandlerFlag & CYBLE_CALLBACK) != 0u) && (gattErr == CYBLE_GATT_ERR_NONE))
 264:Generated_Source\PSoC4/BLE_eventHandler.c ****     {
 265:Generated_Source\PSoC4/BLE_eventHandler.c ****         gattErr = CyBle_BcssWriteEventHandler(eventParam);
 266:Generated_Source\PSoC4/BLE_eventHandler.c ****     }
 267:Generated_Source\PSoC4/BLE_eventHandler.c **** #endif /* CYBLE_BCS_SERVER */
 268:Generated_Source\PSoC4/BLE_eventHandler.c **** #ifdef CYBLE_BLS_SERVER
 269:Generated_Source\PSoC4/BLE_eventHandler.c ****     if(((cyBle_eventHandlerFlag & CYBLE_CALLBACK) != 0u) && (gattErr == CYBLE_GATT_ERR_NONE))
 270:Generated_Source\PSoC4/BLE_eventHandler.c ****     {
 271:Generated_Source\PSoC4/BLE_eventHandler.c ****         gattErr = CyBle_BlssWriteEventHandler(eventParam);
 272:Generated_Source\PSoC4/BLE_eventHandler.c ****     }
 273:Generated_Source\PSoC4/BLE_eventHandler.c **** #endif /* CYBLE_BLS_SERVER */
 274:Generated_Source\PSoC4/BLE_eventHandler.c **** #ifdef CYBLE_BMS_SERVER
 275:Generated_Source\PSoC4/BLE_eventHandler.c ****     if(((cyBle_eventHandlerFlag & CYBLE_CALLBACK) != 0u) && (gattErr == CYBLE_GATT_ERR_NONE))
 276:Generated_Source\PSoC4/BLE_eventHandler.c ****     {
 277:Generated_Source\PSoC4/BLE_eventHandler.c ****         gattErr = CyBle_BmssWriteEventHandler(eventParam);
 278:Generated_Source\PSoC4/BLE_eventHandler.c ****     }
 279:Generated_Source\PSoC4/BLE_eventHandler.c **** #endif /* CYBLE_BMS_SERVER */
ARM GAS  C:\Users\ANDREW~1\AppData\Local\Temp\ccKT4bII.s 			page 7


 280:Generated_Source\PSoC4/BLE_eventHandler.c **** #ifdef CYBLE_BTS_SERVER
 281:Generated_Source\PSoC4/BLE_eventHandler.c ****     if((cyBle_eventHandlerFlag & CYBLE_CALLBACK) != 0u)
 282:Generated_Source\PSoC4/BLE_eventHandler.c ****     {
 283:Generated_Source\PSoC4/BLE_eventHandler.c ****         gattErr = CyBle_BtsWriteEventHandler(eventParam);
 284:Generated_Source\PSoC4/BLE_eventHandler.c ****     }
 285:Generated_Source\PSoC4/BLE_eventHandler.c **** #endif /* CYBLE_BTS_SERVER */
 286:Generated_Source\PSoC4/BLE_eventHandler.c **** #ifdef CYBLE_CGMS_SERVER
 287:Generated_Source\PSoC4/BLE_eventHandler.c ****     if(((cyBle_eventHandlerFlag & CYBLE_CALLBACK) != 0u) && (gattErr == CYBLE_GATT_ERR_NONE))
 288:Generated_Source\PSoC4/BLE_eventHandler.c ****     {
 289:Generated_Source\PSoC4/BLE_eventHandler.c ****         gattErr = CyBle_CgmssWriteEventHandler(eventParam);
 290:Generated_Source\PSoC4/BLE_eventHandler.c ****     }
 291:Generated_Source\PSoC4/BLE_eventHandler.c **** #endif /* CYBLE_CGMS_SERVER */
 292:Generated_Source\PSoC4/BLE_eventHandler.c **** #ifdef CYBLE_CPS_SERVER
 293:Generated_Source\PSoC4/BLE_eventHandler.c ****     if(((cyBle_eventHandlerFlag & CYBLE_CALLBACK) != 0u) && (gattErr == CYBLE_GATT_ERR_NONE))
 294:Generated_Source\PSoC4/BLE_eventHandler.c ****     {
 295:Generated_Source\PSoC4/BLE_eventHandler.c ****         gattErr = CyBle_CpssWriteEventHandler(eventParam);
 296:Generated_Source\PSoC4/BLE_eventHandler.c ****     }
 297:Generated_Source\PSoC4/BLE_eventHandler.c **** #endif /* CYBLE_CPS_SERVER */
 298:Generated_Source\PSoC4/BLE_eventHandler.c **** #ifdef CYBLE_CSCS_SERVER
 299:Generated_Source\PSoC4/BLE_eventHandler.c ****     if(((cyBle_eventHandlerFlag & CYBLE_CALLBACK) != 0u) && (gattErr == CYBLE_GATT_ERR_NONE))
 300:Generated_Source\PSoC4/BLE_eventHandler.c ****     {
 301:Generated_Source\PSoC4/BLE_eventHandler.c ****         gattErr = CyBle_CscssWriteEventHandler(eventParam);
 302:Generated_Source\PSoC4/BLE_eventHandler.c ****     }
 303:Generated_Source\PSoC4/BLE_eventHandler.c **** #endif /* CYBLE_CSCS_SERVER */
 304:Generated_Source\PSoC4/BLE_eventHandler.c **** #ifdef CYBLE_CTS_SERVER
 305:Generated_Source\PSoC4/BLE_eventHandler.c ****     if(((cyBle_eventHandlerFlag & CYBLE_CALLBACK) != 0u) && (gattErr == CYBLE_GATT_ERR_NONE))
 306:Generated_Source\PSoC4/BLE_eventHandler.c ****     {
 307:Generated_Source\PSoC4/BLE_eventHandler.c ****         gattErr = CyBle_CtssWriteEventHandler(eventParam);
 308:Generated_Source\PSoC4/BLE_eventHandler.c ****     }
 309:Generated_Source\PSoC4/BLE_eventHandler.c **** #endif /* CYBLE_CTS_SERVER */
 310:Generated_Source\PSoC4/BLE_eventHandler.c **** #ifdef CYBLE_ESS_SERVER
 311:Generated_Source\PSoC4/BLE_eventHandler.c ****     if(((cyBle_eventHandlerFlag & CYBLE_CALLBACK) != 0u) && (gattErr == CYBLE_GATT_ERR_NONE))
 312:Generated_Source\PSoC4/BLE_eventHandler.c ****     {
 313:Generated_Source\PSoC4/BLE_eventHandler.c ****         gattErr = CyBle_EsssWriteEventHandler(eventParam);
 314:Generated_Source\PSoC4/BLE_eventHandler.c ****     }
 315:Generated_Source\PSoC4/BLE_eventHandler.c **** #endif /* CYBLE_ESS_SERVER */
 316:Generated_Source\PSoC4/BLE_eventHandler.c **** #ifdef CYBLE_GLS_SERVER
 317:Generated_Source\PSoC4/BLE_eventHandler.c ****     if(((cyBle_eventHandlerFlag & CYBLE_CALLBACK) != 0u) && (gattErr == CYBLE_GATT_ERR_NONE))
 318:Generated_Source\PSoC4/BLE_eventHandler.c ****     {
 319:Generated_Source\PSoC4/BLE_eventHandler.c ****         gattErr = CyBle_GlssWriteEventHandler(eventParam);
 320:Generated_Source\PSoC4/BLE_eventHandler.c ****     }
 321:Generated_Source\PSoC4/BLE_eventHandler.c **** #endif /* CYBLE_GLS_SERVER */
 322:Generated_Source\PSoC4/BLE_eventHandler.c **** #ifdef CYBLE_HIDS_SERVER
 323:Generated_Source\PSoC4/BLE_eventHandler.c ****     if(((cyBle_eventHandlerFlag & CYBLE_CALLBACK) != 0u) && (gattErr == CYBLE_GATT_ERR_NONE))
 324:Generated_Source\PSoC4/BLE_eventHandler.c ****     {
 325:Generated_Source\PSoC4/BLE_eventHandler.c ****         gattErr = CyBle_HidssWriteEventHandler(eventParam);
 326:Generated_Source\PSoC4/BLE_eventHandler.c ****     }
 327:Generated_Source\PSoC4/BLE_eventHandler.c **** #endif /* CYBLE_HIDS_SERVER */
 328:Generated_Source\PSoC4/BLE_eventHandler.c **** #ifdef CYBLE_HPS_SERVER
 329:Generated_Source\PSoC4/BLE_eventHandler.c ****     if(((cyBle_eventHandlerFlag & CYBLE_CALLBACK) != 0u) && (gattErr == CYBLE_GATT_ERR_NONE))
 330:Generated_Source\PSoC4/BLE_eventHandler.c ****     {
 331:Generated_Source\PSoC4/BLE_eventHandler.c ****         gattErr = CyBle_HpssWriteEventHandler(eventParam);
 332:Generated_Source\PSoC4/BLE_eventHandler.c ****     }
 333:Generated_Source\PSoC4/BLE_eventHandler.c **** #endif /* CYBLE_HPS_SERVER */
 334:Generated_Source\PSoC4/BLE_eventHandler.c **** #ifdef CYBLE_HRS_SERVER
 335:Generated_Source\PSoC4/BLE_eventHandler.c ****     if(((cyBle_eventHandlerFlag & CYBLE_CALLBACK) != 0u) && (gattErr == CYBLE_GATT_ERR_NONE))
 336:Generated_Source\PSoC4/BLE_eventHandler.c ****     {
ARM GAS  C:\Users\ANDREW~1\AppData\Local\Temp\ccKT4bII.s 			page 8


 337:Generated_Source\PSoC4/BLE_eventHandler.c ****         gattErr = CyBle_HrssWriteEventHandler(eventParam);
 338:Generated_Source\PSoC4/BLE_eventHandler.c ****     }
 339:Generated_Source\PSoC4/BLE_eventHandler.c **** #endif /* CYBLE_HRS_SERVER */
 340:Generated_Source\PSoC4/BLE_eventHandler.c **** #ifdef CYBLE_HTS_SERVER
 341:Generated_Source\PSoC4/BLE_eventHandler.c ****     if(((cyBle_eventHandlerFlag & CYBLE_CALLBACK) != 0u) && (gattErr == CYBLE_GATT_ERR_NONE))
 342:Generated_Source\PSoC4/BLE_eventHandler.c ****     {
 343:Generated_Source\PSoC4/BLE_eventHandler.c ****         gattErr = CyBle_HtssWriteEventHandler(eventParam);
 344:Generated_Source\PSoC4/BLE_eventHandler.c ****     }
 345:Generated_Source\PSoC4/BLE_eventHandler.c **** #endif /* CYBLE_HTS_SERVER */
 346:Generated_Source\PSoC4/BLE_eventHandler.c **** #ifdef CYBLE_IPS_SERVER
 347:Generated_Source\PSoC4/BLE_eventHandler.c ****     if(((cyBle_eventHandlerFlag & CYBLE_CALLBACK) != 0u) && (gattErr == CYBLE_GATT_ERR_NONE))
 348:Generated_Source\PSoC4/BLE_eventHandler.c ****     {
 349:Generated_Source\PSoC4/BLE_eventHandler.c ****         gattErr = CyBle_IpssWriteEventHandler(eventParam);
 350:Generated_Source\PSoC4/BLE_eventHandler.c ****     }
 351:Generated_Source\PSoC4/BLE_eventHandler.c **** #endif /* CYBLE_IPS_SERVER */
 352:Generated_Source\PSoC4/BLE_eventHandler.c **** #ifdef CYBLE_LLS_SERVER
 353:Generated_Source\PSoC4/BLE_eventHandler.c ****     if(((cyBle_eventHandlerFlag & CYBLE_CALLBACK) != 0u) && (gattErr == CYBLE_GATT_ERR_NONE))
 354:Generated_Source\PSoC4/BLE_eventHandler.c ****     {
 355:Generated_Source\PSoC4/BLE_eventHandler.c ****         gattErr = CyBle_LlssWriteEventHandler(eventParam);
 356:Generated_Source\PSoC4/BLE_eventHandler.c ****     }
 357:Generated_Source\PSoC4/BLE_eventHandler.c **** #endif /* CYBLE_LLS_SERVER */
 358:Generated_Source\PSoC4/BLE_eventHandler.c **** #ifdef CYBLE_LNS_SERVER
 359:Generated_Source\PSoC4/BLE_eventHandler.c ****     if(((cyBle_eventHandlerFlag & CYBLE_CALLBACK) != 0u) && (gattErr == CYBLE_GATT_ERR_NONE))
 360:Generated_Source\PSoC4/BLE_eventHandler.c ****     {
 361:Generated_Source\PSoC4/BLE_eventHandler.c ****         gattErr = CyBle_LnssWriteEventHandler(eventParam);
 362:Generated_Source\PSoC4/BLE_eventHandler.c ****     }
 363:Generated_Source\PSoC4/BLE_eventHandler.c **** #endif /* CYBLE_LNS_SERVER */
 364:Generated_Source\PSoC4/BLE_eventHandler.c **** #ifdef CYBLE_PASS_SERVER
 365:Generated_Source\PSoC4/BLE_eventHandler.c ****     if(((cyBle_eventHandlerFlag & CYBLE_CALLBACK) != 0u) && (gattErr == CYBLE_GATT_ERR_NONE))
 366:Generated_Source\PSoC4/BLE_eventHandler.c ****     {
 367:Generated_Source\PSoC4/BLE_eventHandler.c ****         gattErr = CyBle_PasssWriteEventHandler(eventParam);
 368:Generated_Source\PSoC4/BLE_eventHandler.c ****     }
 369:Generated_Source\PSoC4/BLE_eventHandler.c **** #endif /* CYBLE_PASS_SERVER */
 370:Generated_Source\PSoC4/BLE_eventHandler.c **** #ifdef CYBLE_PLXS_SERVER
 371:Generated_Source\PSoC4/BLE_eventHandler.c ****     if(((cyBle_eventHandlerFlag & CYBLE_CALLBACK) != 0u) && (gattErr == CYBLE_GATT_ERR_NONE))
 372:Generated_Source\PSoC4/BLE_eventHandler.c ****     {
 373:Generated_Source\PSoC4/BLE_eventHandler.c ****         gattErr = CyBle_PlxssWriteEventHandler(eventParam);
 374:Generated_Source\PSoC4/BLE_eventHandler.c ****     }
 375:Generated_Source\PSoC4/BLE_eventHandler.c **** #endif /* CYBLE_PLXS_SERVER */    
 376:Generated_Source\PSoC4/BLE_eventHandler.c **** #ifdef CYBLE_RSCS_SERVER
 377:Generated_Source\PSoC4/BLE_eventHandler.c ****     if(((cyBle_eventHandlerFlag & CYBLE_CALLBACK) != 0u) && (gattErr == CYBLE_GATT_ERR_NONE))
 378:Generated_Source\PSoC4/BLE_eventHandler.c ****     {
 379:Generated_Source\PSoC4/BLE_eventHandler.c ****         gattErr = CyBle_RscssWriteEventHandler(eventParam);
 380:Generated_Source\PSoC4/BLE_eventHandler.c ****     }
 381:Generated_Source\PSoC4/BLE_eventHandler.c **** #endif /* CYBLE_RSCS_SERVER */
 382:Generated_Source\PSoC4/BLE_eventHandler.c **** #ifdef CYBLE_SCPS_SERVER
 383:Generated_Source\PSoC4/BLE_eventHandler.c ****     if(((cyBle_eventHandlerFlag & CYBLE_CALLBACK) != 0u) && (gattErr == CYBLE_GATT_ERR_NONE))
 384:Generated_Source\PSoC4/BLE_eventHandler.c ****     {
 385:Generated_Source\PSoC4/BLE_eventHandler.c ****         gattErr = CyBle_ScpssWriteEventHandler(eventParam);
 386:Generated_Source\PSoC4/BLE_eventHandler.c ****     }
 387:Generated_Source\PSoC4/BLE_eventHandler.c **** #endif /* CYBLE_SCPS_SERVER */
 388:Generated_Source\PSoC4/BLE_eventHandler.c **** #ifdef CYBLE_TPS_SERVER
 389:Generated_Source\PSoC4/BLE_eventHandler.c ****     if(((cyBle_eventHandlerFlag & CYBLE_CALLBACK) != 0u) && (gattErr == CYBLE_GATT_ERR_NONE))
 390:Generated_Source\PSoC4/BLE_eventHandler.c ****     {
 391:Generated_Source\PSoC4/BLE_eventHandler.c ****         gattErr = CyBle_TpssWriteEventHandler(eventParam);
 392:Generated_Source\PSoC4/BLE_eventHandler.c ****     }
 393:Generated_Source\PSoC4/BLE_eventHandler.c **** #endif /* CYBLE_TPS_SERVER */
ARM GAS  C:\Users\ANDREW~1\AppData\Local\Temp\ccKT4bII.s 			page 9


 394:Generated_Source\PSoC4/BLE_eventHandler.c **** #ifdef CYBLE_UDS_SERVER
 395:Generated_Source\PSoC4/BLE_eventHandler.c ****     if(((cyBle_eventHandlerFlag & CYBLE_CALLBACK) != 0u) && (gattErr == CYBLE_GATT_ERR_NONE))
 396:Generated_Source\PSoC4/BLE_eventHandler.c ****     {
 397:Generated_Source\PSoC4/BLE_eventHandler.c ****         gattErr = CyBle_UdssWriteEventHandler(eventParam);
 398:Generated_Source\PSoC4/BLE_eventHandler.c ****     }
 399:Generated_Source\PSoC4/BLE_eventHandler.c **** #endif /* CYBLE_UDS_SERVER */
 400:Generated_Source\PSoC4/BLE_eventHandler.c **** #ifdef CYBLE_WPTS_SERVER
 401:Generated_Source\PSoC4/BLE_eventHandler.c ****     if(((cyBle_eventHandlerFlag & CYBLE_CALLBACK) != 0u) && (gattErr == CYBLE_GATT_ERR_NONE))
 402:Generated_Source\PSoC4/BLE_eventHandler.c ****     {
 403:Generated_Source\PSoC4/BLE_eventHandler.c ****         gattErr = CyBle_WptssWriteEventHandler(eventParam);
 404:Generated_Source\PSoC4/BLE_eventHandler.c ****     }
 405:Generated_Source\PSoC4/BLE_eventHandler.c **** #endif /* CYBLE_WPTS_SERVER */
 406:Generated_Source\PSoC4/BLE_eventHandler.c **** #ifdef CYBLE_WSS_SERVER
 407:Generated_Source\PSoC4/BLE_eventHandler.c ****     if(((cyBle_eventHandlerFlag & CYBLE_CALLBACK) != 0u) && (gattErr == CYBLE_GATT_ERR_NONE))
 408:Generated_Source\PSoC4/BLE_eventHandler.c ****     {
 409:Generated_Source\PSoC4/BLE_eventHandler.c ****         gattErr = CyBle_WsssWriteEventHandler(eventParam);
 410:Generated_Source\PSoC4/BLE_eventHandler.c ****     }
 411:Generated_Source\PSoC4/BLE_eventHandler.c **** #endif /* CYBLE_WSS_SERVER */
 412:Generated_Source\PSoC4/BLE_eventHandler.c **** 
 413:Generated_Source\PSoC4/BLE_eventHandler.c ****     /* Send response when event was handled by service */
 414:Generated_Source\PSoC4/BLE_eventHandler.c ****     if((cyBle_eventHandlerFlag & CYBLE_CALLBACK) == 0u)
 415:Generated_Source\PSoC4/BLE_eventHandler.c ****     {
 416:Generated_Source\PSoC4/BLE_eventHandler.c ****         if(gattErr != CYBLE_GATT_ERR_NONE)
 417:Generated_Source\PSoC4/BLE_eventHandler.c ****         {
 418:Generated_Source\PSoC4/BLE_eventHandler.c ****             CYBLE_GATTS_ERR_PARAM_T err_param;
 419:Generated_Source\PSoC4/BLE_eventHandler.c ****             
 420:Generated_Source\PSoC4/BLE_eventHandler.c ****             err_param.opcode = (uint8) CYBLE_GATT_WRITE_REQ;
 421:Generated_Source\PSoC4/BLE_eventHandler.c ****             err_param.attrHandle = eventParam->handleValPair.attrHandle;
 422:Generated_Source\PSoC4/BLE_eventHandler.c ****             err_param.errorCode = gattErr;
 423:Generated_Source\PSoC4/BLE_eventHandler.c **** 
 424:Generated_Source\PSoC4/BLE_eventHandler.c ****             /* Send Error Response */
 425:Generated_Source\PSoC4/BLE_eventHandler.c ****             (void)CyBle_GattsErrorRsp(eventParam->connHandle, &err_param);
 426:Generated_Source\PSoC4/BLE_eventHandler.c ****         }
 427:Generated_Source\PSoC4/BLE_eventHandler.c ****         else
 428:Generated_Source\PSoC4/BLE_eventHandler.c ****         {
 429:Generated_Source\PSoC4/BLE_eventHandler.c ****             (void)CyBle_GattsWriteRsp(eventParam->connHandle);
 430:Generated_Source\PSoC4/BLE_eventHandler.c ****         }
 431:Generated_Source\PSoC4/BLE_eventHandler.c ****     }
 432:Generated_Source\PSoC4/BLE_eventHandler.c **** }
 433:Generated_Source\PSoC4/BLE_eventHandler.c **** 
 434:Generated_Source\PSoC4/BLE_eventHandler.c **** 
 435:Generated_Source\PSoC4/BLE_eventHandler.c **** /****************************************************************************** 
 436:Generated_Source\PSoC4/BLE_eventHandler.c **** * Function Name: CyBle_ValueConfirmation
 437:Generated_Source\PSoC4/BLE_eventHandler.c **** ***************************************************************************//**
 438:Generated_Source\PSoC4/BLE_eventHandler.c **** * 
 439:Generated_Source\PSoC4/BLE_eventHandler.c **** *  Handles the Value Confirmation request event from the BLE stack.
 440:Generated_Source\PSoC4/BLE_eventHandler.c **** * 
 441:Generated_Source\PSoC4/BLE_eventHandler.c **** *  \param eventParam: Pointer to a structure of type 'CYBLE_CONN_HANDLE_T'
 442:Generated_Source\PSoC4/BLE_eventHandler.c **** * 
 443:Generated_Source\PSoC4/BLE_eventHandler.c **** * \return
 444:Generated_Source\PSoC4/BLE_eventHandler.c **** *  None
 445:Generated_Source\PSoC4/BLE_eventHandler.c **** * 
 446:Generated_Source\PSoC4/BLE_eventHandler.c **** ******************************************************************************/
 447:Generated_Source\PSoC4/BLE_eventHandler.c **** static void CyBle_ValueConfirmation(const CYBLE_CONN_HANDLE_T *eventParam)
 448:Generated_Source\PSoC4/BLE_eventHandler.c **** {
 449:Generated_Source\PSoC4/BLE_eventHandler.c ****     if(eventParam != NULL)
 450:Generated_Source\PSoC4/BLE_eventHandler.c ****     {
ARM GAS  C:\Users\ANDREW~1\AppData\Local\Temp\ccKT4bII.s 			page 10


 451:Generated_Source\PSoC4/BLE_eventHandler.c ****     #ifdef CYBLE_BCS_SERVER
 452:Generated_Source\PSoC4/BLE_eventHandler.c ****         CyBle_BcssConfirmationEventHandler(eventParam);
 453:Generated_Source\PSoC4/BLE_eventHandler.c ****     #endif /* CYBLE_BCS_SERVER */
 454:Generated_Source\PSoC4/BLE_eventHandler.c ****     #ifdef CYBLE_BLS_SERVER
 455:Generated_Source\PSoC4/BLE_eventHandler.c ****         if((cyBle_eventHandlerFlag & CYBLE_CALLBACK) != 0u)
 456:Generated_Source\PSoC4/BLE_eventHandler.c ****         {
 457:Generated_Source\PSoC4/BLE_eventHandler.c ****             CyBle_BlssConfirmationEventHandler(eventParam);
 458:Generated_Source\PSoC4/BLE_eventHandler.c ****         }
 459:Generated_Source\PSoC4/BLE_eventHandler.c ****     #endif /* CYBLE_BLS_SERVER */
 460:Generated_Source\PSoC4/BLE_eventHandler.c ****     
 461:Generated_Source\PSoC4/BLE_eventHandler.c ****     #ifdef CYBLE_CGMS_SERVER
 462:Generated_Source\PSoC4/BLE_eventHandler.c ****         if((cyBle_eventHandlerFlag & CYBLE_CALLBACK) != 0u)
 463:Generated_Source\PSoC4/BLE_eventHandler.c ****         {
 464:Generated_Source\PSoC4/BLE_eventHandler.c ****             CyBle_CgmssConfirmationEventHandler(eventParam);
 465:Generated_Source\PSoC4/BLE_eventHandler.c ****         }
 466:Generated_Source\PSoC4/BLE_eventHandler.c ****     #endif /* CYBLE_CGMS_SERVER */
 467:Generated_Source\PSoC4/BLE_eventHandler.c ****     
 468:Generated_Source\PSoC4/BLE_eventHandler.c ****     #ifdef CYBLE_CPS_SERVER
 469:Generated_Source\PSoC4/BLE_eventHandler.c ****         if((cyBle_eventHandlerFlag & CYBLE_CALLBACK) != 0u)
 470:Generated_Source\PSoC4/BLE_eventHandler.c ****         {
 471:Generated_Source\PSoC4/BLE_eventHandler.c ****             CyBle_CpssConfirmationEventHandler(eventParam);
 472:Generated_Source\PSoC4/BLE_eventHandler.c ****         }
 473:Generated_Source\PSoC4/BLE_eventHandler.c ****     #endif /* CYBLE_CPS_SERVER */
 474:Generated_Source\PSoC4/BLE_eventHandler.c ****     
 475:Generated_Source\PSoC4/BLE_eventHandler.c ****     #ifdef CYBLE_CSCS_SERVER
 476:Generated_Source\PSoC4/BLE_eventHandler.c ****         if((cyBle_eventHandlerFlag & CYBLE_CALLBACK) != 0u)
 477:Generated_Source\PSoC4/BLE_eventHandler.c ****         {
 478:Generated_Source\PSoC4/BLE_eventHandler.c ****             CyBle_CscssConfirmationEventHandler(eventParam);
 479:Generated_Source\PSoC4/BLE_eventHandler.c ****         }
 480:Generated_Source\PSoC4/BLE_eventHandler.c ****     #endif /* CYBLE_CSCS_SERVER */
 481:Generated_Source\PSoC4/BLE_eventHandler.c ****     
 482:Generated_Source\PSoC4/BLE_eventHandler.c ****     #ifdef CYBLE_ESS_SERVER
 483:Generated_Source\PSoC4/BLE_eventHandler.c ****         if((cyBle_eventHandlerFlag & CYBLE_CALLBACK) != 0u)
 484:Generated_Source\PSoC4/BLE_eventHandler.c ****         {
 485:Generated_Source\PSoC4/BLE_eventHandler.c ****             CyBle_EsssConfirmationEventHandler(eventParam);
 486:Generated_Source\PSoC4/BLE_eventHandler.c ****         }
 487:Generated_Source\PSoC4/BLE_eventHandler.c ****     #endif /* CYBLE_ESS_SERVER */
 488:Generated_Source\PSoC4/BLE_eventHandler.c ****     
 489:Generated_Source\PSoC4/BLE_eventHandler.c ****     #ifdef CYBLE_GLS_SERVER
 490:Generated_Source\PSoC4/BLE_eventHandler.c ****         if((cyBle_eventHandlerFlag & CYBLE_CALLBACK) != 0u)
 491:Generated_Source\PSoC4/BLE_eventHandler.c ****         {
 492:Generated_Source\PSoC4/BLE_eventHandler.c ****             CyBle_GlssConfirmationEventHandler(eventParam);
 493:Generated_Source\PSoC4/BLE_eventHandler.c ****         }
 494:Generated_Source\PSoC4/BLE_eventHandler.c ****     #endif /* CYBLE_GLS_SERVER */
 495:Generated_Source\PSoC4/BLE_eventHandler.c ****     
 496:Generated_Source\PSoC4/BLE_eventHandler.c ****     #ifdef CYBLE_HTS_SERVER
 497:Generated_Source\PSoC4/BLE_eventHandler.c ****         if((cyBle_eventHandlerFlag & CYBLE_CALLBACK) != 0u)
 498:Generated_Source\PSoC4/BLE_eventHandler.c ****         {
 499:Generated_Source\PSoC4/BLE_eventHandler.c ****             CyBle_HtssConfirmationEventHandler(eventParam);
 500:Generated_Source\PSoC4/BLE_eventHandler.c ****         }
 501:Generated_Source\PSoC4/BLE_eventHandler.c ****     #endif /* CYBLE_HTS_SERVER */
 502:Generated_Source\PSoC4/BLE_eventHandler.c **** 
 503:Generated_Source\PSoC4/BLE_eventHandler.c ****     #ifdef CYBLE_LNS_SERVER
 504:Generated_Source\PSoC4/BLE_eventHandler.c ****         if((cyBle_eventHandlerFlag & CYBLE_CALLBACK) != 0u)
 505:Generated_Source\PSoC4/BLE_eventHandler.c ****         {
 506:Generated_Source\PSoC4/BLE_eventHandler.c ****             CyBle_LnssConfirmationEventHandler(eventParam);
 507:Generated_Source\PSoC4/BLE_eventHandler.c ****         }
ARM GAS  C:\Users\ANDREW~1\AppData\Local\Temp\ccKT4bII.s 			page 11


 508:Generated_Source\PSoC4/BLE_eventHandler.c ****     #endif /* CYBLE_LNS_SERVER */
 509:Generated_Source\PSoC4/BLE_eventHandler.c ****     
 510:Generated_Source\PSoC4/BLE_eventHandler.c ****     #ifdef CYBLE_RSCS_SERVER
 511:Generated_Source\PSoC4/BLE_eventHandler.c ****         if((cyBle_eventHandlerFlag & CYBLE_CALLBACK) != 0u)
 512:Generated_Source\PSoC4/BLE_eventHandler.c ****         {
 513:Generated_Source\PSoC4/BLE_eventHandler.c ****             CyBle_RscssConfirmationEventHandler(eventParam);
 514:Generated_Source\PSoC4/BLE_eventHandler.c ****         }
 515:Generated_Source\PSoC4/BLE_eventHandler.c ****     #endif /* CYBLE_RSCS_SERVER */
 516:Generated_Source\PSoC4/BLE_eventHandler.c ****     
 517:Generated_Source\PSoC4/BLE_eventHandler.c ****     #ifdef CYBLE_UDS_SERVER
 518:Generated_Source\PSoC4/BLE_eventHandler.c ****         if((cyBle_eventHandlerFlag & CYBLE_CALLBACK) != 0u)
 519:Generated_Source\PSoC4/BLE_eventHandler.c ****         {
 520:Generated_Source\PSoC4/BLE_eventHandler.c ****             CyBle_UdssConfirmationEventHandler(eventParam);
 521:Generated_Source\PSoC4/BLE_eventHandler.c ****         }
 522:Generated_Source\PSoC4/BLE_eventHandler.c ****     #endif /* CYBLE_UDS_SERVER */
 523:Generated_Source\PSoC4/BLE_eventHandler.c ****     
 524:Generated_Source\PSoC4/BLE_eventHandler.c ****     #ifdef CYBLE_WPTS_SERVER
 525:Generated_Source\PSoC4/BLE_eventHandler.c ****         if((cyBle_eventHandlerFlag & CYBLE_CALLBACK) != 0u)
 526:Generated_Source\PSoC4/BLE_eventHandler.c ****         {
 527:Generated_Source\PSoC4/BLE_eventHandler.c ****             CyBle_WptssConfirmationEventHandler(eventParam);
 528:Generated_Source\PSoC4/BLE_eventHandler.c ****         }
 529:Generated_Source\PSoC4/BLE_eventHandler.c ****     #endif /* CYBLE_WPTS_SERVER */
 530:Generated_Source\PSoC4/BLE_eventHandler.c ****     
 531:Generated_Source\PSoC4/BLE_eventHandler.c ****     #ifdef CYBLE_WSS_SERVER
 532:Generated_Source\PSoC4/BLE_eventHandler.c ****         if((cyBle_eventHandlerFlag & CYBLE_CALLBACK) != 0u)
 533:Generated_Source\PSoC4/BLE_eventHandler.c ****         {
 534:Generated_Source\PSoC4/BLE_eventHandler.c ****             CyBle_WsssConfirmationEventHandler(eventParam);
 535:Generated_Source\PSoC4/BLE_eventHandler.c ****         }
 536:Generated_Source\PSoC4/BLE_eventHandler.c ****     #endif /* CYBLE_WSS_SERVER */
 537:Generated_Source\PSoC4/BLE_eventHandler.c ****     }
 538:Generated_Source\PSoC4/BLE_eventHandler.c **** }
 539:Generated_Source\PSoC4/BLE_eventHandler.c **** 
 540:Generated_Source\PSoC4/BLE_eventHandler.c **** #endif /* CYBLE_GATT_ROLE_SERVER */
 541:Generated_Source\PSoC4/BLE_eventHandler.c **** 
 542:Generated_Source\PSoC4/BLE_eventHandler.c **** 
 543:Generated_Source\PSoC4/BLE_eventHandler.c **** #if (CYBLE_GATT_ROLE_CLIENT)
 544:Generated_Source\PSoC4/BLE_eventHandler.c **** 
 545:Generated_Source\PSoC4/BLE_eventHandler.c **** /****************************************************************************** 
 546:Generated_Source\PSoC4/BLE_eventHandler.c **** * Function Name: CyBle_GattcWriteResponseEventHandler
 547:Generated_Source\PSoC4/BLE_eventHandler.c **** ***************************************************************************//**
 548:Generated_Source\PSoC4/BLE_eventHandler.c **** * 
 549:Generated_Source\PSoC4/BLE_eventHandler.c **** *  Handles the Write response event from the BLE stack.
 550:Generated_Source\PSoC4/BLE_eventHandler.c **** * 
 551:Generated_Source\PSoC4/BLE_eventHandler.c **** *  \param eventParam: Pointer to a structure of type 'CYBLE_CONN_HANDLE_T'
 552:Generated_Source\PSoC4/BLE_eventHandler.c **** * 
 553:Generated_Source\PSoC4/BLE_eventHandler.c **** * \return
 554:Generated_Source\PSoC4/BLE_eventHandler.c **** *  None
 555:Generated_Source\PSoC4/BLE_eventHandler.c **** * 
 556:Generated_Source\PSoC4/BLE_eventHandler.c **** ******************************************************************************/
 557:Generated_Source\PSoC4/BLE_eventHandler.c **** static void CyBle_GattcWriteResponseEventHandler(const CYBLE_CONN_HANDLE_T *eventParam)
 558:Generated_Source\PSoC4/BLE_eventHandler.c **** {
  60              		.loc 1 558 0
  61              		.cfi_startproc
  62 0000 80B5     		push	{r7, lr}
  63              		.cfi_def_cfa_offset 8
  64              		.cfi_offset 7, -8
  65              		.cfi_offset 14, -4
ARM GAS  C:\Users\ANDREW~1\AppData\Local\Temp\ccKT4bII.s 			page 12


  66 0002 82B0     		sub	sp, sp, #8
  67              		.cfi_def_cfa_offset 16
  68 0004 00AF     		add	r7, sp, #0
  69              		.cfi_def_cfa_register 7
  70 0006 7860     		str	r0, [r7, #4]
 559:Generated_Source\PSoC4/BLE_eventHandler.c **** #ifdef CYBLE_ANCS_CLIENT
 560:Generated_Source\PSoC4/BLE_eventHandler.c ****     CyBle_AncscWriteResponseEventHandler(eventParam);
 561:Generated_Source\PSoC4/BLE_eventHandler.c **** #endif /* CYBLE_ANCS_CLIENT */
 562:Generated_Source\PSoC4/BLE_eventHandler.c **** 
 563:Generated_Source\PSoC4/BLE_eventHandler.c **** #ifdef CYBLE_ANS_CLIENT
 564:Generated_Source\PSoC4/BLE_eventHandler.c ****     if((cyBle_eventHandlerFlag & CYBLE_CALLBACK) != 0u)
 565:Generated_Source\PSoC4/BLE_eventHandler.c ****     {
 566:Generated_Source\PSoC4/BLE_eventHandler.c ****         CyBle_AnscWriteResponseEventHandler(eventParam);
 567:Generated_Source\PSoC4/BLE_eventHandler.c ****     }
 568:Generated_Source\PSoC4/BLE_eventHandler.c **** #endif /* CYBLE_ANS_CLIENT */
 569:Generated_Source\PSoC4/BLE_eventHandler.c **** 
 570:Generated_Source\PSoC4/BLE_eventHandler.c **** #ifdef CYBLE_BAS_CLIENT
 571:Generated_Source\PSoC4/BLE_eventHandler.c ****     if((cyBle_eventHandlerFlag & CYBLE_CALLBACK) != 0u)
 572:Generated_Source\PSoC4/BLE_eventHandler.c ****     {
 573:Generated_Source\PSoC4/BLE_eventHandler.c ****         CyBle_BascWriteResponseEventHandler(eventParam);
 574:Generated_Source\PSoC4/BLE_eventHandler.c ****     }
 575:Generated_Source\PSoC4/BLE_eventHandler.c **** #endif /* CYBLE_BAS_CLIENT */
 576:Generated_Source\PSoC4/BLE_eventHandler.c **** 
 577:Generated_Source\PSoC4/BLE_eventHandler.c **** #ifdef CYBLE_BCS_CLIENT
 578:Generated_Source\PSoC4/BLE_eventHandler.c ****     if((cyBle_eventHandlerFlag & CYBLE_CALLBACK) != 0u)
 579:Generated_Source\PSoC4/BLE_eventHandler.c ****     {
 580:Generated_Source\PSoC4/BLE_eventHandler.c ****         CyBle_BcscWriteResponseEventHandler(eventParam);
 581:Generated_Source\PSoC4/BLE_eventHandler.c ****     }
 582:Generated_Source\PSoC4/BLE_eventHandler.c **** #endif /* CYBLE_BCS_CLIENT */
 583:Generated_Source\PSoC4/BLE_eventHandler.c **** 
 584:Generated_Source\PSoC4/BLE_eventHandler.c **** #ifdef CYBLE_BLS_CLIENT
 585:Generated_Source\PSoC4/BLE_eventHandler.c ****     if((cyBle_eventHandlerFlag & CYBLE_CALLBACK) != 0u)
 586:Generated_Source\PSoC4/BLE_eventHandler.c ****     {
 587:Generated_Source\PSoC4/BLE_eventHandler.c ****         CyBle_BlscWriteResponseEventHandler(eventParam);
 588:Generated_Source\PSoC4/BLE_eventHandler.c ****     }
 589:Generated_Source\PSoC4/BLE_eventHandler.c **** #endif /* CYBLE_BLS_CLIENT */
 590:Generated_Source\PSoC4/BLE_eventHandler.c **** 
 591:Generated_Source\PSoC4/BLE_eventHandler.c **** #ifdef CYBLE_BMS_CLIENT
 592:Generated_Source\PSoC4/BLE_eventHandler.c ****     if((cyBle_eventHandlerFlag & CYBLE_CALLBACK) != 0u)
 593:Generated_Source\PSoC4/BLE_eventHandler.c ****     {
 594:Generated_Source\PSoC4/BLE_eventHandler.c ****         CyBle_BmscWriteResponseEventHandler(eventParam);
 595:Generated_Source\PSoC4/BLE_eventHandler.c ****     }
 596:Generated_Source\PSoC4/BLE_eventHandler.c **** #endif /* CYBLE_BMS_CLIENT */
 597:Generated_Source\PSoC4/BLE_eventHandler.c **** 
 598:Generated_Source\PSoC4/BLE_eventHandler.c **** #ifdef CYBLE_CGMS_CLIENT
 599:Generated_Source\PSoC4/BLE_eventHandler.c ****     if((cyBle_eventHandlerFlag & CYBLE_CALLBACK) != 0u)
 600:Generated_Source\PSoC4/BLE_eventHandler.c ****     {
 601:Generated_Source\PSoC4/BLE_eventHandler.c ****         CyBle_CgmscWriteResponseEventHandler(eventParam);
 602:Generated_Source\PSoC4/BLE_eventHandler.c ****     }
 603:Generated_Source\PSoC4/BLE_eventHandler.c **** #endif /* CYBLE_CGMS_CLIENT */
 604:Generated_Source\PSoC4/BLE_eventHandler.c **** 
 605:Generated_Source\PSoC4/BLE_eventHandler.c **** #ifdef CYBLE_CPS_CLIENT
 606:Generated_Source\PSoC4/BLE_eventHandler.c ****     if((cyBle_eventHandlerFlag & CYBLE_CALLBACK) != 0u)
 607:Generated_Source\PSoC4/BLE_eventHandler.c ****     {
 608:Generated_Source\PSoC4/BLE_eventHandler.c ****         CyBle_CpscWriteResponseEventHandler(eventParam);
 609:Generated_Source\PSoC4/BLE_eventHandler.c ****     }
 610:Generated_Source\PSoC4/BLE_eventHandler.c **** #endif /* CYBLE_CPS_CLIENT */
ARM GAS  C:\Users\ANDREW~1\AppData\Local\Temp\ccKT4bII.s 			page 13


 611:Generated_Source\PSoC4/BLE_eventHandler.c **** 
 612:Generated_Source\PSoC4/BLE_eventHandler.c **** #ifdef CYBLE_CSCS_CLIENT
 613:Generated_Source\PSoC4/BLE_eventHandler.c ****     if((cyBle_eventHandlerFlag & CYBLE_CALLBACK) != 0u)
 614:Generated_Source\PSoC4/BLE_eventHandler.c ****     {
 615:Generated_Source\PSoC4/BLE_eventHandler.c ****         CyBle_CscscWriteResponseEventHandler(eventParam);
 616:Generated_Source\PSoC4/BLE_eventHandler.c ****     }
 617:Generated_Source\PSoC4/BLE_eventHandler.c **** #endif /* CYBLE_CSCS_CLIENT */
 618:Generated_Source\PSoC4/BLE_eventHandler.c **** 
 619:Generated_Source\PSoC4/BLE_eventHandler.c **** #ifdef CYBLE_CTS_CLIENT
 620:Generated_Source\PSoC4/BLE_eventHandler.c ****     if((cyBle_eventHandlerFlag & CYBLE_CALLBACK) != 0u)
 621:Generated_Source\PSoC4/BLE_eventHandler.c ****     {
 622:Generated_Source\PSoC4/BLE_eventHandler.c ****         CyBle_CtscWriteResponseEventHandler(eventParam);
 623:Generated_Source\PSoC4/BLE_eventHandler.c ****     }
 624:Generated_Source\PSoC4/BLE_eventHandler.c **** #endif /* CYBLE_CTS_CLIENT */
 625:Generated_Source\PSoC4/BLE_eventHandler.c **** 
 626:Generated_Source\PSoC4/BLE_eventHandler.c **** #ifdef CYBLE_ESS_CLIENT
 627:Generated_Source\PSoC4/BLE_eventHandler.c ****     if((cyBle_eventHandlerFlag & CYBLE_CALLBACK) != 0u)
 628:Generated_Source\PSoC4/BLE_eventHandler.c ****     {
 629:Generated_Source\PSoC4/BLE_eventHandler.c ****         CyBle_EsscWriteResponseEventHandler(eventParam);
 630:Generated_Source\PSoC4/BLE_eventHandler.c ****     }
 631:Generated_Source\PSoC4/BLE_eventHandler.c **** #endif /* CYBLE_ESS_CLIENT */
 632:Generated_Source\PSoC4/BLE_eventHandler.c **** 
 633:Generated_Source\PSoC4/BLE_eventHandler.c **** #ifdef CYBLE_GLS_CLIENT
 634:Generated_Source\PSoC4/BLE_eventHandler.c ****     if((cyBle_eventHandlerFlag & CYBLE_CALLBACK) != 0u)
 635:Generated_Source\PSoC4/BLE_eventHandler.c ****     {
 636:Generated_Source\PSoC4/BLE_eventHandler.c ****         CyBle_GlscWriteResponseEventHandler(eventParam);
 637:Generated_Source\PSoC4/BLE_eventHandler.c ****     }
 638:Generated_Source\PSoC4/BLE_eventHandler.c **** #endif /* CYBLE_GLS_CLIENT */
 639:Generated_Source\PSoC4/BLE_eventHandler.c **** 
 640:Generated_Source\PSoC4/BLE_eventHandler.c **** #ifdef CYBLE_HIDS_CLIENT
 641:Generated_Source\PSoC4/BLE_eventHandler.c ****     if((cyBle_eventHandlerFlag & CYBLE_CALLBACK) != 0u)
 642:Generated_Source\PSoC4/BLE_eventHandler.c ****     {
 643:Generated_Source\PSoC4/BLE_eventHandler.c ****         CyBle_HidscWriteResponseEventHandler(eventParam);
 644:Generated_Source\PSoC4/BLE_eventHandler.c ****     }
 645:Generated_Source\PSoC4/BLE_eventHandler.c **** #endif /* CYBLE_HIDS_CLIENT */
 646:Generated_Source\PSoC4/BLE_eventHandler.c **** 
 647:Generated_Source\PSoC4/BLE_eventHandler.c **** #ifdef CYBLE_HPS_CLIENT
 648:Generated_Source\PSoC4/BLE_eventHandler.c ****     if((cyBle_eventHandlerFlag & CYBLE_CALLBACK) != 0u)
 649:Generated_Source\PSoC4/BLE_eventHandler.c ****     {
 650:Generated_Source\PSoC4/BLE_eventHandler.c ****         CyBle_HpscWriteResponseEventHandler(eventParam);
 651:Generated_Source\PSoC4/BLE_eventHandler.c ****     }
 652:Generated_Source\PSoC4/BLE_eventHandler.c **** #endif /* CYBLE_HPS_CLIENT */
 653:Generated_Source\PSoC4/BLE_eventHandler.c **** 
 654:Generated_Source\PSoC4/BLE_eventHandler.c **** #ifdef CYBLE_HRS_CLIENT
 655:Generated_Source\PSoC4/BLE_eventHandler.c ****     if((cyBle_eventHandlerFlag & CYBLE_CALLBACK) != 0u)
 656:Generated_Source\PSoC4/BLE_eventHandler.c ****     {
 657:Generated_Source\PSoC4/BLE_eventHandler.c ****         CyBle_HrscWriteResponseEventHandler(eventParam);
 658:Generated_Source\PSoC4/BLE_eventHandler.c ****     }
 659:Generated_Source\PSoC4/BLE_eventHandler.c **** #endif /* CYBLE_HRS_CLIENT */
 660:Generated_Source\PSoC4/BLE_eventHandler.c **** 
 661:Generated_Source\PSoC4/BLE_eventHandler.c **** #ifdef CYBLE_HTS_CLIENT
 662:Generated_Source\PSoC4/BLE_eventHandler.c ****     if((cyBle_eventHandlerFlag & CYBLE_CALLBACK) != 0u)
 663:Generated_Source\PSoC4/BLE_eventHandler.c ****     {
 664:Generated_Source\PSoC4/BLE_eventHandler.c ****         CyBle_HtscWriteResponseEventHandler(eventParam);
 665:Generated_Source\PSoC4/BLE_eventHandler.c ****     }
 666:Generated_Source\PSoC4/BLE_eventHandler.c **** #endif /* CYBLE_HTS_CLIENT */
 667:Generated_Source\PSoC4/BLE_eventHandler.c **** 
ARM GAS  C:\Users\ANDREW~1\AppData\Local\Temp\ccKT4bII.s 			page 14


 668:Generated_Source\PSoC4/BLE_eventHandler.c **** #ifdef CYBLE_IPS_CLIENT
 669:Generated_Source\PSoC4/BLE_eventHandler.c ****     if((cyBle_eventHandlerFlag & CYBLE_CALLBACK) != 0u)
 670:Generated_Source\PSoC4/BLE_eventHandler.c ****     {
 671:Generated_Source\PSoC4/BLE_eventHandler.c ****         CyBle_IpscWriteResponseEventHandler(eventParam);
 672:Generated_Source\PSoC4/BLE_eventHandler.c ****     }
 673:Generated_Source\PSoC4/BLE_eventHandler.c **** #endif /* CYBLE_IPS_CLIENT */
 674:Generated_Source\PSoC4/BLE_eventHandler.c **** 
 675:Generated_Source\PSoC4/BLE_eventHandler.c **** #ifdef CYBLE_LLS_CLIENT
 676:Generated_Source\PSoC4/BLE_eventHandler.c ****     if((cyBle_eventHandlerFlag & CYBLE_CALLBACK) != 0u)
 677:Generated_Source\PSoC4/BLE_eventHandler.c ****     {
 678:Generated_Source\PSoC4/BLE_eventHandler.c ****         CyBle_LlscWriteResponseEventHandler(eventParam);
 679:Generated_Source\PSoC4/BLE_eventHandler.c ****     }
 680:Generated_Source\PSoC4/BLE_eventHandler.c **** #endif /* CYBLE_LLS_CLIENT */
 681:Generated_Source\PSoC4/BLE_eventHandler.c **** 
 682:Generated_Source\PSoC4/BLE_eventHandler.c **** #ifdef CYBLE_LNS_CLIENT
 683:Generated_Source\PSoC4/BLE_eventHandler.c ****     if((cyBle_eventHandlerFlag & CYBLE_CALLBACK) != 0u)
 684:Generated_Source\PSoC4/BLE_eventHandler.c ****     {
 685:Generated_Source\PSoC4/BLE_eventHandler.c ****         CyBle_LnscWriteResponseEventHandler(eventParam);
 686:Generated_Source\PSoC4/BLE_eventHandler.c ****     }
 687:Generated_Source\PSoC4/BLE_eventHandler.c **** #endif /* CYBLE_LNS_CLIENT */
 688:Generated_Source\PSoC4/BLE_eventHandler.c **** 
 689:Generated_Source\PSoC4/BLE_eventHandler.c **** #ifdef CYBLE_PASS_CLIENT
 690:Generated_Source\PSoC4/BLE_eventHandler.c ****     if((cyBle_eventHandlerFlag & CYBLE_CALLBACK) != 0u)
 691:Generated_Source\PSoC4/BLE_eventHandler.c ****     {
 692:Generated_Source\PSoC4/BLE_eventHandler.c ****         CyBle_PasscWriteResponseEventHandler(eventParam);
 693:Generated_Source\PSoC4/BLE_eventHandler.c ****     }
 694:Generated_Source\PSoC4/BLE_eventHandler.c **** #endif /* CYBLE_PASS_CLIENT */
 695:Generated_Source\PSoC4/BLE_eventHandler.c **** 
 696:Generated_Source\PSoC4/BLE_eventHandler.c **** #ifdef CYBLE_PLXS_CLIENT
 697:Generated_Source\PSoC4/BLE_eventHandler.c ****     if((cyBle_eventHandlerFlag & CYBLE_CALLBACK) != 0u)
 698:Generated_Source\PSoC4/BLE_eventHandler.c ****     {
 699:Generated_Source\PSoC4/BLE_eventHandler.c ****         CyBle_PlxscWriteResponseEventHandler(eventParam);
 700:Generated_Source\PSoC4/BLE_eventHandler.c ****     }
 701:Generated_Source\PSoC4/BLE_eventHandler.c **** #endif /* CYBLE_PASS_CLIENT */
 702:Generated_Source\PSoC4/BLE_eventHandler.c **** 
 703:Generated_Source\PSoC4/BLE_eventHandler.c **** #ifdef CYBLE_RSCS_CLIENT
 704:Generated_Source\PSoC4/BLE_eventHandler.c ****     if((cyBle_eventHandlerFlag & CYBLE_CALLBACK) != 0u)
 705:Generated_Source\PSoC4/BLE_eventHandler.c ****     {
 706:Generated_Source\PSoC4/BLE_eventHandler.c ****         CyBle_RscscWriteResponseEventHandler(eventParam);
 707:Generated_Source\PSoC4/BLE_eventHandler.c ****     }
 708:Generated_Source\PSoC4/BLE_eventHandler.c **** #endif /* CYBLE_RSCS_CLIENT */
 709:Generated_Source\PSoC4/BLE_eventHandler.c **** 
 710:Generated_Source\PSoC4/BLE_eventHandler.c **** #ifdef CYBLE_SCPS_CLIENT
 711:Generated_Source\PSoC4/BLE_eventHandler.c ****     if((cyBle_eventHandlerFlag & CYBLE_CALLBACK) != 0u)
 712:Generated_Source\PSoC4/BLE_eventHandler.c ****     {
 713:Generated_Source\PSoC4/BLE_eventHandler.c ****         CyBle_ScpscWriteResponseEventHandler(eventParam);
 714:Generated_Source\PSoC4/BLE_eventHandler.c ****     }
 715:Generated_Source\PSoC4/BLE_eventHandler.c **** #endif /* CYBLE_SCPS_CLIENT */
 716:Generated_Source\PSoC4/BLE_eventHandler.c **** 
 717:Generated_Source\PSoC4/BLE_eventHandler.c **** #ifdef CYBLE_TPS_CLIENT
 718:Generated_Source\PSoC4/BLE_eventHandler.c ****     if((cyBle_eventHandlerFlag & CYBLE_CALLBACK) != 0u)
 719:Generated_Source\PSoC4/BLE_eventHandler.c ****     {
 720:Generated_Source\PSoC4/BLE_eventHandler.c ****         CyBle_TpscWriteResponseEventHandler(eventParam);
 721:Generated_Source\PSoC4/BLE_eventHandler.c ****     }
 722:Generated_Source\PSoC4/BLE_eventHandler.c **** #endif /* CYBLE_TPS_CLIENT */
 723:Generated_Source\PSoC4/BLE_eventHandler.c **** 
 724:Generated_Source\PSoC4/BLE_eventHandler.c **** #ifdef CYBLE_UDS_CLIENT
ARM GAS  C:\Users\ANDREW~1\AppData\Local\Temp\ccKT4bII.s 			page 15


 725:Generated_Source\PSoC4/BLE_eventHandler.c ****     if((cyBle_eventHandlerFlag & CYBLE_CALLBACK) != 0u)
 726:Generated_Source\PSoC4/BLE_eventHandler.c ****     {
 727:Generated_Source\PSoC4/BLE_eventHandler.c ****         CyBle_UdscWriteResponseEventHandler(eventParam);
 728:Generated_Source\PSoC4/BLE_eventHandler.c ****     }
 729:Generated_Source\PSoC4/BLE_eventHandler.c **** #endif /* CYBLE_UDS_CLIENT */
 730:Generated_Source\PSoC4/BLE_eventHandler.c **** #ifdef CYBLE_WPTS_CLIENT
 731:Generated_Source\PSoC4/BLE_eventHandler.c ****     if((cyBle_eventHandlerFlag & CYBLE_CALLBACK) != 0u)
 732:Generated_Source\PSoC4/BLE_eventHandler.c ****     {
 733:Generated_Source\PSoC4/BLE_eventHandler.c ****         CyBle_WptscWriteResponseEventHandler(eventParam);
 734:Generated_Source\PSoC4/BLE_eventHandler.c ****     }
 735:Generated_Source\PSoC4/BLE_eventHandler.c **** #endif /* CYBLE_WPTS_CLIENT */
 736:Generated_Source\PSoC4/BLE_eventHandler.c **** #ifdef CYBLE_WSS_CLIENT
 737:Generated_Source\PSoC4/BLE_eventHandler.c ****     if((cyBle_eventHandlerFlag & CYBLE_CALLBACK) != 0u)
 738:Generated_Source\PSoC4/BLE_eventHandler.c ****     {
 739:Generated_Source\PSoC4/BLE_eventHandler.c ****         CyBle_WsscWriteResponseEventHandler(eventParam);
 740:Generated_Source\PSoC4/BLE_eventHandler.c ****     }
 741:Generated_Source\PSoC4/BLE_eventHandler.c **** #endif /* CYBLE_WSS_CLIENT */
 742:Generated_Source\PSoC4/BLE_eventHandler.c **** }
  71              		.loc 1 742 0
  72 0008 BD46     		mov	sp, r7
  73 000a 02B0     		add	sp, sp, #8
  74              		@ sp needed
  75 000c 80BD     		pop	{r7, pc}
  76              		.cfi_endproc
  77              	.LFE2:
  78              		.size	CyBle_GattcWriteResponseEventHandler, .-CyBle_GattcWriteResponseEventHandler
  79 000e C046     		.section	.text.CyBle_NotificationEventHandler,"ax",%progbits
  80              		.align	2
  81              		.code	16
  82              		.thumb_func
  83              		.type	CyBle_NotificationEventHandler, %function
  84              	CyBle_NotificationEventHandler:
  85              	.LFB3:
 743:Generated_Source\PSoC4/BLE_eventHandler.c **** 
 744:Generated_Source\PSoC4/BLE_eventHandler.c **** 
 745:Generated_Source\PSoC4/BLE_eventHandler.c **** /******************************************************************************    
 746:Generated_Source\PSoC4/BLE_eventHandler.c **** * Function Name: CyBle_NotificationEventHandler
 747:Generated_Source\PSoC4/BLE_eventHandler.c **** ***************************************************************************//**
 748:Generated_Source\PSoC4/BLE_eventHandler.c **** * 
 749:Generated_Source\PSoC4/BLE_eventHandler.c **** *  Handles the Notification event from BLE stack.
 750:Generated_Source\PSoC4/BLE_eventHandler.c **** * 
 751:Generated_Source\PSoC4/BLE_eventHandler.c **** *  \param eventParam: event parameter
 752:Generated_Source\PSoC4/BLE_eventHandler.c **** * 
 753:Generated_Source\PSoC4/BLE_eventHandler.c **** * \return
 754:Generated_Source\PSoC4/BLE_eventHandler.c **** *  None
 755:Generated_Source\PSoC4/BLE_eventHandler.c **** * 
 756:Generated_Source\PSoC4/BLE_eventHandler.c **** ******************************************************************************/
 757:Generated_Source\PSoC4/BLE_eventHandler.c **** static void CyBle_NotificationEventHandler(CYBLE_GATTC_HANDLE_VALUE_NTF_PARAM_T *eventParam)
 758:Generated_Source\PSoC4/BLE_eventHandler.c **** {
  86              		.loc 1 758 0
  87              		.cfi_startproc
  88 0000 80B5     		push	{r7, lr}
  89              		.cfi_def_cfa_offset 8
  90              		.cfi_offset 7, -8
  91              		.cfi_offset 14, -4
  92 0002 82B0     		sub	sp, sp, #8
  93              		.cfi_def_cfa_offset 16
ARM GAS  C:\Users\ANDREW~1\AppData\Local\Temp\ccKT4bII.s 			page 16


  94 0004 00AF     		add	r7, sp, #0
  95              		.cfi_def_cfa_register 7
  96 0006 7860     		str	r0, [r7, #4]
 759:Generated_Source\PSoC4/BLE_eventHandler.c **** #ifdef CYBLE_ANCS_CLIENT
 760:Generated_Source\PSoC4/BLE_eventHandler.c ****     CyBle_AncscNotificationEventHandler(eventParam);
 761:Generated_Source\PSoC4/BLE_eventHandler.c **** #endif /* CYBLE_ANCS_CLIENT */
 762:Generated_Source\PSoC4/BLE_eventHandler.c **** #ifdef CYBLE_ANS_CLIENT
 763:Generated_Source\PSoC4/BLE_eventHandler.c ****     if((cyBle_eventHandlerFlag & CYBLE_CALLBACK) != 0u)
 764:Generated_Source\PSoC4/BLE_eventHandler.c ****     {
 765:Generated_Source\PSoC4/BLE_eventHandler.c ****         CyBle_AnscNotificationEventHandler(eventParam);
 766:Generated_Source\PSoC4/BLE_eventHandler.c ****     }
 767:Generated_Source\PSoC4/BLE_eventHandler.c **** #endif /* CYBLE_ANS_CLIENT */
 768:Generated_Source\PSoC4/BLE_eventHandler.c **** #ifdef CYBLE_BAS_CLIENT
 769:Generated_Source\PSoC4/BLE_eventHandler.c ****     if((cyBle_eventHandlerFlag & CYBLE_CALLBACK) != 0u)
 770:Generated_Source\PSoC4/BLE_eventHandler.c ****     {
 771:Generated_Source\PSoC4/BLE_eventHandler.c ****         CyBle_BascNotificationEventHandler(eventParam);
 772:Generated_Source\PSoC4/BLE_eventHandler.c ****     }
 773:Generated_Source\PSoC4/BLE_eventHandler.c **** #endif /* CYBLE_BAS_CLIENT */
 774:Generated_Source\PSoC4/BLE_eventHandler.c **** #ifdef CYBLE_BLS_CLIENT
 775:Generated_Source\PSoC4/BLE_eventHandler.c ****     if((cyBle_eventHandlerFlag & CYBLE_CALLBACK) != 0u)
 776:Generated_Source\PSoC4/BLE_eventHandler.c ****     {
 777:Generated_Source\PSoC4/BLE_eventHandler.c ****         CyBle_BlscNotificationEventHandler(eventParam);
 778:Generated_Source\PSoC4/BLE_eventHandler.c ****     }
 779:Generated_Source\PSoC4/BLE_eventHandler.c **** #endif /* CYBLE_BLS_CLIENT */
 780:Generated_Source\PSoC4/BLE_eventHandler.c **** #ifdef CYBLE_CGMS_CLIENT
 781:Generated_Source\PSoC4/BLE_eventHandler.c ****     if((cyBle_eventHandlerFlag & CYBLE_CALLBACK) != 0u)
 782:Generated_Source\PSoC4/BLE_eventHandler.c ****     {
 783:Generated_Source\PSoC4/BLE_eventHandler.c ****         CyBle_CgmscNotificationEventHandler(eventParam);
 784:Generated_Source\PSoC4/BLE_eventHandler.c ****     }
 785:Generated_Source\PSoC4/BLE_eventHandler.c **** #endif /* CYBLE_CGMS_CLIENT */
 786:Generated_Source\PSoC4/BLE_eventHandler.c **** #ifdef CYBLE_CPS_CLIENT
 787:Generated_Source\PSoC4/BLE_eventHandler.c ****     if((cyBle_eventHandlerFlag & CYBLE_CALLBACK) != 0u)
 788:Generated_Source\PSoC4/BLE_eventHandler.c ****     {
 789:Generated_Source\PSoC4/BLE_eventHandler.c ****         CyBle_CpscNotificationEventHandler(eventParam);
 790:Generated_Source\PSoC4/BLE_eventHandler.c ****     }
 791:Generated_Source\PSoC4/BLE_eventHandler.c **** #endif /* CYBLE_CPS_CLIENT */
 792:Generated_Source\PSoC4/BLE_eventHandler.c **** #ifdef CYBLE_CSCS_CLIENT
 793:Generated_Source\PSoC4/BLE_eventHandler.c ****     if((cyBle_eventHandlerFlag & CYBLE_CALLBACK) != 0u)
 794:Generated_Source\PSoC4/BLE_eventHandler.c ****     {
 795:Generated_Source\PSoC4/BLE_eventHandler.c ****         CyBle_CscscNotificationEventHandler(eventParam);
 796:Generated_Source\PSoC4/BLE_eventHandler.c ****     }
 797:Generated_Source\PSoC4/BLE_eventHandler.c **** #endif /* CYBLE_CSCS_CLIENT */
 798:Generated_Source\PSoC4/BLE_eventHandler.c **** #ifdef CYBLE_CTS_CLIENT
 799:Generated_Source\PSoC4/BLE_eventHandler.c ****     if((cyBle_eventHandlerFlag & CYBLE_CALLBACK) != 0u)
 800:Generated_Source\PSoC4/BLE_eventHandler.c ****     {
 801:Generated_Source\PSoC4/BLE_eventHandler.c ****         CyBle_CtscNotificationEventHandler(eventParam);
 802:Generated_Source\PSoC4/BLE_eventHandler.c ****     }
 803:Generated_Source\PSoC4/BLE_eventHandler.c **** #endif /* CYBLE_CTS_CLIENT */
 804:Generated_Source\PSoC4/BLE_eventHandler.c **** #ifdef CYBLE_ESS_CLIENT
 805:Generated_Source\PSoC4/BLE_eventHandler.c ****     if((cyBle_eventHandlerFlag & CYBLE_CALLBACK) != 0u)
 806:Generated_Source\PSoC4/BLE_eventHandler.c ****     {
 807:Generated_Source\PSoC4/BLE_eventHandler.c ****         CyBle_EsscNotificationEventHandler(eventParam);
 808:Generated_Source\PSoC4/BLE_eventHandler.c ****     }
 809:Generated_Source\PSoC4/BLE_eventHandler.c **** #endif /* CYBLE_ESS_CLIENT */
 810:Generated_Source\PSoC4/BLE_eventHandler.c **** #ifdef CYBLE_GLS_CLIENT
 811:Generated_Source\PSoC4/BLE_eventHandler.c ****     if((cyBle_eventHandlerFlag & CYBLE_CALLBACK) != 0u)
 812:Generated_Source\PSoC4/BLE_eventHandler.c ****     {
ARM GAS  C:\Users\ANDREW~1\AppData\Local\Temp\ccKT4bII.s 			page 17


 813:Generated_Source\PSoC4/BLE_eventHandler.c ****         CyBle_GlscNotificationEventHandler(eventParam);
 814:Generated_Source\PSoC4/BLE_eventHandler.c ****     }
 815:Generated_Source\PSoC4/BLE_eventHandler.c **** #endif /* CYBLE_GLS_CLIENT */
 816:Generated_Source\PSoC4/BLE_eventHandler.c **** #ifdef CYBLE_HIDS_CLIENT
 817:Generated_Source\PSoC4/BLE_eventHandler.c ****     if((cyBle_eventHandlerFlag & CYBLE_CALLBACK) != 0u)
 818:Generated_Source\PSoC4/BLE_eventHandler.c ****     {
 819:Generated_Source\PSoC4/BLE_eventHandler.c ****         CyBle_HidscNotificationEventHandler(eventParam);
 820:Generated_Source\PSoC4/BLE_eventHandler.c ****     }
 821:Generated_Source\PSoC4/BLE_eventHandler.c **** #endif /* CYBLE_HIDS_CLIENT */
 822:Generated_Source\PSoC4/BLE_eventHandler.c **** #ifdef CYBLE_HPS_CLIENT
 823:Generated_Source\PSoC4/BLE_eventHandler.c ****     if((cyBle_eventHandlerFlag & CYBLE_CALLBACK) != 0u)
 824:Generated_Source\PSoC4/BLE_eventHandler.c ****     {
 825:Generated_Source\PSoC4/BLE_eventHandler.c ****         CyBle_HpscNotificationEventHandler(eventParam);
 826:Generated_Source\PSoC4/BLE_eventHandler.c ****     }
 827:Generated_Source\PSoC4/BLE_eventHandler.c **** #endif /* CYBLE_HPS_CLIENT */
 828:Generated_Source\PSoC4/BLE_eventHandler.c **** #ifdef CYBLE_HRS_CLIENT
 829:Generated_Source\PSoC4/BLE_eventHandler.c ****     if((cyBle_eventHandlerFlag & CYBLE_CALLBACK) != 0u)
 830:Generated_Source\PSoC4/BLE_eventHandler.c ****     {
 831:Generated_Source\PSoC4/BLE_eventHandler.c ****         CyBle_HrscNotificationEventHandler(eventParam);
 832:Generated_Source\PSoC4/BLE_eventHandler.c ****     }
 833:Generated_Source\PSoC4/BLE_eventHandler.c **** #endif /* CYBLE_HRS_CLIENT */
 834:Generated_Source\PSoC4/BLE_eventHandler.c **** #ifdef CYBLE_HTS_CLIENT
 835:Generated_Source\PSoC4/BLE_eventHandler.c ****     if((cyBle_eventHandlerFlag & CYBLE_CALLBACK) != 0u)
 836:Generated_Source\PSoC4/BLE_eventHandler.c ****     {
 837:Generated_Source\PSoC4/BLE_eventHandler.c ****         CyBle_HtscNotificationEventHandler(eventParam);
 838:Generated_Source\PSoC4/BLE_eventHandler.c ****     }
 839:Generated_Source\PSoC4/BLE_eventHandler.c **** #endif /* CYBLE_HTS_CLIENT */
 840:Generated_Source\PSoC4/BLE_eventHandler.c **** #ifdef CYBLE_LNS_CLIENT
 841:Generated_Source\PSoC4/BLE_eventHandler.c ****     if((cyBle_eventHandlerFlag & CYBLE_CALLBACK) != 0u)
 842:Generated_Source\PSoC4/BLE_eventHandler.c ****     {
 843:Generated_Source\PSoC4/BLE_eventHandler.c ****         CyBle_LnscNotificationEventHandler(eventParam);
 844:Generated_Source\PSoC4/BLE_eventHandler.c ****     }
 845:Generated_Source\PSoC4/BLE_eventHandler.c **** #endif /* CYBLE_LNS_CLIENT */
 846:Generated_Source\PSoC4/BLE_eventHandler.c **** #ifdef CYBLE_PASS_CLIENT
 847:Generated_Source\PSoC4/BLE_eventHandler.c ****     if((cyBle_eventHandlerFlag & CYBLE_CALLBACK) != 0u)
 848:Generated_Source\PSoC4/BLE_eventHandler.c ****     {
 849:Generated_Source\PSoC4/BLE_eventHandler.c ****         CyBle_PasscNotificationEventHandler(eventParam);
 850:Generated_Source\PSoC4/BLE_eventHandler.c ****     }
 851:Generated_Source\PSoC4/BLE_eventHandler.c **** #endif /* CYBLE_PASS_CLIENT */
 852:Generated_Source\PSoC4/BLE_eventHandler.c **** #ifdef CYBLE_RSCS_CLIENT
 853:Generated_Source\PSoC4/BLE_eventHandler.c ****     if((cyBle_eventHandlerFlag & CYBLE_CALLBACK) != 0u)
 854:Generated_Source\PSoC4/BLE_eventHandler.c ****     {
 855:Generated_Source\PSoC4/BLE_eventHandler.c ****         CyBle_RscscNotificationEventHandler(eventParam);
 856:Generated_Source\PSoC4/BLE_eventHandler.c ****     }
 857:Generated_Source\PSoC4/BLE_eventHandler.c **** #endif /* CYBLE_RSCS_CLIENT */
 858:Generated_Source\PSoC4/BLE_eventHandler.c **** #ifdef CYBLE_SCPS_CLIENT
 859:Generated_Source\PSoC4/BLE_eventHandler.c ****     if((cyBle_eventHandlerFlag & CYBLE_CALLBACK) != 0u)
 860:Generated_Source\PSoC4/BLE_eventHandler.c ****     {
 861:Generated_Source\PSoC4/BLE_eventHandler.c ****         CyBle_ScpscNotificationEventHandler(eventParam);
 862:Generated_Source\PSoC4/BLE_eventHandler.c ****     }
 863:Generated_Source\PSoC4/BLE_eventHandler.c **** #endif /* CYBLE_SCPS_CLIENT */
 864:Generated_Source\PSoC4/BLE_eventHandler.c **** #ifdef CYBLE_TPS_CLIENT
 865:Generated_Source\PSoC4/BLE_eventHandler.c ****     if((cyBle_eventHandlerFlag & CYBLE_CALLBACK) != 0u)
 866:Generated_Source\PSoC4/BLE_eventHandler.c ****     {
 867:Generated_Source\PSoC4/BLE_eventHandler.c ****         CyBle_TpscNotificationEventHandler(eventParam);
 868:Generated_Source\PSoC4/BLE_eventHandler.c ****     }
 869:Generated_Source\PSoC4/BLE_eventHandler.c **** #endif /* CYBLE_TPS_CLIENT */
ARM GAS  C:\Users\ANDREW~1\AppData\Local\Temp\ccKT4bII.s 			page 18


 870:Generated_Source\PSoC4/BLE_eventHandler.c **** #ifdef CYBLE_UDS_CLIENT
 871:Generated_Source\PSoC4/BLE_eventHandler.c ****     if((cyBle_eventHandlerFlag & CYBLE_CALLBACK) != 0u)
 872:Generated_Source\PSoC4/BLE_eventHandler.c ****     {
 873:Generated_Source\PSoC4/BLE_eventHandler.c ****         CyBle_UdscNotificationEventHandler(eventParam);
 874:Generated_Source\PSoC4/BLE_eventHandler.c ****     }
 875:Generated_Source\PSoC4/BLE_eventHandler.c **** #endif /* CYBLE_UDS_CLIENT */
 876:Generated_Source\PSoC4/BLE_eventHandler.c **** #ifdef CYBLE_WPTS_CLIENT
 877:Generated_Source\PSoC4/BLE_eventHandler.c ****     if((cyBle_eventHandlerFlag & CYBLE_CALLBACK) != 0u)
 878:Generated_Source\PSoC4/BLE_eventHandler.c ****     {
 879:Generated_Source\PSoC4/BLE_eventHandler.c ****         CyBle_WptscNotificationEventHandler(eventParam);
 880:Generated_Source\PSoC4/BLE_eventHandler.c ****     }
 881:Generated_Source\PSoC4/BLE_eventHandler.c **** #endif /* CYBLE_WPTS_CLIENT */
 882:Generated_Source\PSoC4/BLE_eventHandler.c **** }
  97              		.loc 1 882 0
  98 0008 BD46     		mov	sp, r7
  99 000a 02B0     		add	sp, sp, #8
 100              		@ sp needed
 101 000c 80BD     		pop	{r7, pc}
 102              		.cfi_endproc
 103              	.LFE3:
 104              		.size	CyBle_NotificationEventHandler, .-CyBle_NotificationEventHandler
 105              		.section	.text.CyBle_IndicationEventHandler,"ax",%progbits
 106              		.align	2
 107              		.code	16
 108              		.thumb_func
 109              		.type	CyBle_IndicationEventHandler, %function
 110              	CyBle_IndicationEventHandler:
 111              	.LFB4:
 883:Generated_Source\PSoC4/BLE_eventHandler.c **** 
 884:Generated_Source\PSoC4/BLE_eventHandler.c **** 
 885:Generated_Source\PSoC4/BLE_eventHandler.c **** /******************************************************************************    
 886:Generated_Source\PSoC4/BLE_eventHandler.c **** * Function Name: CyBle_IndicationEventHandler
 887:Generated_Source\PSoC4/BLE_eventHandler.c **** ***************************************************************************//**
 888:Generated_Source\PSoC4/BLE_eventHandler.c **** * 
 889:Generated_Source\PSoC4/BLE_eventHandler.c **** *  Handles the Indication event from BLE stack.
 890:Generated_Source\PSoC4/BLE_eventHandler.c **** * 
 891:Generated_Source\PSoC4/BLE_eventHandler.c **** *  \param eventParam: event parameter
 892:Generated_Source\PSoC4/BLE_eventHandler.c **** * 
 893:Generated_Source\PSoC4/BLE_eventHandler.c **** * \return
 894:Generated_Source\PSoC4/BLE_eventHandler.c **** *  None
 895:Generated_Source\PSoC4/BLE_eventHandler.c **** * 
 896:Generated_Source\PSoC4/BLE_eventHandler.c **** ******************************************************************************/
 897:Generated_Source\PSoC4/BLE_eventHandler.c **** static void CyBle_IndicationEventHandler(CYBLE_GATTC_HANDLE_VALUE_IND_PARAM_T *eventParam)
 898:Generated_Source\PSoC4/BLE_eventHandler.c **** {
 112              		.loc 1 898 0
 113              		.cfi_startproc
 114 0000 80B5     		push	{r7, lr}
 115              		.cfi_def_cfa_offset 8
 116              		.cfi_offset 7, -8
 117              		.cfi_offset 14, -4
 118 0002 82B0     		sub	sp, sp, #8
 119              		.cfi_def_cfa_offset 16
 120 0004 00AF     		add	r7, sp, #0
 121              		.cfi_def_cfa_register 7
 122 0006 7860     		str	r0, [r7, #4]
 899:Generated_Source\PSoC4/BLE_eventHandler.c **** #ifdef CYBLE_BCS_CLIENT
 900:Generated_Source\PSoC4/BLE_eventHandler.c ****     if((cyBle_eventHandlerFlag & CYBLE_CALLBACK) != 0u)
ARM GAS  C:\Users\ANDREW~1\AppData\Local\Temp\ccKT4bII.s 			page 19


 901:Generated_Source\PSoC4/BLE_eventHandler.c ****     {
 902:Generated_Source\PSoC4/BLE_eventHandler.c ****         CyBle_BcscIndicationEventHandler(eventParam);
 903:Generated_Source\PSoC4/BLE_eventHandler.c ****     }
 904:Generated_Source\PSoC4/BLE_eventHandler.c **** #endif /* CYBLE_BCS_CLIENT */
 905:Generated_Source\PSoC4/BLE_eventHandler.c **** #ifdef CYBLE_BLS_CLIENT
 906:Generated_Source\PSoC4/BLE_eventHandler.c ****     if((cyBle_eventHandlerFlag & CYBLE_CALLBACK) != 0u)
 907:Generated_Source\PSoC4/BLE_eventHandler.c ****     {
 908:Generated_Source\PSoC4/BLE_eventHandler.c ****         CyBle_BlscIndicationEventHandler(eventParam);
 909:Generated_Source\PSoC4/BLE_eventHandler.c ****     }
 910:Generated_Source\PSoC4/BLE_eventHandler.c **** #endif /* CYBLE_BLS_CLIENT */
 911:Generated_Source\PSoC4/BLE_eventHandler.c **** #ifdef CYBLE_CGMS_CLIENT
 912:Generated_Source\PSoC4/BLE_eventHandler.c ****     if((cyBle_eventHandlerFlag & CYBLE_CALLBACK) != 0u)
 913:Generated_Source\PSoC4/BLE_eventHandler.c ****     {
 914:Generated_Source\PSoC4/BLE_eventHandler.c ****         CyBle_CgmscIndicationEventHandler(eventParam);
 915:Generated_Source\PSoC4/BLE_eventHandler.c ****     }
 916:Generated_Source\PSoC4/BLE_eventHandler.c **** #endif /* CYBLE_CGMS_CLIENT */
 917:Generated_Source\PSoC4/BLE_eventHandler.c **** #ifdef CYBLE_CPS_CLIENT
 918:Generated_Source\PSoC4/BLE_eventHandler.c ****     if((cyBle_eventHandlerFlag & CYBLE_CALLBACK) != 0u)
 919:Generated_Source\PSoC4/BLE_eventHandler.c ****     {
 920:Generated_Source\PSoC4/BLE_eventHandler.c ****         CyBle_CpscIndicationEventHandler(eventParam);
 921:Generated_Source\PSoC4/BLE_eventHandler.c ****     }
 922:Generated_Source\PSoC4/BLE_eventHandler.c **** #endif /* CYBLE_CPS_CLIENT */
 923:Generated_Source\PSoC4/BLE_eventHandler.c **** #ifdef CYBLE_CSCS_CLIENT
 924:Generated_Source\PSoC4/BLE_eventHandler.c ****     if((cyBle_eventHandlerFlag & CYBLE_CALLBACK) != 0u)
 925:Generated_Source\PSoC4/BLE_eventHandler.c ****     {
 926:Generated_Source\PSoC4/BLE_eventHandler.c ****         CyBle_CscscIndicationEventHandler(eventParam);
 927:Generated_Source\PSoC4/BLE_eventHandler.c ****     }
 928:Generated_Source\PSoC4/BLE_eventHandler.c **** #endif /* CYBLE_CSCS_CLIENT */
 929:Generated_Source\PSoC4/BLE_eventHandler.c **** #ifdef CYBLE_ESS_CLIENT
 930:Generated_Source\PSoC4/BLE_eventHandler.c ****     if((cyBle_eventHandlerFlag & CYBLE_CALLBACK) != 0u)
 931:Generated_Source\PSoC4/BLE_eventHandler.c ****     {
 932:Generated_Source\PSoC4/BLE_eventHandler.c ****         CyBle_EsscIndicationEventHandler(eventParam);
 933:Generated_Source\PSoC4/BLE_eventHandler.c ****     }
 934:Generated_Source\PSoC4/BLE_eventHandler.c **** #endif /* CYBLE_ESS_CLIENT */
 935:Generated_Source\PSoC4/BLE_eventHandler.c **** #ifdef CYBLE_GLS_CLIENT
 936:Generated_Source\PSoC4/BLE_eventHandler.c ****     if((cyBle_eventHandlerFlag & CYBLE_CALLBACK) != 0u)
 937:Generated_Source\PSoC4/BLE_eventHandler.c ****     {
 938:Generated_Source\PSoC4/BLE_eventHandler.c ****         CyBle_GlscIndicationEventHandler(eventParam);
 939:Generated_Source\PSoC4/BLE_eventHandler.c ****     }
 940:Generated_Source\PSoC4/BLE_eventHandler.c **** #endif /* CYBLE_GLS_CLIENT */
 941:Generated_Source\PSoC4/BLE_eventHandler.c **** #ifdef CYBLE_HTS_CLIENT
 942:Generated_Source\PSoC4/BLE_eventHandler.c ****     if((cyBle_eventHandlerFlag & CYBLE_CALLBACK) != 0u)
 943:Generated_Source\PSoC4/BLE_eventHandler.c ****     {
 944:Generated_Source\PSoC4/BLE_eventHandler.c ****         CyBle_HtscIndicationEventHandler(eventParam);
 945:Generated_Source\PSoC4/BLE_eventHandler.c ****     }
 946:Generated_Source\PSoC4/BLE_eventHandler.c **** #endif /* CYBLE_HTS_CLIENT */
 947:Generated_Source\PSoC4/BLE_eventHandler.c **** #ifdef CYBLE_LNS_CLIENT
 948:Generated_Source\PSoC4/BLE_eventHandler.c ****     if((cyBle_eventHandlerFlag & CYBLE_CALLBACK) != 0u)
 949:Generated_Source\PSoC4/BLE_eventHandler.c ****     {
 950:Generated_Source\PSoC4/BLE_eventHandler.c ****         CyBle_LnscIndicationEventHandler(eventParam);
 951:Generated_Source\PSoC4/BLE_eventHandler.c ****     }
 952:Generated_Source\PSoC4/BLE_eventHandler.c **** #endif /* CYBLE_LNS_CLIENT */
 953:Generated_Source\PSoC4/BLE_eventHandler.c **** #ifdef CYBLE_RSCS_CLIENT
 954:Generated_Source\PSoC4/BLE_eventHandler.c ****     if((cyBle_eventHandlerFlag & CYBLE_CALLBACK) != 0u)
 955:Generated_Source\PSoC4/BLE_eventHandler.c ****     {
 956:Generated_Source\PSoC4/BLE_eventHandler.c ****         CyBle_RscscIndicationEventHandler(eventParam);
 957:Generated_Source\PSoC4/BLE_eventHandler.c ****     }
ARM GAS  C:\Users\ANDREW~1\AppData\Local\Temp\ccKT4bII.s 			page 20


 958:Generated_Source\PSoC4/BLE_eventHandler.c **** #endif /* CYBLE_RSCS_CLIENT */
 959:Generated_Source\PSoC4/BLE_eventHandler.c **** #ifdef CYBLE_UDS_CLIENT
 960:Generated_Source\PSoC4/BLE_eventHandler.c ****     if((cyBle_eventHandlerFlag & CYBLE_CALLBACK) != 0u)
 961:Generated_Source\PSoC4/BLE_eventHandler.c ****     {
 962:Generated_Source\PSoC4/BLE_eventHandler.c ****         CyBle_UdscIndicationEventHandler(eventParam);
 963:Generated_Source\PSoC4/BLE_eventHandler.c ****     }
 964:Generated_Source\PSoC4/BLE_eventHandler.c **** #endif /* CYBLE_UDS_CLIENT */
 965:Generated_Source\PSoC4/BLE_eventHandler.c **** #ifdef CYBLE_WPTS_CLIENT
 966:Generated_Source\PSoC4/BLE_eventHandler.c ****     if((cyBle_eventHandlerFlag & CYBLE_CALLBACK) != 0u)
 967:Generated_Source\PSoC4/BLE_eventHandler.c ****     {
 968:Generated_Source\PSoC4/BLE_eventHandler.c ****         CyBle_WptscIndicationEventHandler(eventParam);
 969:Generated_Source\PSoC4/BLE_eventHandler.c ****     }
 970:Generated_Source\PSoC4/BLE_eventHandler.c **** #endif /* CYBLE_WPTS_CLIENT */
 971:Generated_Source\PSoC4/BLE_eventHandler.c **** #ifdef CYBLE_WSS_CLIENT
 972:Generated_Source\PSoC4/BLE_eventHandler.c ****     if((cyBle_eventHandlerFlag & CYBLE_CALLBACK) != 0u)
 973:Generated_Source\PSoC4/BLE_eventHandler.c ****     {
 974:Generated_Source\PSoC4/BLE_eventHandler.c ****         CyBle_WsscIndicationEventHandler(eventParam);
 975:Generated_Source\PSoC4/BLE_eventHandler.c ****     }
 976:Generated_Source\PSoC4/BLE_eventHandler.c **** #endif /* CYBLE_WSS_CLIENT */
 977:Generated_Source\PSoC4/BLE_eventHandler.c **** }
 123              		.loc 1 977 0
 124 0008 BD46     		mov	sp, r7
 125 000a 02B0     		add	sp, sp, #8
 126              		@ sp needed
 127 000c 80BD     		pop	{r7, pc}
 128              		.cfi_endproc
 129              	.LFE4:
 130              		.size	CyBle_IndicationEventHandler, .-CyBle_IndicationEventHandler
 131              		.section	.text.CyBle_ReadResponseEventHandler,"ax",%progbits
 132              		.align	2
 133              		.code	16
 134              		.thumb_func
 135              		.type	CyBle_ReadResponseEventHandler, %function
 136              	CyBle_ReadResponseEventHandler:
 137              	.LFB5:
 978:Generated_Source\PSoC4/BLE_eventHandler.c **** 
 979:Generated_Source\PSoC4/BLE_eventHandler.c **** 
 980:Generated_Source\PSoC4/BLE_eventHandler.c **** 
 981:Generated_Source\PSoC4/BLE_eventHandler.c **** /******************************************************************************    
 982:Generated_Source\PSoC4/BLE_eventHandler.c **** * Function Name: CyBle_ReadResponseEventHandler
 983:Generated_Source\PSoC4/BLE_eventHandler.c **** ***************************************************************************//**
 984:Generated_Source\PSoC4/BLE_eventHandler.c **** * 
 985:Generated_Source\PSoC4/BLE_eventHandler.c **** *  Handles the Read Response event from BLE stack.
 986:Generated_Source\PSoC4/BLE_eventHandler.c **** * 
 987:Generated_Source\PSoC4/BLE_eventHandler.c **** *  \param eventParam: event parameter
 988:Generated_Source\PSoC4/BLE_eventHandler.c **** * 
 989:Generated_Source\PSoC4/BLE_eventHandler.c **** * \return
 990:Generated_Source\PSoC4/BLE_eventHandler.c **** *  None
 991:Generated_Source\PSoC4/BLE_eventHandler.c **** * 
 992:Generated_Source\PSoC4/BLE_eventHandler.c **** ******************************************************************************/
 993:Generated_Source\PSoC4/BLE_eventHandler.c **** static void CyBle_ReadResponseEventHandler(CYBLE_GATTC_READ_RSP_PARAM_T *eventParam)
 994:Generated_Source\PSoC4/BLE_eventHandler.c **** {
 138              		.loc 1 994 0
 139              		.cfi_startproc
 140 0000 90B5     		push	{r4, r7, lr}
 141              		.cfi_def_cfa_offset 12
 142              		.cfi_offset 4, -12
ARM GAS  C:\Users\ANDREW~1\AppData\Local\Temp\ccKT4bII.s 			page 21


 143              		.cfi_offset 7, -8
 144              		.cfi_offset 14, -4
 145 0002 89B0     		sub	sp, sp, #36
 146              		.cfi_def_cfa_offset 48
 147 0004 00AF     		add	r7, sp, #0
 148              		.cfi_def_cfa_register 7
 149 0006 7860     		str	r0, [r7, #4]
 995:Generated_Source\PSoC4/BLE_eventHandler.c **** #ifdef CYBLE_CUSTOM_CLIENT
 996:Generated_Source\PSoC4/BLE_eventHandler.c ****     /* Read response with 128-bit included service uuid */
 997:Generated_Source\PSoC4/BLE_eventHandler.c ****     if((CyBle_GetClientState() == CYBLE_CLIENT_STATE_INCL_DISCOVERING) &&
 150              		.loc 1 997 0
 151 0008 394B     		ldr	r3, .L9
 152 000a 1B78     		ldrb	r3, [r3]
 153 000c 022B     		cmp	r3, #2
 154 000e 6BD1     		bne	.L4
 998:Generated_Source\PSoC4/BLE_eventHandler.c ****        (cyBle_discInclInfo.inclDefHandle != 0u))
 155              		.loc 1 998 0 discriminator 1
 156 0010 384B     		ldr	r3, .L9+4
 157 0012 1B88     		ldrh	r3, [r3]
 997:Generated_Source\PSoC4/BLE_eventHandler.c ****        (cyBle_discInclInfo.inclDefHandle != 0u))
 158              		.loc 1 997 0 discriminator 1
 159 0014 002B     		cmp	r3, #0
 160 0016 67D0     		beq	.L4
 161              	.LBB2:
 999:Generated_Source\PSoC4/BLE_eventHandler.c ****     {
1000:Generated_Source\PSoC4/BLE_eventHandler.c ****         CYBLE_DISC_SRVC128_INFO_T discServInfo;
1001:Generated_Source\PSoC4/BLE_eventHandler.c **** 
1002:Generated_Source\PSoC4/BLE_eventHandler.c ****         /* Store service range */
1003:Generated_Source\PSoC4/BLE_eventHandler.c ****         discServInfo.range = cyBle_discInclInfo.inclHandleRange;
 162              		.loc 1 1003 0
 163 0018 0C23     		mov	r3, #12
 164 001a F918     		add	r1, r7, r3
 165 001c 354B     		ldr	r3, .L9+4
 166 001e 0222     		mov	r2, #2
 167 0020 9B18     		add	r3, r3, r2
 168 0022 0422     		mov	r2, #4
 169 0024 081C     		mov	r0, r1
 170 0026 191C     		mov	r1, r3
 171 0028 FFF7FEFF 		bl	memcpy
1004:Generated_Source\PSoC4/BLE_eventHandler.c ****         (void)memcpy((void *) discServInfo.uuid.uuid128.value, (void *)eventParam->value.val, event
 172              		.loc 1 1004 0
 173 002c 7B68     		ldr	r3, [r7, #4]
 174 002e 5A68     		ldr	r2, [r3, #4]
 175 0030 7B68     		ldr	r3, [r7, #4]
 176 0032 1B89     		ldrh	r3, [r3, #8]
 177 0034 1C1C     		mov	r4, r3
 178 0036 0C23     		mov	r3, #12
 179 0038 FB18     		add	r3, r7, r3
 180 003a 0433     		add	r3, r3, #4
 181 003c 181C     		mov	r0, r3
 182 003e 111C     		mov	r1, r2
 183 0040 221C     		mov	r2, r4
 184 0042 FFF7FEFF 		bl	memcpy
1005:Generated_Source\PSoC4/BLE_eventHandler.c ****         CyBle_CustomcDiscoverServiceEventHandler(&discServInfo);
 185              		.loc 1 1005 0
 186 0046 0C23     		mov	r3, #12
 187 0048 FB18     		add	r3, r7, r3
ARM GAS  C:\Users\ANDREW~1\AppData\Local\Temp\ccKT4bII.s 			page 22


 188 004a 181C     		mov	r0, r3
 189 004c FFF7FEFF 		bl	CyBle_CustomcDiscoverServiceEventHandler
1006:Generated_Source\PSoC4/BLE_eventHandler.c ****         
1007:Generated_Source\PSoC4/BLE_eventHandler.c ****         /* Re-initiate CyBle_GattcFindIncludedServices function, setting the start
1008:Generated_Source\PSoC4/BLE_eventHandler.c ****            handle to the attribute handle which is placed next to the one used in
1009:Generated_Source\PSoC4/BLE_eventHandler.c ****            the above step.
1010:Generated_Source\PSoC4/BLE_eventHandler.c ****         */
1011:Generated_Source\PSoC4/BLE_eventHandler.c ****         discServInfo.range.startHandle = cyBle_discInclInfo.inclDefHandle + 1u;
 190              		.loc 1 1011 0
 191 0050 284B     		ldr	r3, .L9+4
 192 0052 1B88     		ldrh	r3, [r3]
 193 0054 0133     		add	r3, r3, #1
 194 0056 9AB2     		uxth	r2, r3
 195 0058 0C23     		mov	r3, #12
 196 005a FB18     		add	r3, r7, r3
 197 005c 1A80     		strh	r2, [r3]
1012:Generated_Source\PSoC4/BLE_eventHandler.c ****         discServInfo.range.endHandle = cyBle_serverInfo[cyBle_disCount].range.endHandle;
 198              		.loc 1 1012 0
 199 005e 264B     		ldr	r3, .L9+8
 200 0060 1B78     		ldrb	r3, [r3]
 201 0062 191C     		mov	r1, r3
 202 0064 254A     		ldr	r2, .L9+12
 203 0066 0B1C     		mov	r3, r1
 204 0068 5B00     		lsl	r3, r3, #1
 205 006a 5B18     		add	r3, r3, r1
 206 006c 5B00     		lsl	r3, r3, #1
 207 006e D318     		add	r3, r2, r3
 208 0070 5A88     		ldrh	r2, [r3, #2]
 209 0072 0C23     		mov	r3, #12
 210 0074 FB18     		add	r3, r7, r3
 211 0076 5A80     		strh	r2, [r3, #2]
1013:Generated_Source\PSoC4/BLE_eventHandler.c ****         if(discServInfo.range.startHandle <= discServInfo.range.endHandle)
 212              		.loc 1 1013 0
 213 0078 0C23     		mov	r3, #12
 214 007a FB18     		add	r3, r7, r3
 215 007c 1A88     		ldrh	r2, [r3]
 216 007e 0C23     		mov	r3, #12
 217 0080 FB18     		add	r3, r7, r3
 218 0082 5B88     		ldrh	r3, [r3, #2]
 219 0084 9A42     		cmp	r2, r3
 220 0086 21D8     		bhi	.L6
1014:Generated_Source\PSoC4/BLE_eventHandler.c ****         {
1015:Generated_Source\PSoC4/BLE_eventHandler.c ****             if(CYBLE_ERROR_OK != CyBle_GattcFindIncludedServices(cyBle_connHandle, &discServInfo.ra
 221              		.loc 1 1015 0
 222 0088 1D4B     		ldr	r3, .L9+16
 223 008a 0C22     		mov	r2, #12
 224 008c B918     		add	r1, r7, r2
 225 008e 1A78     		ldrb	r2, [r3]
 226 0090 5B78     		ldrb	r3, [r3, #1]
 227 0092 1B02     		lsl	r3, r3, #8
 228 0094 1A43     		orr	r2, r3
 229 0096 0023     		mov	r3, #0
 230 0098 1204     		lsl	r2, r2, #16
 231 009a 120C     		lsr	r2, r2, #16
 232 009c 1B0C     		lsr	r3, r3, #16
 233 009e 1B04     		lsl	r3, r3, #16
 234 00a0 1343     		orr	r3, r2
ARM GAS  C:\Users\ANDREW~1\AppData\Local\Temp\ccKT4bII.s 			page 23


 235 00a2 181C     		mov	r0, r3
 236 00a4 FFF7FEFF 		bl	CyBle_GattcFindIncludedServices
 237 00a8 031E     		sub	r3, r0, #0
 238 00aa 12D0     		beq	.L8
1016:Generated_Source\PSoC4/BLE_eventHandler.c ****             {
1017:Generated_Source\PSoC4/BLE_eventHandler.c ****                 CyBle_ApplCallback(CYBLE_EVT_GATTC_INCL_DISCOVERY_FAILED, NULL);
 239              		.loc 1 1017 0
 240 00ac 154B     		ldr	r3, .L9+20
 241 00ae 1B68     		ldr	r3, [r3]
 242 00b0 8422     		mov	r2, #132
 243 00b2 5200     		lsl	r2, r2, #1
 244 00b4 101C     		mov	r0, r2
 245 00b6 0021     		mov	r1, #0
 246 00b8 9847     		blx	r3
1018:Generated_Source\PSoC4/BLE_eventHandler.c ****                 cyBle_eventHandlerFlag &= (uint8)~CYBLE_AUTO_DISCOVERY;
 247              		.loc 1 1018 0
 248 00ba 134B     		ldr	r3, .L9+24
 249 00bc 1B78     		ldrb	r3, [r3]
 250 00be DBB2     		uxtb	r3, r3
 251 00c0 0222     		mov	r2, #2
 252 00c2 9343     		bic	r3, r2
 253 00c4 DAB2     		uxtb	r2, r3
 254 00c6 104B     		ldr	r3, .L9+24
 255 00c8 1A70     		strb	r2, [r3]
 256 00ca 02E0     		b	.L8
 257              	.L6:
1019:Generated_Source\PSoC4/BLE_eventHandler.c ****             }
1020:Generated_Source\PSoC4/BLE_eventHandler.c ****         }
1021:Generated_Source\PSoC4/BLE_eventHandler.c ****         else /* Continue discovery of the following service */
1022:Generated_Source\PSoC4/BLE_eventHandler.c ****         {
1023:Generated_Source\PSoC4/BLE_eventHandler.c ****             CyBle_NextInclDiscovery(CYBLE_DISCOVERY_CONTINUE);
 258              		.loc 1 1023 0
 259 00cc 0120     		mov	r0, #1
 260 00ce FFF7FEFF 		bl	CyBle_NextInclDiscovery
 261              	.L8:
1024:Generated_Source\PSoC4/BLE_eventHandler.c ****         }
1025:Generated_Source\PSoC4/BLE_eventHandler.c ****         
1026:Generated_Source\PSoC4/BLE_eventHandler.c ****         cyBle_eventHandlerFlag &= (uint8)~CYBLE_CALLBACK;
 262              		.loc 1 1026 0 discriminator 1
 263 00d2 0D4B     		ldr	r3, .L9+24
 264 00d4 1B78     		ldrb	r3, [r3]
 265 00d6 DBB2     		uxtb	r3, r3
 266 00d8 0122     		mov	r2, #1
 267 00da 9343     		bic	r3, r2
 268 00dc DAB2     		uxtb	r2, r3
 269 00de 0A4B     		ldr	r3, .L9+24
 270 00e0 1A70     		strb	r2, [r3]
1027:Generated_Source\PSoC4/BLE_eventHandler.c ****     #ifdef CYBLE_CUSTOM_CLIENT
1028:Generated_Source\PSoC4/BLE_eventHandler.c ****         cyBle_discInclInfo.inclDefHandle = 0u;
 271              		.loc 1 1028 0 discriminator 1
 272 00e2 044B     		ldr	r3, .L9+4
 273 00e4 0022     		mov	r2, #0
 274 00e6 1A80     		strh	r2, [r3]
 275              	.L4:
 276              	.LBE2:
1029:Generated_Source\PSoC4/BLE_eventHandler.c ****     #endif /* CYBLE_CUSTOM_CLIENT */
1030:Generated_Source\PSoC4/BLE_eventHandler.c ****     }
ARM GAS  C:\Users\ANDREW~1\AppData\Local\Temp\ccKT4bII.s 			page 24


1031:Generated_Source\PSoC4/BLE_eventHandler.c **** #endif /* CYBLE_CUSTOM_CLIENT */
1032:Generated_Source\PSoC4/BLE_eventHandler.c **** #ifdef CYBLE_ANCS_CLIENT
1033:Generated_Source\PSoC4/BLE_eventHandler.c ****     if((cyBle_eventHandlerFlag & CYBLE_CALLBACK) != 0u)
1034:Generated_Source\PSoC4/BLE_eventHandler.c ****     {
1035:Generated_Source\PSoC4/BLE_eventHandler.c ****         CyBle_AncscReadResponseEventHandler(eventParam);
1036:Generated_Source\PSoC4/BLE_eventHandler.c ****     }
1037:Generated_Source\PSoC4/BLE_eventHandler.c **** #endif /* CYBLE_ANCS_CLIENT */
1038:Generated_Source\PSoC4/BLE_eventHandler.c **** #ifdef CYBLE_ANS_CLIENT
1039:Generated_Source\PSoC4/BLE_eventHandler.c ****     if((cyBle_eventHandlerFlag & CYBLE_CALLBACK) != 0u)
1040:Generated_Source\PSoC4/BLE_eventHandler.c ****     {
1041:Generated_Source\PSoC4/BLE_eventHandler.c ****         CyBle_AnscReadResponseEventHandler(eventParam);
1042:Generated_Source\PSoC4/BLE_eventHandler.c ****     }
1043:Generated_Source\PSoC4/BLE_eventHandler.c **** #endif /* CYBLE_ANS_CLIENT */
1044:Generated_Source\PSoC4/BLE_eventHandler.c **** #ifdef CYBLE_BAS_CLIENT
1045:Generated_Source\PSoC4/BLE_eventHandler.c ****     if((cyBle_eventHandlerFlag & CYBLE_CALLBACK) != 0u)
1046:Generated_Source\PSoC4/BLE_eventHandler.c ****     {
1047:Generated_Source\PSoC4/BLE_eventHandler.c ****         CyBle_BascReadResponseEventHandler(eventParam);
1048:Generated_Source\PSoC4/BLE_eventHandler.c ****     }
1049:Generated_Source\PSoC4/BLE_eventHandler.c **** #endif /* CYBLE_BAS_CLIENT */
1050:Generated_Source\PSoC4/BLE_eventHandler.c **** #ifdef CYBLE_BLS_CLIENT
1051:Generated_Source\PSoC4/BLE_eventHandler.c ****     if((cyBle_eventHandlerFlag & CYBLE_CALLBACK) != 0u)
1052:Generated_Source\PSoC4/BLE_eventHandler.c ****     {
1053:Generated_Source\PSoC4/BLE_eventHandler.c ****         CyBle_BlscReadResponseEventHandler(eventParam);
1054:Generated_Source\PSoC4/BLE_eventHandler.c ****     }
1055:Generated_Source\PSoC4/BLE_eventHandler.c **** #endif /* CYBLE_BLS_CLIENT */
1056:Generated_Source\PSoC4/BLE_eventHandler.c **** #ifdef CYBLE_BCS_CLIENT
1057:Generated_Source\PSoC4/BLE_eventHandler.c ****     if((cyBle_eventHandlerFlag & CYBLE_CALLBACK) != 0u)
1058:Generated_Source\PSoC4/BLE_eventHandler.c ****     {
1059:Generated_Source\PSoC4/BLE_eventHandler.c ****         CyBle_BcscReadResponseEventHandler(eventParam);
1060:Generated_Source\PSoC4/BLE_eventHandler.c ****     }
1061:Generated_Source\PSoC4/BLE_eventHandler.c **** #endif /* CYBLE_BCS_CLIENT */
1062:Generated_Source\PSoC4/BLE_eventHandler.c **** #ifdef CYBLE_BMS_CLIENT
1063:Generated_Source\PSoC4/BLE_eventHandler.c ****     if((cyBle_eventHandlerFlag & CYBLE_CALLBACK) != 0u)
1064:Generated_Source\PSoC4/BLE_eventHandler.c ****     {
1065:Generated_Source\PSoC4/BLE_eventHandler.c ****         CyBle_BmscReadResponseEventHandler(eventParam);
1066:Generated_Source\PSoC4/BLE_eventHandler.c ****     }
1067:Generated_Source\PSoC4/BLE_eventHandler.c **** #endif /* CYBLE_BMS_CLIENT */
1068:Generated_Source\PSoC4/BLE_eventHandler.c **** #ifdef CYBLE_CGMS_CLIENT
1069:Generated_Source\PSoC4/BLE_eventHandler.c ****     if((cyBle_eventHandlerFlag & CYBLE_CALLBACK) != 0u)
1070:Generated_Source\PSoC4/BLE_eventHandler.c ****     {
1071:Generated_Source\PSoC4/BLE_eventHandler.c ****         CyBle_CgmscReadResponseEventHandler(eventParam);
1072:Generated_Source\PSoC4/BLE_eventHandler.c ****     }
1073:Generated_Source\PSoC4/BLE_eventHandler.c **** #endif /* CYBLE_CGMS_CLIENT */
1074:Generated_Source\PSoC4/BLE_eventHandler.c **** #ifdef CYBLE_CPS_CLIENT
1075:Generated_Source\PSoC4/BLE_eventHandler.c ****     if((cyBle_eventHandlerFlag & CYBLE_CALLBACK) != 0u)
1076:Generated_Source\PSoC4/BLE_eventHandler.c ****     {
1077:Generated_Source\PSoC4/BLE_eventHandler.c ****         CyBle_CpscReadResponseEventHandler(eventParam);
1078:Generated_Source\PSoC4/BLE_eventHandler.c ****     }
1079:Generated_Source\PSoC4/BLE_eventHandler.c **** #endif /* CYBLE_CPS_CLIENT */
1080:Generated_Source\PSoC4/BLE_eventHandler.c **** #ifdef CYBLE_CSCS_CLIENT
1081:Generated_Source\PSoC4/BLE_eventHandler.c ****     if((cyBle_eventHandlerFlag & CYBLE_CALLBACK) != 0u)
1082:Generated_Source\PSoC4/BLE_eventHandler.c ****     {
1083:Generated_Source\PSoC4/BLE_eventHandler.c ****         CyBle_CscscReadResponseEventHandler(eventParam);
1084:Generated_Source\PSoC4/BLE_eventHandler.c ****     }
1085:Generated_Source\PSoC4/BLE_eventHandler.c **** #endif /* CYBLE_CSCS_CLIENT */
1086:Generated_Source\PSoC4/BLE_eventHandler.c **** #ifdef CYBLE_CTS_CLIENT
1087:Generated_Source\PSoC4/BLE_eventHandler.c ****     if((cyBle_eventHandlerFlag & CYBLE_CALLBACK) != 0u)
ARM GAS  C:\Users\ANDREW~1\AppData\Local\Temp\ccKT4bII.s 			page 25


1088:Generated_Source\PSoC4/BLE_eventHandler.c ****     {
1089:Generated_Source\PSoC4/BLE_eventHandler.c ****         CyBle_CtscReadResponseEventHandler(eventParam);
1090:Generated_Source\PSoC4/BLE_eventHandler.c ****     }
1091:Generated_Source\PSoC4/BLE_eventHandler.c **** #endif /* CYBLE_BAS_CLIENT */
1092:Generated_Source\PSoC4/BLE_eventHandler.c **** #ifdef CYBLE_DIS_CLIENT
1093:Generated_Source\PSoC4/BLE_eventHandler.c ****     if((cyBle_eventHandlerFlag & CYBLE_CALLBACK) != 0u)
1094:Generated_Source\PSoC4/BLE_eventHandler.c ****     {
1095:Generated_Source\PSoC4/BLE_eventHandler.c ****         CyBle_DiscReadResponseEventHandler(eventParam);
1096:Generated_Source\PSoC4/BLE_eventHandler.c ****     }
1097:Generated_Source\PSoC4/BLE_eventHandler.c **** #endif /* CYBLE_DIS_CLIENT */
1098:Generated_Source\PSoC4/BLE_eventHandler.c **** #ifdef CYBLE_ESS_CLIENT
1099:Generated_Source\PSoC4/BLE_eventHandler.c ****     if((cyBle_eventHandlerFlag & CYBLE_CALLBACK) != 0u)
1100:Generated_Source\PSoC4/BLE_eventHandler.c ****     {
1101:Generated_Source\PSoC4/BLE_eventHandler.c ****         CyBle_EsscReadResponseEventHandler(eventParam);
1102:Generated_Source\PSoC4/BLE_eventHandler.c ****     }
1103:Generated_Source\PSoC4/BLE_eventHandler.c **** #endif /* CYBLE_ESS_CLIENT */
1104:Generated_Source\PSoC4/BLE_eventHandler.c **** #ifdef CYBLE_GLS_CLIENT
1105:Generated_Source\PSoC4/BLE_eventHandler.c ****     if((cyBle_eventHandlerFlag & CYBLE_CALLBACK) != 0u)
1106:Generated_Source\PSoC4/BLE_eventHandler.c ****     {
1107:Generated_Source\PSoC4/BLE_eventHandler.c ****         CyBle_GlscReadResponseEventHandler(eventParam);
1108:Generated_Source\PSoC4/BLE_eventHandler.c ****     }
1109:Generated_Source\PSoC4/BLE_eventHandler.c **** #endif /* CYBLE_GLS_CLIENT */
1110:Generated_Source\PSoC4/BLE_eventHandler.c **** #ifdef CYBLE_HIDS_CLIENT
1111:Generated_Source\PSoC4/BLE_eventHandler.c ****     if((cyBle_eventHandlerFlag & CYBLE_CALLBACK) != 0u)
1112:Generated_Source\PSoC4/BLE_eventHandler.c ****     {
1113:Generated_Source\PSoC4/BLE_eventHandler.c ****         CyBle_HidscReadResponseEventHandler(eventParam);
1114:Generated_Source\PSoC4/BLE_eventHandler.c ****     }
1115:Generated_Source\PSoC4/BLE_eventHandler.c **** #endif /* CYBLE_HIDS_CLIENT */
1116:Generated_Source\PSoC4/BLE_eventHandler.c **** #ifdef CYBLE_HPS_CLIENT
1117:Generated_Source\PSoC4/BLE_eventHandler.c ****     if((cyBle_eventHandlerFlag & CYBLE_CALLBACK) != 0u)
1118:Generated_Source\PSoC4/BLE_eventHandler.c ****     {
1119:Generated_Source\PSoC4/BLE_eventHandler.c ****         CyBle_HpscReadResponseEventHandler(eventParam);
1120:Generated_Source\PSoC4/BLE_eventHandler.c ****     }
1121:Generated_Source\PSoC4/BLE_eventHandler.c **** #endif /* CYBLE_HPS_CLIENT */
1122:Generated_Source\PSoC4/BLE_eventHandler.c **** #ifdef CYBLE_HRS_CLIENT
1123:Generated_Source\PSoC4/BLE_eventHandler.c ****     if((cyBle_eventHandlerFlag & CYBLE_CALLBACK) != 0u)
1124:Generated_Source\PSoC4/BLE_eventHandler.c ****     {
1125:Generated_Source\PSoC4/BLE_eventHandler.c ****         CyBle_HrscReadResponseEventHandler(eventParam);
1126:Generated_Source\PSoC4/BLE_eventHandler.c ****     }
1127:Generated_Source\PSoC4/BLE_eventHandler.c **** #endif /* CYBLE_HRS_CLIENT */
1128:Generated_Source\PSoC4/BLE_eventHandler.c **** #ifdef CYBLE_HTS_CLIENT
1129:Generated_Source\PSoC4/BLE_eventHandler.c ****     if((cyBle_eventHandlerFlag & CYBLE_CALLBACK) != 0u)
1130:Generated_Source\PSoC4/BLE_eventHandler.c ****     {
1131:Generated_Source\PSoC4/BLE_eventHandler.c ****         CyBle_HtscReadResponseEventHandler(eventParam);
1132:Generated_Source\PSoC4/BLE_eventHandler.c ****     }
1133:Generated_Source\PSoC4/BLE_eventHandler.c **** #endif /* CYBLE_HTS_CLIENT */
1134:Generated_Source\PSoC4/BLE_eventHandler.c **** #ifdef CYBLE_IPS_CLIENT
1135:Generated_Source\PSoC4/BLE_eventHandler.c ****     if((cyBle_eventHandlerFlag & CYBLE_CALLBACK) != 0u)
1136:Generated_Source\PSoC4/BLE_eventHandler.c ****     {
1137:Generated_Source\PSoC4/BLE_eventHandler.c ****         CyBle_IpscReadResponseEventHandler(eventParam);
1138:Generated_Source\PSoC4/BLE_eventHandler.c ****     }
1139:Generated_Source\PSoC4/BLE_eventHandler.c **** #endif /* CYBLE_IPS_CLIENT */
1140:Generated_Source\PSoC4/BLE_eventHandler.c **** #ifdef CYBLE_LLS_CLIENT
1141:Generated_Source\PSoC4/BLE_eventHandler.c ****     if((cyBle_eventHandlerFlag & CYBLE_CALLBACK) != 0u)
1142:Generated_Source\PSoC4/BLE_eventHandler.c ****     {
1143:Generated_Source\PSoC4/BLE_eventHandler.c ****         CyBle_LlscReadResponseEventHandler(eventParam);
1144:Generated_Source\PSoC4/BLE_eventHandler.c ****     }
ARM GAS  C:\Users\ANDREW~1\AppData\Local\Temp\ccKT4bII.s 			page 26


1145:Generated_Source\PSoC4/BLE_eventHandler.c **** #endif /* CYBLE_LLS_CLIENT */
1146:Generated_Source\PSoC4/BLE_eventHandler.c **** #ifdef CYBLE_LNS_CLIENT
1147:Generated_Source\PSoC4/BLE_eventHandler.c ****     if((cyBle_eventHandlerFlag & CYBLE_CALLBACK) != 0u)
1148:Generated_Source\PSoC4/BLE_eventHandler.c ****     {
1149:Generated_Source\PSoC4/BLE_eventHandler.c ****         CyBle_LnscReadResponseEventHandler(eventParam);
1150:Generated_Source\PSoC4/BLE_eventHandler.c ****     }
1151:Generated_Source\PSoC4/BLE_eventHandler.c **** #endif /* CYBLE_LNS_CLIENT */
1152:Generated_Source\PSoC4/BLE_eventHandler.c **** #ifdef CYBLE_NDCS_CLIENT
1153:Generated_Source\PSoC4/BLE_eventHandler.c ****     if((cyBle_eventHandlerFlag & CYBLE_CALLBACK) != 0u)
1154:Generated_Source\PSoC4/BLE_eventHandler.c ****     {
1155:Generated_Source\PSoC4/BLE_eventHandler.c ****         CyBle_NdcscReadResponseEventHandler(eventParam);
1156:Generated_Source\PSoC4/BLE_eventHandler.c ****     }
1157:Generated_Source\PSoC4/BLE_eventHandler.c **** #endif /* CYBLE_NDCS_CLIENT */
1158:Generated_Source\PSoC4/BLE_eventHandler.c **** #ifdef CYBLE_PASS_CLIENT
1159:Generated_Source\PSoC4/BLE_eventHandler.c ****     if((cyBle_eventHandlerFlag & CYBLE_CALLBACK) != 0u)
1160:Generated_Source\PSoC4/BLE_eventHandler.c ****     {
1161:Generated_Source\PSoC4/BLE_eventHandler.c ****         CyBle_PasscReadResponseEventHandler(eventParam);
1162:Generated_Source\PSoC4/BLE_eventHandler.c ****     }
1163:Generated_Source\PSoC4/BLE_eventHandler.c **** #endif /* CYBLE_PASS_CLIENT */
1164:Generated_Source\PSoC4/BLE_eventHandler.c **** #ifdef CYBLE_PLXS_CLIENT
1165:Generated_Source\PSoC4/BLE_eventHandler.c ****     if((cyBle_eventHandlerFlag & CYBLE_CALLBACK) != 0u)
1166:Generated_Source\PSoC4/BLE_eventHandler.c ****     {
1167:Generated_Source\PSoC4/BLE_eventHandler.c ****         CyBle_PlxscReadResponseEventHandler(eventParam);
1168:Generated_Source\PSoC4/BLE_eventHandler.c ****     }
1169:Generated_Source\PSoC4/BLE_eventHandler.c **** #endif /* CYBLE_PLXS_CLIENT */
1170:Generated_Source\PSoC4/BLE_eventHandler.c **** #ifdef CYBLE_RSCS_CLIENT
1171:Generated_Source\PSoC4/BLE_eventHandler.c ****     if((cyBle_eventHandlerFlag & CYBLE_CALLBACK) != 0u)
1172:Generated_Source\PSoC4/BLE_eventHandler.c ****     {
1173:Generated_Source\PSoC4/BLE_eventHandler.c ****         CyBle_RscscReadResponseEventHandler(eventParam);
1174:Generated_Source\PSoC4/BLE_eventHandler.c ****     }
1175:Generated_Source\PSoC4/BLE_eventHandler.c **** #endif /* CYBLE_RSCS_CLIENT */
1176:Generated_Source\PSoC4/BLE_eventHandler.c **** #ifdef CYBLE_RTUS_CLIENT
1177:Generated_Source\PSoC4/BLE_eventHandler.c ****     if((cyBle_eventHandlerFlag & CYBLE_CALLBACK) != 0u)
1178:Generated_Source\PSoC4/BLE_eventHandler.c ****     {
1179:Generated_Source\PSoC4/BLE_eventHandler.c ****         CyBle_RtuscReadResponseEventHandler(eventParam);
1180:Generated_Source\PSoC4/BLE_eventHandler.c ****     }
1181:Generated_Source\PSoC4/BLE_eventHandler.c **** #endif /* CYBLE_RTUS_CLIENT */
1182:Generated_Source\PSoC4/BLE_eventHandler.c **** #ifdef CYBLE_SCPS_CLIENT
1183:Generated_Source\PSoC4/BLE_eventHandler.c ****     if((cyBle_eventHandlerFlag & CYBLE_CALLBACK) != 0u)
1184:Generated_Source\PSoC4/BLE_eventHandler.c ****     {
1185:Generated_Source\PSoC4/BLE_eventHandler.c ****         CyBle_ScpscReadResponseEventHandler(eventParam);
1186:Generated_Source\PSoC4/BLE_eventHandler.c ****     }
1187:Generated_Source\PSoC4/BLE_eventHandler.c **** #endif /* CYBLE_SCPS_CLIENT */
1188:Generated_Source\PSoC4/BLE_eventHandler.c **** #ifdef CYBLE_TPS_CLIENT
1189:Generated_Source\PSoC4/BLE_eventHandler.c ****     if((cyBle_eventHandlerFlag & CYBLE_CALLBACK) != 0u)
1190:Generated_Source\PSoC4/BLE_eventHandler.c ****     {
1191:Generated_Source\PSoC4/BLE_eventHandler.c ****         CyBle_TpscReadResponseEventHandler(eventParam);
1192:Generated_Source\PSoC4/BLE_eventHandler.c ****     }
1193:Generated_Source\PSoC4/BLE_eventHandler.c **** #endif /* CYBLE_TPS_CLIENT */
1194:Generated_Source\PSoC4/BLE_eventHandler.c **** #ifdef CYBLE_UDS_CLIENT
1195:Generated_Source\PSoC4/BLE_eventHandler.c ****     if((cyBle_eventHandlerFlag & CYBLE_CALLBACK) != 0u)
1196:Generated_Source\PSoC4/BLE_eventHandler.c ****     {
1197:Generated_Source\PSoC4/BLE_eventHandler.c ****         CyBle_UdscReadResponseEventHandler(eventParam);
1198:Generated_Source\PSoC4/BLE_eventHandler.c ****     }
1199:Generated_Source\PSoC4/BLE_eventHandler.c **** #endif /* CYBLE_UDS_CLIENT */
1200:Generated_Source\PSoC4/BLE_eventHandler.c **** #ifdef CYBLE_WPTS_CLIENT
1201:Generated_Source\PSoC4/BLE_eventHandler.c ****     if((cyBle_eventHandlerFlag & CYBLE_CALLBACK) != 0u)
ARM GAS  C:\Users\ANDREW~1\AppData\Local\Temp\ccKT4bII.s 			page 27


1202:Generated_Source\PSoC4/BLE_eventHandler.c ****     {
1203:Generated_Source\PSoC4/BLE_eventHandler.c ****         CyBle_WptscReadResponseEventHandler(eventParam);
1204:Generated_Source\PSoC4/BLE_eventHandler.c ****     }
1205:Generated_Source\PSoC4/BLE_eventHandler.c **** #endif /* CYBLE_WPTS_CLIENT */
1206:Generated_Source\PSoC4/BLE_eventHandler.c **** #ifdef CYBLE_WSS_CLIENT
1207:Generated_Source\PSoC4/BLE_eventHandler.c ****     if((cyBle_eventHandlerFlag & CYBLE_CALLBACK) != 0u)
1208:Generated_Source\PSoC4/BLE_eventHandler.c ****     {
1209:Generated_Source\PSoC4/BLE_eventHandler.c ****         CyBle_WsscReadResponseEventHandler(eventParam);
1210:Generated_Source\PSoC4/BLE_eventHandler.c ****     }
1211:Generated_Source\PSoC4/BLE_eventHandler.c **** #endif /* CYBLE_WSS_CLIENT */
1212:Generated_Source\PSoC4/BLE_eventHandler.c **** }
 277              		.loc 1 1212 0
 278 00e8 BD46     		mov	sp, r7
 279 00ea 09B0     		add	sp, sp, #36
 280              		@ sp needed
 281 00ec 90BD     		pop	{r4, r7, pc}
 282              	.L10:
 283 00ee C046     		.align	2
 284              	.L9:
 285 00f0 00000000 		.word	cyBle_clientState
 286 00f4 00000000 		.word	cyBle_discInclInfo
 287 00f8 00000000 		.word	cyBle_disCount
 288 00fc 00000000 		.word	cyBle_serverInfo
 289 0100 00000000 		.word	cyBle_connHandle
 290 0104 00000000 		.word	CyBle_ApplCallback
 291 0108 00000000 		.word	cyBle_eventHandlerFlag
 292              		.cfi_endproc
 293              	.LFE5:
 294              		.size	CyBle_ReadResponseEventHandler, .-CyBle_ReadResponseEventHandler
 295              		.section	.text.CyBle_ReadMultipleResponseEventHandler,"ax",%progbits
 296              		.align	2
 297              		.code	16
 298              		.thumb_func
 299              		.type	CyBle_ReadMultipleResponseEventHandler, %function
 300              	CyBle_ReadMultipleResponseEventHandler:
 301              	.LFB6:
1213:Generated_Source\PSoC4/BLE_eventHandler.c **** 
1214:Generated_Source\PSoC4/BLE_eventHandler.c **** /******************************************************************************    
1215:Generated_Source\PSoC4/BLE_eventHandler.c **** * Function Name: CyBle_ReadMultipleResponseEventHandler
1216:Generated_Source\PSoC4/BLE_eventHandler.c **** ***************************************************************************//**
1217:Generated_Source\PSoC4/BLE_eventHandler.c **** * 
1218:Generated_Source\PSoC4/BLE_eventHandler.c **** *  Handles the Read Multiple Response event from BLE stack.
1219:Generated_Source\PSoC4/BLE_eventHandler.c **** * 
1220:Generated_Source\PSoC4/BLE_eventHandler.c **** *  \param eventParam: event parameter
1221:Generated_Source\PSoC4/BLE_eventHandler.c **** * 
1222:Generated_Source\PSoC4/BLE_eventHandler.c **** * \return
1223:Generated_Source\PSoC4/BLE_eventHandler.c **** *  None
1224:Generated_Source\PSoC4/BLE_eventHandler.c **** * 
1225:Generated_Source\PSoC4/BLE_eventHandler.c **** ******************************************************************************/
1226:Generated_Source\PSoC4/BLE_eventHandler.c **** static void CyBle_ReadMultipleResponseEventHandler(CYBLE_GATTC_READ_RSP_PARAM_T *eventParam)
1227:Generated_Source\PSoC4/BLE_eventHandler.c **** {
 302              		.loc 1 1227 0
 303              		.cfi_startproc
 304 0000 90B5     		push	{r4, r7, lr}
 305              		.cfi_def_cfa_offset 12
 306              		.cfi_offset 4, -12
 307              		.cfi_offset 7, -8
ARM GAS  C:\Users\ANDREW~1\AppData\Local\Temp\ccKT4bII.s 			page 28


 308              		.cfi_offset 14, -4
 309 0002 89B0     		sub	sp, sp, #36
 310              		.cfi_def_cfa_offset 48
 311 0004 00AF     		add	r7, sp, #0
 312              		.cfi_def_cfa_register 7
 313 0006 7860     		str	r0, [r7, #4]
1228:Generated_Source\PSoC4/BLE_eventHandler.c **** #ifdef CYBLE_CUSTOM_CLIENT
1229:Generated_Source\PSoC4/BLE_eventHandler.c ****     /* Read response with 128-bit included service uuid */
1230:Generated_Source\PSoC4/BLE_eventHandler.c ****     if((CYBLE_CLIENT_STATE_INCL_DISCOVERING == CyBle_GetClientState()) &&
 314              		.loc 1 1230 0
 315 0008 394B     		ldr	r3, .L16
 316 000a 1B78     		ldrb	r3, [r3]
 317 000c 022B     		cmp	r3, #2
 318 000e 6BD1     		bne	.L11
1231:Generated_Source\PSoC4/BLE_eventHandler.c ****        (cyBle_discInclInfo.inclDefHandle != 0u))
 319              		.loc 1 1231 0 discriminator 1
 320 0010 384B     		ldr	r3, .L16+4
 321 0012 1B88     		ldrh	r3, [r3]
1230:Generated_Source\PSoC4/BLE_eventHandler.c ****        (cyBle_discInclInfo.inclDefHandle != 0u))
 322              		.loc 1 1230 0 discriminator 1
 323 0014 002B     		cmp	r3, #0
 324 0016 67D0     		beq	.L11
 325              	.LBB3:
1232:Generated_Source\PSoC4/BLE_eventHandler.c ****     {
1233:Generated_Source\PSoC4/BLE_eventHandler.c ****         CYBLE_DISC_SRVC128_INFO_T discServInfo;
1234:Generated_Source\PSoC4/BLE_eventHandler.c **** 
1235:Generated_Source\PSoC4/BLE_eventHandler.c ****         /* Store service range */
1236:Generated_Source\PSoC4/BLE_eventHandler.c ****         discServInfo.range = cyBle_discInclInfo.inclHandleRange;
 326              		.loc 1 1236 0
 327 0018 0C23     		mov	r3, #12
 328 001a F918     		add	r1, r7, r3
 329 001c 354B     		ldr	r3, .L16+4
 330 001e 0222     		mov	r2, #2
 331 0020 9B18     		add	r3, r3, r2
 332 0022 0422     		mov	r2, #4
 333 0024 081C     		mov	r0, r1
 334 0026 191C     		mov	r1, r3
 335 0028 FFF7FEFF 		bl	memcpy
1237:Generated_Source\PSoC4/BLE_eventHandler.c ****         (void)memcpy((void *) discServInfo.uuid.uuid128.value, (void *)eventParam->value.val, event
 336              		.loc 1 1237 0
 337 002c 7B68     		ldr	r3, [r7, #4]
 338 002e 5A68     		ldr	r2, [r3, #4]
 339 0030 7B68     		ldr	r3, [r7, #4]
 340 0032 1B89     		ldrh	r3, [r3, #8]
 341 0034 1C1C     		mov	r4, r3
 342 0036 0C23     		mov	r3, #12
 343 0038 FB18     		add	r3, r7, r3
 344 003a 0433     		add	r3, r3, #4
 345 003c 181C     		mov	r0, r3
 346 003e 111C     		mov	r1, r2
 347 0040 221C     		mov	r2, r4
 348 0042 FFF7FEFF 		bl	memcpy
1238:Generated_Source\PSoC4/BLE_eventHandler.c ****         CyBle_CustomcDiscoverServiceEventHandler(&discServInfo);
 349              		.loc 1 1238 0
 350 0046 0C23     		mov	r3, #12
 351 0048 FB18     		add	r3, r7, r3
 352 004a 181C     		mov	r0, r3
ARM GAS  C:\Users\ANDREW~1\AppData\Local\Temp\ccKT4bII.s 			page 29


 353 004c FFF7FEFF 		bl	CyBle_CustomcDiscoverServiceEventHandler
1239:Generated_Source\PSoC4/BLE_eventHandler.c ****         
1240:Generated_Source\PSoC4/BLE_eventHandler.c ****         /* Re-initiate CyBle_GattcFindIncludedServices function, setting the start
1241:Generated_Source\PSoC4/BLE_eventHandler.c ****            handle to the attribute handle which is placed next to the one used in
1242:Generated_Source\PSoC4/BLE_eventHandler.c ****            the above step.
1243:Generated_Source\PSoC4/BLE_eventHandler.c ****         */
1244:Generated_Source\PSoC4/BLE_eventHandler.c ****         discServInfo.range.startHandle = cyBle_discInclInfo.inclDefHandle + 1;
 354              		.loc 1 1244 0
 355 0050 284B     		ldr	r3, .L16+4
 356 0052 1B88     		ldrh	r3, [r3]
 357 0054 0133     		add	r3, r3, #1
 358 0056 9AB2     		uxth	r2, r3
 359 0058 0C23     		mov	r3, #12
 360 005a FB18     		add	r3, r7, r3
 361 005c 1A80     		strh	r2, [r3]
1245:Generated_Source\PSoC4/BLE_eventHandler.c ****         discServInfo.range.endHandle = cyBle_serverInfo[cyBle_disCount].range.endHandle;
 362              		.loc 1 1245 0
 363 005e 264B     		ldr	r3, .L16+8
 364 0060 1B78     		ldrb	r3, [r3]
 365 0062 191C     		mov	r1, r3
 366 0064 254A     		ldr	r2, .L16+12
 367 0066 0B1C     		mov	r3, r1
 368 0068 5B00     		lsl	r3, r3, #1
 369 006a 5B18     		add	r3, r3, r1
 370 006c 5B00     		lsl	r3, r3, #1
 371 006e D318     		add	r3, r2, r3
 372 0070 5A88     		ldrh	r2, [r3, #2]
 373 0072 0C23     		mov	r3, #12
 374 0074 FB18     		add	r3, r7, r3
 375 0076 5A80     		strh	r2, [r3, #2]
1246:Generated_Source\PSoC4/BLE_eventHandler.c ****         if(discServInfo.range.startHandle <= discServInfo.range.endHandle)
 376              		.loc 1 1246 0
 377 0078 0C23     		mov	r3, #12
 378 007a FB18     		add	r3, r7, r3
 379 007c 1A88     		ldrh	r2, [r3]
 380 007e 0C23     		mov	r3, #12
 381 0080 FB18     		add	r3, r7, r3
 382 0082 5B88     		ldrh	r3, [r3, #2]
 383 0084 9A42     		cmp	r2, r3
 384 0086 21D8     		bhi	.L13
1247:Generated_Source\PSoC4/BLE_eventHandler.c ****         {
1248:Generated_Source\PSoC4/BLE_eventHandler.c ****             if(CYBLE_ERROR_OK != CyBle_GattcFindIncludedServices(cyBle_connHandle, &discServInfo.ra
 385              		.loc 1 1248 0
 386 0088 1D4B     		ldr	r3, .L16+16
 387 008a 0C22     		mov	r2, #12
 388 008c B918     		add	r1, r7, r2
 389 008e 1A78     		ldrb	r2, [r3]
 390 0090 5B78     		ldrb	r3, [r3, #1]
 391 0092 1B02     		lsl	r3, r3, #8
 392 0094 1A43     		orr	r2, r3
 393 0096 0023     		mov	r3, #0
 394 0098 1204     		lsl	r2, r2, #16
 395 009a 120C     		lsr	r2, r2, #16
 396 009c 1B0C     		lsr	r3, r3, #16
 397 009e 1B04     		lsl	r3, r3, #16
 398 00a0 1343     		orr	r3, r2
 399 00a2 181C     		mov	r0, r3
ARM GAS  C:\Users\ANDREW~1\AppData\Local\Temp\ccKT4bII.s 			page 30


 400 00a4 FFF7FEFF 		bl	CyBle_GattcFindIncludedServices
 401 00a8 031E     		sub	r3, r0, #0
 402 00aa 12D0     		beq	.L15
1249:Generated_Source\PSoC4/BLE_eventHandler.c ****             {
1250:Generated_Source\PSoC4/BLE_eventHandler.c ****                 CyBle_ApplCallback(CYBLE_EVT_GATTC_INCL_DISCOVERY_FAILED, NULL);
 403              		.loc 1 1250 0
 404 00ac 154B     		ldr	r3, .L16+20
 405 00ae 1B68     		ldr	r3, [r3]
 406 00b0 8422     		mov	r2, #132
 407 00b2 5200     		lsl	r2, r2, #1
 408 00b4 101C     		mov	r0, r2
 409 00b6 0021     		mov	r1, #0
 410 00b8 9847     		blx	r3
1251:Generated_Source\PSoC4/BLE_eventHandler.c ****                 cyBle_eventHandlerFlag &= (uint8)~CYBLE_AUTO_DISCOVERY;
 411              		.loc 1 1251 0
 412 00ba 134B     		ldr	r3, .L16+24
 413 00bc 1B78     		ldrb	r3, [r3]
 414 00be DBB2     		uxtb	r3, r3
 415 00c0 0222     		mov	r2, #2
 416 00c2 9343     		bic	r3, r2
 417 00c4 DAB2     		uxtb	r2, r3
 418 00c6 104B     		ldr	r3, .L16+24
 419 00c8 1A70     		strb	r2, [r3]
 420 00ca 02E0     		b	.L15
 421              	.L13:
1252:Generated_Source\PSoC4/BLE_eventHandler.c ****             }
1253:Generated_Source\PSoC4/BLE_eventHandler.c ****         }
1254:Generated_Source\PSoC4/BLE_eventHandler.c ****         else /* Continue discovery of the following service */
1255:Generated_Source\PSoC4/BLE_eventHandler.c ****         {
1256:Generated_Source\PSoC4/BLE_eventHandler.c ****             CyBle_NextInclDiscovery(CYBLE_DISCOVERY_CONTINUE);
 422              		.loc 1 1256 0
 423 00cc 0120     		mov	r0, #1
 424 00ce FFF7FEFF 		bl	CyBle_NextInclDiscovery
 425              	.L15:
1257:Generated_Source\PSoC4/BLE_eventHandler.c ****         }
1258:Generated_Source\PSoC4/BLE_eventHandler.c ****         
1259:Generated_Source\PSoC4/BLE_eventHandler.c ****         cyBle_eventHandlerFlag &= (uint8)~CYBLE_CALLBACK;
 426              		.loc 1 1259 0 discriminator 1
 427 00d2 0D4B     		ldr	r3, .L16+24
 428 00d4 1B78     		ldrb	r3, [r3]
 429 00d6 DBB2     		uxtb	r3, r3
 430 00d8 0122     		mov	r2, #1
 431 00da 9343     		bic	r3, r2
 432 00dc DAB2     		uxtb	r2, r3
 433 00de 0A4B     		ldr	r3, .L16+24
 434 00e0 1A70     		strb	r2, [r3]
1260:Generated_Source\PSoC4/BLE_eventHandler.c ****     #ifdef CYBLE_CUSTOM_CLIENT
1261:Generated_Source\PSoC4/BLE_eventHandler.c ****         cyBle_discInclInfo.inclDefHandle = 0u;
 435              		.loc 1 1261 0 discriminator 1
 436 00e2 044B     		ldr	r3, .L16+4
 437 00e4 0022     		mov	r2, #0
 438 00e6 1A80     		strh	r2, [r3]
 439              	.L11:
 440              	.LBE3:
1262:Generated_Source\PSoC4/BLE_eventHandler.c ****     #endif /* CYBLE_CUSTOM_CLIENT */
1263:Generated_Source\PSoC4/BLE_eventHandler.c ****     }
1264:Generated_Source\PSoC4/BLE_eventHandler.c **** #endif /* CYBLE_CUSTOM_CLIENT */
ARM GAS  C:\Users\ANDREW~1\AppData\Local\Temp\ccKT4bII.s 			page 31


1265:Generated_Source\PSoC4/BLE_eventHandler.c **** #ifdef CYBLE_IPS_CLIENT
1266:Generated_Source\PSoC4/BLE_eventHandler.c ****     if((cyBle_eventHandlerFlag & CYBLE_CALLBACK) != 0u)
1267:Generated_Source\PSoC4/BLE_eventHandler.c ****     {
1268:Generated_Source\PSoC4/BLE_eventHandler.c ****         CyBle_IpscReadMultipleResponseEventHandler(eventParam);
1269:Generated_Source\PSoC4/BLE_eventHandler.c ****     }
1270:Generated_Source\PSoC4/BLE_eventHandler.c **** #endif /* CYBLE_IPS_CLIENT */
1271:Generated_Source\PSoC4/BLE_eventHandler.c ****     /* MISRA 16.7 violation workaround */
1272:Generated_Source\PSoC4/BLE_eventHandler.c ****     eventParam = eventParam;
1273:Generated_Source\PSoC4/BLE_eventHandler.c **** }
 441              		.loc 1 1273 0
 442 00e8 BD46     		mov	sp, r7
 443 00ea 09B0     		add	sp, sp, #36
 444              		@ sp needed
 445 00ec 90BD     		pop	{r4, r7, pc}
 446              	.L17:
 447 00ee C046     		.align	2
 448              	.L16:
 449 00f0 00000000 		.word	cyBle_clientState
 450 00f4 00000000 		.word	cyBle_discInclInfo
 451 00f8 00000000 		.word	cyBle_disCount
 452 00fc 00000000 		.word	cyBle_serverInfo
 453 0100 00000000 		.word	cyBle_connHandle
 454 0104 00000000 		.word	CyBle_ApplCallback
 455 0108 00000000 		.word	cyBle_eventHandlerFlag
 456              		.cfi_endproc
 457              	.LFE6:
 458              		.size	CyBle_ReadMultipleResponseEventHandler, .-CyBle_ReadMultipleResponseEventHandler
 459              		.section	.text.CyBle_GattDisconnectEventHandler,"ax",%progbits
 460              		.align	2
 461              		.code	16
 462              		.thumb_func
 463              		.type	CyBle_GattDisconnectEventHandler, %function
 464              	CyBle_GattDisconnectEventHandler:
 465              	.LFB7:
1274:Generated_Source\PSoC4/BLE_eventHandler.c **** #endif /* CYBLE_GATT_ROLE_CLIENT */
1275:Generated_Source\PSoC4/BLE_eventHandler.c **** 
1276:Generated_Source\PSoC4/BLE_eventHandler.c **** 
1277:Generated_Source\PSoC4/BLE_eventHandler.c **** /****************************************************************************** 
1278:Generated_Source\PSoC4/BLE_eventHandler.c **** * Function Name: CyBle_DisconnectEventHandler
1279:Generated_Source\PSoC4/BLE_eventHandler.c **** ***************************************************************************//**
1280:Generated_Source\PSoC4/BLE_eventHandler.c **** * 
1281:Generated_Source\PSoC4/BLE_eventHandler.c **** *  Handles the GATT Disconnection event from the BLE stack.
1282:Generated_Source\PSoC4/BLE_eventHandler.c **** * 
1283:Generated_Source\PSoC4/BLE_eventHandler.c **** * \return
1284:Generated_Source\PSoC4/BLE_eventHandler.c **** *  None
1285:Generated_Source\PSoC4/BLE_eventHandler.c **** * 
1286:Generated_Source\PSoC4/BLE_eventHandler.c **** ******************************************************************************/
1287:Generated_Source\PSoC4/BLE_eventHandler.c **** static void CyBle_GattDisconnectEventHandler(void)
1288:Generated_Source\PSoC4/BLE_eventHandler.c **** {
 466              		.loc 1 1288 0
 467              		.cfi_startproc
 468 0000 80B5     		push	{r7, lr}
 469              		.cfi_def_cfa_offset 8
 470              		.cfi_offset 7, -8
 471              		.cfi_offset 14, -4
 472 0002 00AF     		add	r7, sp, #0
 473              		.cfi_def_cfa_register 7
ARM GAS  C:\Users\ANDREW~1\AppData\Local\Temp\ccKT4bII.s 			page 32


1289:Generated_Source\PSoC4/BLE_eventHandler.c ****     cyBle_connHandle.attId = 0u;
 474              		.loc 1 1289 0
 475 0004 094B     		ldr	r3, .L21
 476 0006 0022     		mov	r2, #0
 477 0008 5A70     		strb	r2, [r3, #1]
1290:Generated_Source\PSoC4/BLE_eventHandler.c ****     cyBle_connHandle.bdHandle = 0u;
 478              		.loc 1 1290 0
 479 000a 084B     		ldr	r3, .L21
 480 000c 0022     		mov	r2, #0
 481 000e 1A70     		strb	r2, [r3]
1291:Generated_Source\PSoC4/BLE_eventHandler.c ****     
1292:Generated_Source\PSoC4/BLE_eventHandler.c ****     #if (CYBLE_GATT_ROLE_CLIENT)
1293:Generated_Source\PSoC4/BLE_eventHandler.c ****         if(CyBle_GetClientState() == CYBLE_CLIENT_STATE_DISCOVERED)
 482              		.loc 1 1293 0
 483 0010 074B     		ldr	r3, .L21+4
 484 0012 1B78     		ldrb	r3, [r3]
 485 0014 052B     		cmp	r3, #5
 486 0016 03D1     		bne	.L19
1294:Generated_Source\PSoC4/BLE_eventHandler.c ****         {
1295:Generated_Source\PSoC4/BLE_eventHandler.c ****             CyBle_SetClientState(CYBLE_CLIENT_STATE_DISCONNECTED_DISCOVERED);
 487              		.loc 1 1295 0
 488 0018 054B     		ldr	r3, .L21+4
 489 001a 0722     		mov	r2, #7
 490 001c 1A70     		strb	r2, [r3]
 491 001e 02E0     		b	.L18
 492              	.L19:
1296:Generated_Source\PSoC4/BLE_eventHandler.c ****         }
1297:Generated_Source\PSoC4/BLE_eventHandler.c ****         else
1298:Generated_Source\PSoC4/BLE_eventHandler.c ****         {
1299:Generated_Source\PSoC4/BLE_eventHandler.c ****             CyBle_SetClientState(CYBLE_CLIENT_STATE_DISCONNECTED);
 493              		.loc 1 1299 0
 494 0020 034B     		ldr	r3, .L21+4
 495 0022 0822     		mov	r2, #8
 496 0024 1A70     		strb	r2, [r3]
 497              	.L18:
1300:Generated_Source\PSoC4/BLE_eventHandler.c ****         }
1301:Generated_Source\PSoC4/BLE_eventHandler.c ****     #endif /* CYBLE_GATT_ROLE_CLIENT */
1302:Generated_Source\PSoC4/BLE_eventHandler.c ****         
1303:Generated_Source\PSoC4/BLE_eventHandler.c ****     #ifdef CYBLE_CPS_SERVER
1304:Generated_Source\PSoC4/BLE_eventHandler.c ****         #if CYBLE_GAP_ROLE_BROADCASTER
1305:Generated_Source\PSoC4/BLE_eventHandler.c ****             CyBle_CpssDisconnectEventHandler();
1306:Generated_Source\PSoC4/BLE_eventHandler.c ****         #endif /* CYBLE_GAP_ROLE_BROADCASTER */
1307:Generated_Source\PSoC4/BLE_eventHandler.c ****     #endif /* CYBLE_CPS_SERVER */
1308:Generated_Source\PSoC4/BLE_eventHandler.c **** 
1309:Generated_Source\PSoC4/BLE_eventHandler.c ****     #ifdef CYBLE_CPS_CLIENT
1310:Generated_Source\PSoC4/BLE_eventHandler.c ****         CyBle_CpscDisconnectEventHandler();
1311:Generated_Source\PSoC4/BLE_eventHandler.c ****     #endif /* CYBLE_CPS_CLIENT */
1312:Generated_Source\PSoC4/BLE_eventHandler.c **** 
1313:Generated_Source\PSoC4/BLE_eventHandler.c ****     #ifdef CYBLE_IAS_SERVER
1314:Generated_Source\PSoC4/BLE_eventHandler.c ****         CyBle_IassDisconnectEventHandler();
1315:Generated_Source\PSoC4/BLE_eventHandler.c ****     #endif /* CYBLE_IAS_SERVER */
1316:Generated_Source\PSoC4/BLE_eventHandler.c ****     
1317:Generated_Source\PSoC4/BLE_eventHandler.c ****     #ifdef CYBLE_GLS_SERVER
1318:Generated_Source\PSoC4/BLE_eventHandler.c ****         CyBle_GlsInit();
1319:Generated_Source\PSoC4/BLE_eventHandler.c ****     #endif /* CYBLE_GLS_SERVER */
1320:Generated_Source\PSoC4/BLE_eventHandler.c ****     
1321:Generated_Source\PSoC4/BLE_eventHandler.c ****     #ifdef CYBLE_LNS_SERVER
ARM GAS  C:\Users\ANDREW~1\AppData\Local\Temp\ccKT4bII.s 			page 33


1322:Generated_Source\PSoC4/BLE_eventHandler.c ****         CyBle_LnsInit();
1323:Generated_Source\PSoC4/BLE_eventHandler.c ****     #endif /* CYBLE_LNS_SERVER */
1324:Generated_Source\PSoC4/BLE_eventHandler.c ****     
1325:Generated_Source\PSoC4/BLE_eventHandler.c ****     #ifdef CYBLE_UDS_SERVER
1326:Generated_Source\PSoC4/BLE_eventHandler.c ****         CyBle_UdsInit();
1327:Generated_Source\PSoC4/BLE_eventHandler.c ****     #endif /* CYBLE_UDS_SERVER */
1328:Generated_Source\PSoC4/BLE_eventHandler.c **** }
 498              		.loc 1 1328 0
 499 0026 BD46     		mov	sp, r7
 500              		@ sp needed
 501 0028 80BD     		pop	{r7, pc}
 502              	.L22:
 503 002a C046     		.align	2
 504              	.L21:
 505 002c 00000000 		.word	cyBle_connHandle
 506 0030 00000000 		.word	cyBle_clientState
 507              		.cfi_endproc
 508              	.LFE7:
 509              		.size	CyBle_GattDisconnectEventHandler, .-CyBle_GattDisconnectEventHandler
 510              		.section	.text.CyBle_TimeOutEventHandler,"ax",%progbits
 511              		.align	2
 512              		.code	16
 513              		.thumb_func
 514              		.type	CyBle_TimeOutEventHandler, %function
 515              	CyBle_TimeOutEventHandler:
 516              	.LFB8:
1329:Generated_Source\PSoC4/BLE_eventHandler.c **** 
1330:Generated_Source\PSoC4/BLE_eventHandler.c **** 
1331:Generated_Source\PSoC4/BLE_eventHandler.c **** /****************************************************************************** 
1332:Generated_Source\PSoC4/BLE_eventHandler.c **** * Function Name: CyBle_TimeOutEventHandler
1333:Generated_Source\PSoC4/BLE_eventHandler.c **** ***************************************************************************//**
1334:Generated_Source\PSoC4/BLE_eventHandler.c **** * 
1335:Generated_Source\PSoC4/BLE_eventHandler.c **** *  Handles the CYBLE_EVT_TIMEOUT event from the BLE stack.
1336:Generated_Source\PSoC4/BLE_eventHandler.c **** * 
1337:Generated_Source\PSoC4/BLE_eventHandler.c **** *  \param eventParam: The pointer to a structure of type CYBLE_TO_REASON_CODE_T.
1338:Generated_Source\PSoC4/BLE_eventHandler.c **** * 
1339:Generated_Source\PSoC4/BLE_eventHandler.c **** * \return
1340:Generated_Source\PSoC4/BLE_eventHandler.c **** *  None
1341:Generated_Source\PSoC4/BLE_eventHandler.c **** * 
1342:Generated_Source\PSoC4/BLE_eventHandler.c **** ******************************************************************************/
1343:Generated_Source\PSoC4/BLE_eventHandler.c **** static void CyBle_TimeOutEventHandler(const CYBLE_TO_REASON_CODE_T *eventParam)
1344:Generated_Source\PSoC4/BLE_eventHandler.c **** {
 517              		.loc 1 1344 0
 518              		.cfi_startproc
 519 0000 80B5     		push	{r7, lr}
 520              		.cfi_def_cfa_offset 8
 521              		.cfi_offset 7, -8
 522              		.cfi_offset 14, -4
 523 0002 82B0     		sub	sp, sp, #8
 524              		.cfi_def_cfa_offset 16
 525 0004 00AF     		add	r7, sp, #0
 526              		.cfi_def_cfa_register 7
 527 0006 7860     		str	r0, [r7, #4]
1345:Generated_Source\PSoC4/BLE_eventHandler.c ****     if(*eventParam == CYBLE_GATT_RSP_TO)
 528              		.loc 1 1345 0
 529 0008 7B68     		ldr	r3, [r7, #4]
 530 000a 1B78     		ldrb	r3, [r3]
ARM GAS  C:\Users\ANDREW~1\AppData\Local\Temp\ccKT4bII.s 			page 34


 531 000c 032B     		cmp	r3, #3
 532 000e 3ED1     		bne	.L24
1346:Generated_Source\PSoC4/BLE_eventHandler.c ****     {
1347:Generated_Source\PSoC4/BLE_eventHandler.c ****     #if (CYBLE_GATT_ROLE_CLIENT)
1348:Generated_Source\PSoC4/BLE_eventHandler.c ****         if((cyBle_eventHandlerFlag & CYBLE_AUTO_DISCOVERY) != 0u)
 533              		.loc 1 1348 0
 534 0010 254B     		ldr	r3, .L33
 535 0012 1B78     		ldrb	r3, [r3]
 536 0014 DBB2     		uxtb	r3, r3
 537 0016 1A1C     		mov	r2, r3
 538 0018 0223     		mov	r3, #2
 539 001a 1340     		and	r3, r2
 540 001c 37D0     		beq	.L24
1349:Generated_Source\PSoC4/BLE_eventHandler.c ****         {
1350:Generated_Source\PSoC4/BLE_eventHandler.c ****             switch(CyBle_GetClientState())
 541              		.loc 1 1350 0
 542 001e 234B     		ldr	r3, .L33+4
 543 0020 1B78     		ldrb	r3, [r3]
 544 0022 022B     		cmp	r3, #2
 545 0024 10D0     		beq	.L26
 546 0026 02DC     		bgt	.L27
 547 0028 012B     		cmp	r3, #1
 548 002a 05D0     		beq	.L28
1351:Generated_Source\PSoC4/BLE_eventHandler.c ****             {
1352:Generated_Source\PSoC4/BLE_eventHandler.c ****                 case CYBLE_CLIENT_STATE_SRVC_DISCOVERING:
1353:Generated_Source\PSoC4/BLE_eventHandler.c ****                     CyBle_ApplCallback(CYBLE_EVT_GATTC_SRVC_DISCOVERY_FAILED, NULL);
1354:Generated_Source\PSoC4/BLE_eventHandler.c ****                     break;
1355:Generated_Source\PSoC4/BLE_eventHandler.c ****                 case CYBLE_CLIENT_STATE_INCL_DISCOVERING:
1356:Generated_Source\PSoC4/BLE_eventHandler.c ****                     CyBle_ApplCallback(CYBLE_EVT_GATTC_INCL_DISCOVERY_FAILED, NULL);
1357:Generated_Source\PSoC4/BLE_eventHandler.c ****                     break;
1358:Generated_Source\PSoC4/BLE_eventHandler.c ****                 case CYBLE_CLIENT_STATE_CHAR_DISCOVERING:
1359:Generated_Source\PSoC4/BLE_eventHandler.c ****                     CyBle_ApplCallback(CYBLE_EVT_GATTC_CHAR_DISCOVERY_FAILED, NULL);
1360:Generated_Source\PSoC4/BLE_eventHandler.c ****                     break;
1361:Generated_Source\PSoC4/BLE_eventHandler.c ****                 case CYBLE_CLIENT_STATE_DESCR_DISCOVERING:
1362:Generated_Source\PSoC4/BLE_eventHandler.c ****                     CyBle_ApplCallback(CYBLE_EVT_GATTC_DESCR_DISCOVERY_FAILED, NULL);
1363:Generated_Source\PSoC4/BLE_eventHandler.c ****                     break;
1364:Generated_Source\PSoC4/BLE_eventHandler.c ****                 default:        /* Other states should not be set in Auto discovery mode */
1365:Generated_Source\PSoC4/BLE_eventHandler.c ****                     break;
 549              		.loc 1 1365 0
 550 002c 24E0     		b	.L31
 551              	.L27:
1350:Generated_Source\PSoC4/BLE_eventHandler.c ****             {
 552              		.loc 1 1350 0
 553 002e 032B     		cmp	r3, #3
 554 0030 12D0     		beq	.L29
 555 0032 042B     		cmp	r3, #4
 556 0034 18D0     		beq	.L30
 557              		.loc 1 1365 0
 558 0036 1FE0     		b	.L31
 559              	.L28:
1353:Generated_Source\PSoC4/BLE_eventHandler.c ****                     break;
 560              		.loc 1 1353 0
 561 0038 1D4B     		ldr	r3, .L33+8
 562 003a 1B68     		ldr	r3, [r3]
 563 003c 0822     		mov	r2, #8
 564 003e FF32     		add	r2, r2, #255
 565 0040 101C     		mov	r0, r2
ARM GAS  C:\Users\ANDREW~1\AppData\Local\Temp\ccKT4bII.s 			page 35


 566 0042 0021     		mov	r1, #0
 567 0044 9847     		blx	r3
1354:Generated_Source\PSoC4/BLE_eventHandler.c ****                 case CYBLE_CLIENT_STATE_INCL_DISCOVERING:
 568              		.loc 1 1354 0
 569 0046 17E0     		b	.L31
 570              	.L26:
1356:Generated_Source\PSoC4/BLE_eventHandler.c ****                     break;
 571              		.loc 1 1356 0
 572 0048 194B     		ldr	r3, .L33+8
 573 004a 1B68     		ldr	r3, [r3]
 574 004c 8422     		mov	r2, #132
 575 004e 5200     		lsl	r2, r2, #1
 576 0050 101C     		mov	r0, r2
 577 0052 0021     		mov	r1, #0
 578 0054 9847     		blx	r3
1357:Generated_Source\PSoC4/BLE_eventHandler.c ****                 case CYBLE_CLIENT_STATE_CHAR_DISCOVERING:
 579              		.loc 1 1357 0
 580 0056 0FE0     		b	.L31
 581              	.L29:
1359:Generated_Source\PSoC4/BLE_eventHandler.c ****                     break;
 582              		.loc 1 1359 0
 583 0058 154B     		ldr	r3, .L33+8
 584 005a 1B68     		ldr	r3, [r3]
 585 005c 0A22     		mov	r2, #10
 586 005e FF32     		add	r2, r2, #255
 587 0060 101C     		mov	r0, r2
 588 0062 0021     		mov	r1, #0
 589 0064 9847     		blx	r3
1360:Generated_Source\PSoC4/BLE_eventHandler.c ****                 case CYBLE_CLIENT_STATE_DESCR_DISCOVERING:
 590              		.loc 1 1360 0
 591 0066 07E0     		b	.L31
 592              	.L30:
1362:Generated_Source\PSoC4/BLE_eventHandler.c ****                     break;
 593              		.loc 1 1362 0
 594 0068 114B     		ldr	r3, .L33+8
 595 006a 1B68     		ldr	r3, [r3]
 596 006c 8522     		mov	r2, #133
 597 006e 5200     		lsl	r2, r2, #1
 598 0070 101C     		mov	r0, r2
 599 0072 0021     		mov	r1, #0
 600 0074 9847     		blx	r3
1363:Generated_Source\PSoC4/BLE_eventHandler.c ****                 default:        /* Other states should not be set in Auto discovery mode */
 601              		.loc 1 1363 0
 602 0076 C046     		mov	r8, r8
 603              	.L31:
1366:Generated_Source\PSoC4/BLE_eventHandler.c ****             }
1367:Generated_Source\PSoC4/BLE_eventHandler.c ****             cyBle_eventHandlerFlag &= (uint8)~CYBLE_AUTO_DISCOVERY;
 604              		.loc 1 1367 0
 605 0078 0B4B     		ldr	r3, .L33
 606 007a 1B78     		ldrb	r3, [r3]
 607 007c DBB2     		uxtb	r3, r3
 608 007e 0222     		mov	r2, #2
 609 0080 9343     		bic	r3, r2
 610 0082 DAB2     		uxtb	r2, r3
 611 0084 084B     		ldr	r3, .L33
 612 0086 1A70     		strb	r2, [r3]
1368:Generated_Source\PSoC4/BLE_eventHandler.c ****             CyBle_SetClientState(CYBLE_CLIENT_STATE_CONNECTED);
ARM GAS  C:\Users\ANDREW~1\AppData\Local\Temp\ccKT4bII.s 			page 36


 613              		.loc 1 1368 0
 614 0088 084B     		ldr	r3, .L33+4
 615 008a 0022     		mov	r2, #0
 616 008c 1A70     		strb	r2, [r3]
 617              	.L24:
1369:Generated_Source\PSoC4/BLE_eventHandler.c ****         }
1370:Generated_Source\PSoC4/BLE_eventHandler.c ****     #endif /* CYBLE_GATT_ROLE_CLIENT */
1371:Generated_Source\PSoC4/BLE_eventHandler.c ****     #ifdef CYBLE_CPS_SERVER
1372:Generated_Source\PSoC4/BLE_eventHandler.c ****         CyBle_CpssTimeOutEventHandler();
1373:Generated_Source\PSoC4/BLE_eventHandler.c ****     #endif /* CYBLE_CPS_SERVER */
1374:Generated_Source\PSoC4/BLE_eventHandler.c ****     }
1375:Generated_Source\PSoC4/BLE_eventHandler.c ****     
1376:Generated_Source\PSoC4/BLE_eventHandler.c ****     /* Connection procedure timeout */
1377:Generated_Source\PSoC4/BLE_eventHandler.c ****     if(*eventParam == CYBLE_GENERIC_TO)
 618              		.loc 1 1377 0
 619 008e 7B68     		ldr	r3, [r7, #4]
 620 0090 1B78     		ldrb	r3, [r3]
 621 0092 042B     		cmp	r3, #4
 622 0094 05D1     		bne	.L23
1378:Generated_Source\PSoC4/BLE_eventHandler.c ****     {
1379:Generated_Source\PSoC4/BLE_eventHandler.c ****     #if(CYBLE_GAP_ROLE_CENTRAL)
1380:Generated_Source\PSoC4/BLE_eventHandler.c ****         if(CyBle_GetState() == CYBLE_STATE_CONNECTING)
 623              		.loc 1 1380 0
 624 0096 074B     		ldr	r3, .L33+12
 625 0098 1B78     		ldrb	r3, [r3]
 626 009a 042B     		cmp	r3, #4
 627 009c 01D1     		bne	.L23
1381:Generated_Source\PSoC4/BLE_eventHandler.c ****         {
1382:Generated_Source\PSoC4/BLE_eventHandler.c ****             (void)CyBle_GapcCancelDeviceConnection();
 628              		.loc 1 1382 0
 629 009e FFF7FEFF 		bl	CyBle_GapcCancelDeviceConnection
 630              	.L23:
1383:Generated_Source\PSoC4/BLE_eventHandler.c ****         }
1384:Generated_Source\PSoC4/BLE_eventHandler.c ****     #endif /* CYBLE_GAP_ROLE_CENTRAL */
1385:Generated_Source\PSoC4/BLE_eventHandler.c ****     }
1386:Generated_Source\PSoC4/BLE_eventHandler.c **** }
 631              		.loc 1 1386 0
 632 00a2 BD46     		mov	sp, r7
 633 00a4 02B0     		add	sp, sp, #8
 634              		@ sp needed
 635 00a6 80BD     		pop	{r7, pc}
 636              	.L34:
 637              		.align	2
 638              	.L33:
 639 00a8 00000000 		.word	cyBle_eventHandlerFlag
 640 00ac 00000000 		.word	cyBle_clientState
 641 00b0 00000000 		.word	CyBle_ApplCallback
 642 00b4 00000000 		.word	cyBle_state
 643              		.cfi_endproc
 644              	.LFE8:
 645              		.size	CyBle_TimeOutEventHandler, .-CyBle_TimeOutEventHandler
 646              		.section	.text.CyBle_GattConnectReqHandler,"ax",%progbits
 647              		.align	2
 648              		.code	16
 649              		.thumb_func
 650              		.type	CyBle_GattConnectReqHandler, %function
 651              	CyBle_GattConnectReqHandler:
ARM GAS  C:\Users\ANDREW~1\AppData\Local\Temp\ccKT4bII.s 			page 37


 652              	.LFB9:
1387:Generated_Source\PSoC4/BLE_eventHandler.c **** 
1388:Generated_Source\PSoC4/BLE_eventHandler.c **** 
1389:Generated_Source\PSoC4/BLE_eventHandler.c **** /****************************************************************************** 
1390:Generated_Source\PSoC4/BLE_eventHandler.c **** * Function Name: CyBle_GattConnectReqHandler
1391:Generated_Source\PSoC4/BLE_eventHandler.c **** ***************************************************************************//**
1392:Generated_Source\PSoC4/BLE_eventHandler.c **** * 
1393:Generated_Source\PSoC4/BLE_eventHandler.c **** *  Handles the GATT connect event from the BLE stack.
1394:Generated_Source\PSoC4/BLE_eventHandler.c **** * 
1395:Generated_Source\PSoC4/BLE_eventHandler.c **** * \return
1396:Generated_Source\PSoC4/BLE_eventHandler.c **** *  None
1397:Generated_Source\PSoC4/BLE_eventHandler.c **** * 
1398:Generated_Source\PSoC4/BLE_eventHandler.c **** ******************************************************************************/
1399:Generated_Source\PSoC4/BLE_eventHandler.c **** static void CyBle_GattConnectReqHandler(void)
1400:Generated_Source\PSoC4/BLE_eventHandler.c **** {
 653              		.loc 1 1400 0
 654              		.cfi_startproc
 655 0000 80B5     		push	{r7, lr}
 656              		.cfi_def_cfa_offset 8
 657              		.cfi_offset 7, -8
 658              		.cfi_offset 14, -4
 659 0002 00AF     		add	r7, sp, #0
 660              		.cfi_def_cfa_register 7
1401:Generated_Source\PSoC4/BLE_eventHandler.c ****     #ifdef CYBLE_CGMS_SERVER
1402:Generated_Source\PSoC4/BLE_eventHandler.c ****         CyBle_CgmsInit();
1403:Generated_Source\PSoC4/BLE_eventHandler.c ****     #endif /* CYBLE_CGMS_SERVER */
1404:Generated_Source\PSoC4/BLE_eventHandler.c ****     
1405:Generated_Source\PSoC4/BLE_eventHandler.c ****     #ifdef CYBLE_CPS_SERVER
1406:Generated_Source\PSoC4/BLE_eventHandler.c ****         CyBle_CpssConnectEventHandler();
1407:Generated_Source\PSoC4/BLE_eventHandler.c ****     #endif /* CYBLE_CPS_SERVER */
1408:Generated_Source\PSoC4/BLE_eventHandler.c ****     
1409:Generated_Source\PSoC4/BLE_eventHandler.c ****     #ifdef CYBLE_CSCS_SERVER
1410:Generated_Source\PSoC4/BLE_eventHandler.c ****             CyBle_CscsInit();
1411:Generated_Source\PSoC4/BLE_eventHandler.c ****     #endif /* CYBLE_CSCS_SERVER */
1412:Generated_Source\PSoC4/BLE_eventHandler.c ****     
1413:Generated_Source\PSoC4/BLE_eventHandler.c ****     #ifdef CYBLE_LLS_SERVER
1414:Generated_Source\PSoC4/BLE_eventHandler.c ****         CyBle_LlssConnectEventHandler();
1415:Generated_Source\PSoC4/BLE_eventHandler.c ****     #endif /* CYBLE_LLS_SERVER */
1416:Generated_Source\PSoC4/BLE_eventHandler.c ****     
1417:Generated_Source\PSoC4/BLE_eventHandler.c ****     #ifdef CYBLE_HIDS_SERVER
1418:Generated_Source\PSoC4/BLE_eventHandler.c ****         CyBle_HidssOnDeviceConnected();
1419:Generated_Source\PSoC4/BLE_eventHandler.c ****     #endif /* CYBLE_HIDS_SERVER */
1420:Generated_Source\PSoC4/BLE_eventHandler.c **** 
1421:Generated_Source\PSoC4/BLE_eventHandler.c ****     #ifdef CYBLE_RSCS_SERVER
1422:Generated_Source\PSoC4/BLE_eventHandler.c ****         CyBle_RscsInit();
1423:Generated_Source\PSoC4/BLE_eventHandler.c ****     #endif /* CYBLE_RSCS_SERVER */
1424:Generated_Source\PSoC4/BLE_eventHandler.c **** }
 661              		.loc 1 1424 0
 662 0004 BD46     		mov	sp, r7
 663              		@ sp needed
 664 0006 80BD     		pop	{r7, pc}
 665              		.cfi_endproc
 666              	.LFE9:
 667              		.size	CyBle_GattConnectReqHandler, .-CyBle_GattConnectReqHandler
 668              		.section	.text.CyBle_IsDeviceAddressValid,"ax",%progbits
 669              		.align	2
 670              		.global	CyBle_IsDeviceAddressValid
ARM GAS  C:\Users\ANDREW~1\AppData\Local\Temp\ccKT4bII.s 			page 38


 671              		.code	16
 672              		.thumb_func
 673              		.type	CyBle_IsDeviceAddressValid, %function
 674              	CyBle_IsDeviceAddressValid:
 675              	.LFB10:
1425:Generated_Source\PSoC4/BLE_eventHandler.c **** 
1426:Generated_Source\PSoC4/BLE_eventHandler.c **** 
1427:Generated_Source\PSoC4/BLE_eventHandler.c **** #if (CYBLE_GATT_ROLE_SERVER || CYBLE_GATT_ROLE_CLIENT)
1428:Generated_Source\PSoC4/BLE_eventHandler.c **** 
1429:Generated_Source\PSoC4/BLE_eventHandler.c **** /****************************************************************************** 
1430:Generated_Source\PSoC4/BLE_eventHandler.c **** * Function Name: CyBle_IsDeviceAddressValid
1431:Generated_Source\PSoC4/BLE_eventHandler.c **** ***************************************************************************//**
1432:Generated_Source\PSoC4/BLE_eventHandler.c **** * 
1433:Generated_Source\PSoC4/BLE_eventHandler.c **** *  This function verifies that BLE public address has been programmed to SFLASH 
1434:Generated_Source\PSoC4/BLE_eventHandler.c **** *  during manufacture. It could be used to verify if public device address is 
1435:Generated_Source\PSoC4/BLE_eventHandler.c **** *  programmed to flash memory.
1436:Generated_Source\PSoC4/BLE_eventHandler.c **** * 
1437:Generated_Source\PSoC4/BLE_eventHandler.c **** *  \param deviceAddress: the pointer to the BD address of type CYBLE_GAP_BD_ADDR_T. 
1438:Generated_Source\PSoC4/BLE_eventHandler.c **** * 
1439:Generated_Source\PSoC4/BLE_eventHandler.c **** * \return
1440:Generated_Source\PSoC4/BLE_eventHandler.c **** *  Non zero value when a device address differs from the default SFLASH content.
1441:Generated_Source\PSoC4/BLE_eventHandler.c **** * 
1442:Generated_Source\PSoC4/BLE_eventHandler.c **** ******************************************************************************/
1443:Generated_Source\PSoC4/BLE_eventHandler.c **** uint8 CyBle_IsDeviceAddressValid(const CYBLE_GAP_BD_ADDR_T *deviceAddress)
1444:Generated_Source\PSoC4/BLE_eventHandler.c **** {
 676              		.loc 1 1444 0
 677              		.cfi_startproc
 678 0000 80B5     		push	{r7, lr}
 679              		.cfi_def_cfa_offset 8
 680              		.cfi_offset 7, -8
 681              		.cfi_offset 14, -4
 682 0002 84B0     		sub	sp, sp, #16
 683              		.cfi_def_cfa_offset 24
 684 0004 00AF     		add	r7, sp, #0
 685              		.cfi_def_cfa_register 7
 686 0006 7860     		str	r0, [r7, #4]
1445:Generated_Source\PSoC4/BLE_eventHandler.c ****     uint8 i;
1446:Generated_Source\PSoC4/BLE_eventHandler.c ****     uint8 addressValid = 0u;
 687              		.loc 1 1446 0
 688 0008 0E23     		mov	r3, #14
 689 000a FB18     		add	r3, r7, r3
 690 000c 0022     		mov	r2, #0
 691 000e 1A70     		strb	r2, [r3]
1447:Generated_Source\PSoC4/BLE_eventHandler.c ****     
1448:Generated_Source\PSoC4/BLE_eventHandler.c ****     if(deviceAddress -> type == CYBLE_GAP_ADDR_TYPE_PUBLIC)  
 692              		.loc 1 1448 0
 693 0010 7B68     		ldr	r3, [r7, #4]
 694 0012 9B79     		ldrb	r3, [r3, #6]
 695 0014 002B     		cmp	r3, #0
 696 0016 1CD1     		bne	.L37
1449:Generated_Source\PSoC4/BLE_eventHandler.c ****     {
1450:Generated_Source\PSoC4/BLE_eventHandler.c ****         for(i = 0u; i < CYBLE_GAP_BD_ADDR_SIZE; i++)
 697              		.loc 1 1450 0
 698 0018 0F23     		mov	r3, #15
 699 001a FB18     		add	r3, r7, r3
 700 001c 0022     		mov	r2, #0
 701 001e 1A70     		strb	r2, [r3]
ARM GAS  C:\Users\ANDREW~1\AppData\Local\Temp\ccKT4bII.s 			page 39


 702 0020 12E0     		b	.L38
 703              	.L40:
1451:Generated_Source\PSoC4/BLE_eventHandler.c ****         {
1452:Generated_Source\PSoC4/BLE_eventHandler.c ****             if(deviceAddress->bdAddr[i] != 0u)
 704              		.loc 1 1452 0
 705 0022 0F23     		mov	r3, #15
 706 0024 FB18     		add	r3, r7, r3
 707 0026 1B78     		ldrb	r3, [r3]
 708 0028 7A68     		ldr	r2, [r7, #4]
 709 002a D35C     		ldrb	r3, [r2, r3]
 710 002c 002B     		cmp	r3, #0
 711 002e 04D0     		beq	.L39
1453:Generated_Source\PSoC4/BLE_eventHandler.c ****             {
1454:Generated_Source\PSoC4/BLE_eventHandler.c ****                 addressValid = 1u;
 712              		.loc 1 1454 0
 713 0030 0E23     		mov	r3, #14
 714 0032 FB18     		add	r3, r7, r3
 715 0034 0122     		mov	r2, #1
 716 0036 1A70     		strb	r2, [r3]
1455:Generated_Source\PSoC4/BLE_eventHandler.c ****                 break;
 717              		.loc 1 1455 0
 718 0038 0BE0     		b	.L37
 719              	.L39:
1450:Generated_Source\PSoC4/BLE_eventHandler.c ****         {
 720              		.loc 1 1450 0 discriminator 2
 721 003a 0F23     		mov	r3, #15
 722 003c FB18     		add	r3, r7, r3
 723 003e 1A78     		ldrb	r2, [r3]
 724 0040 0F23     		mov	r3, #15
 725 0042 FB18     		add	r3, r7, r3
 726 0044 0132     		add	r2, r2, #1
 727 0046 1A70     		strb	r2, [r3]
 728              	.L38:
1450:Generated_Source\PSoC4/BLE_eventHandler.c ****         {
 729              		.loc 1 1450 0 is_stmt 0 discriminator 1
 730 0048 0F23     		mov	r3, #15
 731 004a FB18     		add	r3, r7, r3
 732 004c 1B78     		ldrb	r3, [r3]
 733 004e 052B     		cmp	r3, #5
 734 0050 E7D9     		bls	.L40
 735              	.L37:
1456:Generated_Source\PSoC4/BLE_eventHandler.c ****             }
1457:Generated_Source\PSoC4/BLE_eventHandler.c ****         }
1458:Generated_Source\PSoC4/BLE_eventHandler.c ****     }
1459:Generated_Source\PSoC4/BLE_eventHandler.c ****     return (addressValid);
 736              		.loc 1 1459 0 is_stmt 1
 737 0052 0E23     		mov	r3, #14
 738 0054 FB18     		add	r3, r7, r3
 739 0056 1B78     		ldrb	r3, [r3]
1460:Generated_Source\PSoC4/BLE_eventHandler.c **** }
 740              		.loc 1 1460 0
 741 0058 181C     		mov	r0, r3
 742 005a BD46     		mov	sp, r7
 743 005c 04B0     		add	sp, sp, #16
 744              		@ sp needed
 745 005e 80BD     		pop	{r7, pc}
 746              		.cfi_endproc
ARM GAS  C:\Users\ANDREW~1\AppData\Local\Temp\ccKT4bII.s 			page 40


 747              	.LFE10:
 748              		.size	CyBle_IsDeviceAddressValid, .-CyBle_IsDeviceAddressValid
 749              		.section	.text.CyBle_L2Cap_ConnParamUpdateRspEventHandler,"ax",%progbits
 750              		.align	2
 751              		.code	16
 752              		.thumb_func
 753              		.type	CyBle_L2Cap_ConnParamUpdateRspEventHandler, %function
 754              	CyBle_L2Cap_ConnParamUpdateRspEventHandler:
 755              	.LFB11:
1461:Generated_Source\PSoC4/BLE_eventHandler.c **** #endif /* CYBLE_GATT_ROLE_SERVER || CYBLE_GATT_ROLE_CLIENT */
1462:Generated_Source\PSoC4/BLE_eventHandler.c **** 
1463:Generated_Source\PSoC4/BLE_eventHandler.c **** 
1464:Generated_Source\PSoC4/BLE_eventHandler.c **** /****************************************************************************** 
1465:Generated_Source\PSoC4/BLE_eventHandler.c **** * Function Name: CyBle_L2Cap_ConnParamUpdateRspHandler
1466:Generated_Source\PSoC4/BLE_eventHandler.c **** ***************************************************************************//**
1467:Generated_Source\PSoC4/BLE_eventHandler.c **** * 
1468:Generated_Source\PSoC4/BLE_eventHandler.c **** *  Handles the L2CAP connection parameter response event from
1469:Generated_Source\PSoC4/BLE_eventHandler.c **** *  the BLE stack.
1470:Generated_Source\PSoC4/BLE_eventHandler.c **** * 
1471:Generated_Source\PSoC4/BLE_eventHandler.c **** *  \param response:
1472:Generated_Source\PSoC4/BLE_eventHandler.c **** *      * Accepted = 0x0000
1473:Generated_Source\PSoC4/BLE_eventHandler.c **** *      * Rejected = 0x0001
1474:Generated_Source\PSoC4/BLE_eventHandler.c **** * 
1475:Generated_Source\PSoC4/BLE_eventHandler.c **** * \return
1476:Generated_Source\PSoC4/BLE_eventHandler.c **** *  None
1477:Generated_Source\PSoC4/BLE_eventHandler.c **** * 
1478:Generated_Source\PSoC4/BLE_eventHandler.c **** ******************************************************************************/
1479:Generated_Source\PSoC4/BLE_eventHandler.c **** static void CyBle_L2Cap_ConnParamUpdateRspEventHandler(uint16 response)
1480:Generated_Source\PSoC4/BLE_eventHandler.c **** {
 756              		.loc 1 1480 0
 757              		.cfi_startproc
 758 0000 80B5     		push	{r7, lr}
 759              		.cfi_def_cfa_offset 8
 760              		.cfi_offset 7, -8
 761              		.cfi_offset 14, -4
 762 0002 82B0     		sub	sp, sp, #8
 763              		.cfi_def_cfa_offset 16
 764 0004 00AF     		add	r7, sp, #0
 765              		.cfi_def_cfa_register 7
 766 0006 021C     		mov	r2, r0
 767 0008 BB1D     		add	r3, r7, #6
 768 000a 1A80     		strh	r2, [r3]
1481:Generated_Source\PSoC4/BLE_eventHandler.c ****     #ifdef CYBLE_CPS_SERVER
1482:Generated_Source\PSoC4/BLE_eventHandler.c ****         CyBle_CpssConnParamUpdateRspEventHandler(response);
1483:Generated_Source\PSoC4/BLE_eventHandler.c ****     #endif /* CYBLE_CPS_SERVER */
1484:Generated_Source\PSoC4/BLE_eventHandler.c ****     
1485:Generated_Source\PSoC4/BLE_eventHandler.c ****     /* Unreferenced variable warning workaround */
1486:Generated_Source\PSoC4/BLE_eventHandler.c ****     if(response != 0u)
1487:Generated_Source\PSoC4/BLE_eventHandler.c ****     {
1488:Generated_Source\PSoC4/BLE_eventHandler.c ****     }
1489:Generated_Source\PSoC4/BLE_eventHandler.c **** }
 769              		.loc 1 1489 0
 770 000c BD46     		mov	sp, r7
 771 000e 02B0     		add	sp, sp, #8
 772              		@ sp needed
 773 0010 80BD     		pop	{r7, pc}
 774              		.cfi_endproc
ARM GAS  C:\Users\ANDREW~1\AppData\Local\Temp\ccKT4bII.s 			page 41


 775              	.LFE11:
 776              		.size	CyBle_L2Cap_ConnParamUpdateRspEventHandler, .-CyBle_L2Cap_ConnParamUpdateRspEventHandler
 777 0012 C046     		.section	.text.CyBle_GapConnUpdateCompleteEventHandler,"ax",%progbits
 778              		.align	2
 779              		.code	16
 780              		.thumb_func
 781              		.type	CyBle_GapConnUpdateCompleteEventHandler, %function
 782              	CyBle_GapConnUpdateCompleteEventHandler:
 783              	.LFB12:
1490:Generated_Source\PSoC4/BLE_eventHandler.c **** 
1491:Generated_Source\PSoC4/BLE_eventHandler.c **** 
1492:Generated_Source\PSoC4/BLE_eventHandler.c **** /****************************************************************************** 
1493:Generated_Source\PSoC4/BLE_eventHandler.c **** * Function Name: CyBle_GapConnUpdateCompleteEventHandler
1494:Generated_Source\PSoC4/BLE_eventHandler.c **** ***************************************************************************//**
1495:Generated_Source\PSoC4/BLE_eventHandler.c **** * 
1496:Generated_Source\PSoC4/BLE_eventHandler.c **** *  Handles the CYBLE_EVT_GAP_CONNECTION_UPDATE_COMPLETE event from
1497:Generated_Source\PSoC4/BLE_eventHandler.c **** *  the BLE stack.
1498:Generated_Source\PSoC4/BLE_eventHandler.c **** * 
1499:Generated_Source\PSoC4/BLE_eventHandler.c **** *  \param eventParam: The pointer to the data structure specified by the event.
1500:Generated_Source\PSoC4/BLE_eventHandler.c **** * 
1501:Generated_Source\PSoC4/BLE_eventHandler.c **** * \return
1502:Generated_Source\PSoC4/BLE_eventHandler.c **** *  None
1503:Generated_Source\PSoC4/BLE_eventHandler.c **** * 
1504:Generated_Source\PSoC4/BLE_eventHandler.c **** ******************************************************************************/
1505:Generated_Source\PSoC4/BLE_eventHandler.c **** static void CyBle_GapConnUpdateCompleteEventHandler(const CYBLE_GAP_CONN_PARAM_UPDATED_IN_CONTROLLE
1506:Generated_Source\PSoC4/BLE_eventHandler.c **** {
 784              		.loc 1 1506 0
 785              		.cfi_startproc
 786 0000 80B5     		push	{r7, lr}
 787              		.cfi_def_cfa_offset 8
 788              		.cfi_offset 7, -8
 789              		.cfi_offset 14, -4
 790 0002 82B0     		sub	sp, sp, #8
 791              		.cfi_def_cfa_offset 16
 792 0004 00AF     		add	r7, sp, #0
 793              		.cfi_def_cfa_register 7
 794 0006 7860     		str	r0, [r7, #4]
1507:Generated_Source\PSoC4/BLE_eventHandler.c ****     #ifdef CYBLE_CPS_SERVER
1508:Generated_Source\PSoC4/BLE_eventHandler.c ****         CyBle_CpssConnUpdateCompleteEventHandler(eventParam);
1509:Generated_Source\PSoC4/BLE_eventHandler.c ****     #endif /* CYBLE_CPS_SERVER */
1510:Generated_Source\PSoC4/BLE_eventHandler.c ****     
1511:Generated_Source\PSoC4/BLE_eventHandler.c ****     /* Unreferenced variable warning workaround */
1512:Generated_Source\PSoC4/BLE_eventHandler.c ****     if(eventParam != 0u)
1513:Generated_Source\PSoC4/BLE_eventHandler.c ****     {
1514:Generated_Source\PSoC4/BLE_eventHandler.c ****     }
1515:Generated_Source\PSoC4/BLE_eventHandler.c **** }
 795              		.loc 1 1515 0
 796 0008 BD46     		mov	sp, r7
 797 000a 02B0     		add	sp, sp, #8
 798              		@ sp needed
 799 000c 80BD     		pop	{r7, pc}
 800              		.cfi_endproc
 801              	.LFE12:
 802              		.size	CyBle_GapConnUpdateCompleteEventHandler, .-CyBle_GapConnUpdateCompleteEventHandler
 803              		.section	.text.CyBle_EventHandler,"ax",%progbits
 804              		.align	2
 805              		.global	CyBle_EventHandler
ARM GAS  C:\Users\ANDREW~1\AppData\Local\Temp\ccKT4bII.s 			page 42


 806              		.code	16
 807              		.thumb_func
 808              		.type	CyBle_EventHandler, %function
 809              	CyBle_EventHandler:
 810              	.LFB13:
1516:Generated_Source\PSoC4/BLE_eventHandler.c **** 
1517:Generated_Source\PSoC4/BLE_eventHandler.c **** 
1518:Generated_Source\PSoC4/BLE_eventHandler.c **** /****************************************************************************** 
1519:Generated_Source\PSoC4/BLE_eventHandler.c **** * Function Name: CyBle_EventHandler
1520:Generated_Source\PSoC4/BLE_eventHandler.c **** ***************************************************************************//**
1521:Generated_Source\PSoC4/BLE_eventHandler.c **** * 
1522:Generated_Source\PSoC4/BLE_eventHandler.c **** *  Handles the events from the BLE stack
1523:Generated_Source\PSoC4/BLE_eventHandler.c **** * 
1524:Generated_Source\PSoC4/BLE_eventHandler.c **** *  \param eventCode:    the event code
1525:Generated_Source\PSoC4/BLE_eventHandler.c **** *  \param eventParam:  the event parameters
1526:Generated_Source\PSoC4/BLE_eventHandler.c **** * 
1527:Generated_Source\PSoC4/BLE_eventHandler.c **** * \return
1528:Generated_Source\PSoC4/BLE_eventHandler.c **** *  None.
1529:Generated_Source\PSoC4/BLE_eventHandler.c **** * 
1530:Generated_Source\PSoC4/BLE_eventHandler.c **** ******************************************************************************/
1531:Generated_Source\PSoC4/BLE_eventHandler.c **** void CyBle_EventHandler(uint8 eventCode, void *eventParam)
1532:Generated_Source\PSoC4/BLE_eventHandler.c **** {
 811              		.loc 1 1532 0
 812              		.cfi_startproc
 813 0000 80B5     		push	{r7, lr}
 814              		.cfi_def_cfa_offset 8
 815              		.cfi_offset 7, -8
 816              		.cfi_offset 14, -4
 817 0002 86B0     		sub	sp, sp, #24
 818              		.cfi_def_cfa_offset 32
 819 0004 00AF     		add	r7, sp, #0
 820              		.cfi_def_cfa_register 7
 821 0006 021C     		mov	r2, r0
 822 0008 3960     		str	r1, [r7]
 823 000a FB1D     		add	r3, r7, #7
 824 000c 1A70     		strb	r2, [r3]
1533:Generated_Source\PSoC4/BLE_eventHandler.c ****     cyBle_eventHandlerFlag |= CYBLE_CALLBACK;
 825              		.loc 1 1533 0
 826 000e C14B     		ldr	r3, .L90
 827 0010 1B78     		ldrb	r3, [r3]
 828 0012 DBB2     		uxtb	r3, r3
 829 0014 0122     		mov	r2, #1
 830 0016 1343     		orr	r3, r2
 831 0018 DAB2     		uxtb	r2, r3
 832 001a BE4B     		ldr	r3, .L90
 833 001c 1A70     		strb	r2, [r3]
1534:Generated_Source\PSoC4/BLE_eventHandler.c **** 
1535:Generated_Source\PSoC4/BLE_eventHandler.c ****     /* Common Profile event handling */
1536:Generated_Source\PSoC4/BLE_eventHandler.c ****     switch(eventCode)
 834              		.loc 1 1536 0
 835 001e FB1D     		add	r3, r7, #7
 836 0020 1B78     		ldrb	r3, [r3]
 837 0022 712B     		cmp	r3, #113
 838 0024 00D9     		bls	.LCB719
 839 0026 5AE1     		b	.L89	@long jump
 840              	.LCB719:
 841 0028 9A00     		lsl	r2, r3, #2
ARM GAS  C:\Users\ANDREW~1\AppData\Local\Temp\ccKT4bII.s 			page 43


 842 002a BB4B     		ldr	r3, .L90+4
 843 002c D318     		add	r3, r2, r3
 844 002e 1B68     		ldr	r3, [r3]
 845 0030 9F46     		mov	pc, r3
 846              		.section	.rodata
 847              		.align	2
 848              	.L47:
 849 0000 DE020000 		.word	.L89
 850 0004 32000000 		.word	.L46
 851 0008 B0000000 		.word	.L48
 852 000c DE020000 		.word	.L89
 853 0010 DE020000 		.word	.L89
 854 0014 BA000000 		.word	.L49
 855 0018 C4000000 		.word	.L50
 856 001c DE020000 		.word	.L89
 857 0020 DE020000 		.word	.L89
 858 0024 DE020000 		.word	.L89
 859 0028 DE020000 		.word	.L89
 860 002c DE020000 		.word	.L89
 861 0030 DE020000 		.word	.L89
 862 0034 DE020000 		.word	.L89
 863 0038 DE020000 		.word	.L89
 864 003c DE020000 		.word	.L89
 865 0040 DE020000 		.word	.L89
 866 0044 DE020000 		.word	.L89
 867 0048 DE020000 		.word	.L89
 868 004c DE020000 		.word	.L89
 869 0050 DE020000 		.word	.L89
 870 0054 DE020000 		.word	.L89
 871 0058 DE020000 		.word	.L89
 872 005c DE020000 		.word	.L89
 873 0060 DE020000 		.word	.L89
 874 0064 DE020000 		.word	.L89
 875 0068 DE020000 		.word	.L89
 876 006c DE020000 		.word	.L89
 877 0070 DE020000 		.word	.L89
 878 0074 DE020000 		.word	.L89
 879 0078 DE020000 		.word	.L89
 880 007c DE020000 		.word	.L89
 881 0080 DE020000 		.word	.L89
 882 0084 04010000 		.word	.L52
 883 0088 DE020000 		.word	.L89
 884 008c DE020000 		.word	.L89
 885 0090 DE020000 		.word	.L89
 886 0094 DE020000 		.word	.L89
 887 0098 DE020000 		.word	.L89
 888 009c 3C010000 		.word	.L54
 889 00a0 58010000 		.word	.L55
 890 00a4 DE020000 		.word	.L89
 891 00a8 32010000 		.word	.L56
 892 00ac 60010000 		.word	.L57
 893 00b0 DE020000 		.word	.L89
 894 00b4 DE020000 		.word	.L89
 895 00b8 DE020000 		.word	.L89
 896 00bc DE020000 		.word	.L89
 897 00c0 DE020000 		.word	.L89
 898 00c4 DE020000 		.word	.L89
ARM GAS  C:\Users\ANDREW~1\AppData\Local\Temp\ccKT4bII.s 			page 44


 899 00c8 DE020000 		.word	.L89
 900 00cc DE020000 		.word	.L89
 901 00d0 DE020000 		.word	.L89
 902 00d4 DE020000 		.word	.L89
 903 00d8 DE020000 		.word	.L89
 904 00dc DE020000 		.word	.L89
 905 00e0 DE020000 		.word	.L89
 906 00e4 DE020000 		.word	.L89
 907 00e8 DE020000 		.word	.L89
 908 00ec DE020000 		.word	.L89
 909 00f0 DE020000 		.word	.L89
 910 00f4 DE020000 		.word	.L89
 911 00f8 DE020000 		.word	.L89
 912 00fc DE020000 		.word	.L89
 913 0100 82020000 		.word	.L58
 914 0104 F8010000 		.word	.L59
 915 0108 1E020000 		.word	.L60
 916 010c 24020000 		.word	.L61
 917 0110 DE020000 		.word	.L89
 918 0114 5E020000 		.word	.L62
 919 0118 68020000 		.word	.L63
 920 011c 78020000 		.word	.L64
 921 0120 DE020000 		.word	.L89
 922 0124 C0020000 		.word	.L65
 923 0128 DE020000 		.word	.L89
 924 012c CA020000 		.word	.L67
 925 0130 DE020000 		.word	.L89
 926 0134 D4020000 		.word	.L68
 927 0138 DE020000 		.word	.L89
 928 013c DE020000 		.word	.L89
 929 0140 DE020000 		.word	.L89
 930 0144 DE020000 		.word	.L89
 931 0148 8C020000 		.word	.L70
 932 014c 96020000 		.word	.L71
 933 0150 DE020000 		.word	.L89
 934 0154 DE020000 		.word	.L89
 935 0158 DE020000 		.word	.L89
 936 015c DE020000 		.word	.L89
 937 0160 72020000 		.word	.L72
 938 0164 DE020000 		.word	.L89
 939 0168 DE020000 		.word	.L89
 940 016c DE020000 		.word	.L89
 941 0170 DE020000 		.word	.L89
 942 0174 DE020000 		.word	.L89
 943 0178 DE020000 		.word	.L89
 944 017c DE020000 		.word	.L89
 945 0180 DE020000 		.word	.L89
 946 0184 DE020000 		.word	.L89
 947 0188 DE020000 		.word	.L89
 948 018c DE020000 		.word	.L89
 949 0190 DE020000 		.word	.L89
 950 0194 DE020000 		.word	.L89
 951 0198 DE020000 		.word	.L89
 952 019c DE020000 		.word	.L89
 953 01a0 DE020000 		.word	.L89
 954 01a4 DE020000 		.word	.L89
 955 01a8 DE020000 		.word	.L89
ARM GAS  C:\Users\ANDREW~1\AppData\Local\Temp\ccKT4bII.s 			page 45


 956 01ac DE020000 		.word	.L89
 957 01b0 DE020000 		.word	.L89
 958 01b4 DE020000 		.word	.L89
 959 01b8 DE020000 		.word	.L89
 960 01bc DE020000 		.word	.L89
 961 01c0 DE020000 		.word	.L89
 962 01c4 EC010000 		.word	.L73
 963              		.section	.text.CyBle_EventHandler
 964              	.L46:
 965              	.LBB4:
1537:Generated_Source\PSoC4/BLE_eventHandler.c ****     {
1538:Generated_Source\PSoC4/BLE_eventHandler.c ****         /**********************************************************
1539:Generated_Source\PSoC4/BLE_eventHandler.c ****         * General events
1540:Generated_Source\PSoC4/BLE_eventHandler.c ****         ************************************************************/
1541:Generated_Source\PSoC4/BLE_eventHandler.c ****         case CYBLE_EVT_STACK_ON:
1542:Generated_Source\PSoC4/BLE_eventHandler.c ****         #if(CYBLE_MODE_PROFILE)
1543:Generated_Source\PSoC4/BLE_eventHandler.c ****         {
1544:Generated_Source\PSoC4/BLE_eventHandler.c ****             CYBLE_BLESS_PWR_IN_DB_T bleSsPowerLevel;
1545:Generated_Source\PSoC4/BLE_eventHandler.c ****             
1546:Generated_Source\PSoC4/BLE_eventHandler.c ****             /* Set Tx Power Level for advertising and connection channels */
1547:Generated_Source\PSoC4/BLE_eventHandler.c ****             bleSsPowerLevel.blePwrLevelInDbm = CYBLE_TX_POWER_LEVEL_ADV;
 966              		.loc 1 1547 0
 967 0032 0C23     		mov	r3, #12
 968 0034 FB18     		add	r3, r7, r3
 969 0036 0722     		mov	r2, #7
 970 0038 1A70     		strb	r2, [r3]
1548:Generated_Source\PSoC4/BLE_eventHandler.c ****             bleSsPowerLevel.bleSsChId = CYBLE_LL_ADV_CH_TYPE;
 971              		.loc 1 1548 0
 972 003a 0C23     		mov	r3, #12
 973 003c FB18     		add	r3, r7, r3
 974 003e 0022     		mov	r2, #0
 975 0040 5A70     		strb	r2, [r3, #1]
1549:Generated_Source\PSoC4/BLE_eventHandler.c ****             (void) CyBle_SetTxPowerLevel (&bleSsPowerLevel);
 976              		.loc 1 1549 0
 977 0042 0C23     		mov	r3, #12
 978 0044 FB18     		add	r3, r7, r3
 979 0046 181C     		mov	r0, r3
 980 0048 FFF7FEFF 		bl	CyBle_SetTxPowerLevel
1550:Generated_Source\PSoC4/BLE_eventHandler.c ****             bleSsPowerLevel.blePwrLevelInDbm = CYBLE_TX_POWER_LEVEL_CONN;
 981              		.loc 1 1550 0
 982 004c 0C23     		mov	r3, #12
 983 004e FB18     		add	r3, r7, r3
 984 0050 0722     		mov	r2, #7
 985 0052 1A70     		strb	r2, [r3]
1551:Generated_Source\PSoC4/BLE_eventHandler.c ****             bleSsPowerLevel.bleSsChId = CYBLE_LL_CONN_CH_TYPE;
 986              		.loc 1 1551 0
 987 0054 0C23     		mov	r3, #12
 988 0056 FB18     		add	r3, r7, r3
 989 0058 0122     		mov	r2, #1
 990 005a 5A70     		strb	r2, [r3, #1]
1552:Generated_Source\PSoC4/BLE_eventHandler.c ****             (void) CyBle_SetTxPowerLevel (&bleSsPowerLevel);
 991              		.loc 1 1552 0
 992 005c 0C23     		mov	r3, #12
 993 005e FB18     		add	r3, r7, r3
 994 0060 181C     		mov	r0, r3
 995 0062 FFF7FEFF 		bl	CyBle_SetTxPowerLevel
 996              	.LBE4:
ARM GAS  C:\Users\ANDREW~1\AppData\Local\Temp\ccKT4bII.s 			page 46


1553:Generated_Source\PSoC4/BLE_eventHandler.c ****             
1554:Generated_Source\PSoC4/BLE_eventHandler.c ****         }
1555:Generated_Source\PSoC4/BLE_eventHandler.c ****         #endif /* CYBLE_MODE_PROFILE */
1556:Generated_Source\PSoC4/BLE_eventHandler.c ****         #if (CYBLE_GATT_ROLE_SERVER || CYBLE_GATT_ROLE_CLIENT)
1557:Generated_Source\PSoC4/BLE_eventHandler.c ****             /* Set device Address  */
1558:Generated_Source\PSoC4/BLE_eventHandler.c ****             if(CyBle_IsDeviceAddressValid(cyBle_sflashDeviceAddress) != 0u)
 997              		.loc 1 1558 0
 998 0066 AD4B     		ldr	r3, .L90+8
 999 0068 1B68     		ldr	r3, [r3]
 1000 006a 181C     		mov	r0, r3
 1001 006c FFF7FEFF 		bl	CyBle_IsDeviceAddressValid
 1002 0070 031E     		sub	r3, r0, #0
 1003 0072 05D0     		beq	.L74
1559:Generated_Source\PSoC4/BLE_eventHandler.c ****             {
1560:Generated_Source\PSoC4/BLE_eventHandler.c ****                 (void) CyBle_SetDeviceAddress(cyBle_sflashDeviceAddress);
 1004              		.loc 1 1560 0
 1005 0074 A94B     		ldr	r3, .L90+8
 1006 0076 1B68     		ldr	r3, [r3]
 1007 0078 181C     		mov	r0, r3
 1008 007a FFF7FEFF 		bl	CyBle_SetDeviceAddress
 1009 007e 03E0     		b	.L75
 1010              	.L74:
1561:Generated_Source\PSoC4/BLE_eventHandler.c ****                 #if(CYBLE_GAP_ROLE_PERIPHERAL || CYBLE_GAP_ROLE_BROADCASTER)
1562:Generated_Source\PSoC4/BLE_eventHandler.c ****                     CyBle_ChangeAdDeviceAddress(cyBle_sflashDeviceAddress, 0u);
1563:Generated_Source\PSoC4/BLE_eventHandler.c ****                     CyBle_ChangeAdDeviceAddress(cyBle_sflashDeviceAddress, 1u);
1564:Generated_Source\PSoC4/BLE_eventHandler.c ****                 #endif /* CYBLE_GAP_ROLE_PERIPHERAL || CYBLE_GAP_ROLE_BROADCASTER */    
1565:Generated_Source\PSoC4/BLE_eventHandler.c ****             }
1566:Generated_Source\PSoC4/BLE_eventHandler.c ****             else
1567:Generated_Source\PSoC4/BLE_eventHandler.c ****             {
1568:Generated_Source\PSoC4/BLE_eventHandler.c ****             #if (SILICON_GENERATED_DEVICE_ADDRESS != 0u)
1569:Generated_Source\PSoC4/BLE_eventHandler.c ****             {
1570:Generated_Source\PSoC4/BLE_eventHandler.c ****                 uint32 bdAddrLoc;
1571:Generated_Source\PSoC4/BLE_eventHandler.c ****                 bdAddrLoc = (CYBLE_SFLASH_DIE_X_REG & CYBLE_SFLASH_DIE_X_MASK) |
1572:Generated_Source\PSoC4/BLE_eventHandler.c ****                     ((uint32)(((uint32)CYBLE_SFLASH_DIE_Y_REG) & ((uint32)CYBLE_SFLASH_DIE_Y_MASK))
1573:Generated_Source\PSoC4/BLE_eventHandler.c ****                         CYBLE_SFLASH_DIE_X_BITS) |
1574:Generated_Source\PSoC4/BLE_eventHandler.c ****                     ((uint32)(((uint32)CYBLE_SFLASH_DIE_WAFER_REG) & ((uint32)CYBLE_SFLASH_DIE_WAFE
1575:Generated_Source\PSoC4/BLE_eventHandler.c ****                         CYBLE_SFLASH_DIE_XY_BITS) |
1576:Generated_Source\PSoC4/BLE_eventHandler.c ****                     ((uint32)(((uint32)CYBLE_SFLASH_DIE_LOT_REG) & ((uint32)CYBLE_SFLASH_DIE_LOT_MA
1577:Generated_Source\PSoC4/BLE_eventHandler.c ****                         CYBLE_SFLASH_DIE_XYWAFER_BITS);
1578:Generated_Source\PSoC4/BLE_eventHandler.c ****                             
1579:Generated_Source\PSoC4/BLE_eventHandler.c ****                 cyBle_deviceAddress.bdAddr[0] = (uint8)bdAddrLoc;
1580:Generated_Source\PSoC4/BLE_eventHandler.c ****                 cyBle_deviceAddress.bdAddr[1] = (uint8)(bdAddrLoc >> 8u);
1581:Generated_Source\PSoC4/BLE_eventHandler.c ****                 cyBle_deviceAddress.bdAddr[2] = (uint8)(bdAddrLoc >> 16u);
1582:Generated_Source\PSoC4/BLE_eventHandler.c ****             }
1583:Generated_Source\PSoC4/BLE_eventHandler.c ****             #endif /* SILICON_GENERATED_DEVICE_ADDRESS != 0u */
1584:Generated_Source\PSoC4/BLE_eventHandler.c ****                 (void) CyBle_SetDeviceAddress(&cyBle_deviceAddress);
 1011              		.loc 1 1584 0
 1012 0080 A74B     		ldr	r3, .L90+12
 1013 0082 181C     		mov	r0, r3
 1014 0084 FFF7FEFF 		bl	CyBle_SetDeviceAddress
 1015              	.L75:
1585:Generated_Source\PSoC4/BLE_eventHandler.c ****                 #if(CYBLE_GAP_ROLE_PERIPHERAL || CYBLE_GAP_ROLE_BROADCASTER)
1586:Generated_Source\PSoC4/BLE_eventHandler.c ****                     CyBle_ChangeAdDeviceAddress(&cyBle_deviceAddress, 0u);
1587:Generated_Source\PSoC4/BLE_eventHandler.c ****                     CyBle_ChangeAdDeviceAddress(&cyBle_deviceAddress, 1u);
1588:Generated_Source\PSoC4/BLE_eventHandler.c ****                 #endif /* CYBLE_GAP_ROLE_PERIPHERAL || CYBLE_GAP_ROLE_BROADCASTER */    
1589:Generated_Source\PSoC4/BLE_eventHandler.c ****             }
1590:Generated_Source\PSoC4/BLE_eventHandler.c ****             /* Set device IO Capability  */
ARM GAS  C:\Users\ANDREW~1\AppData\Local\Temp\ccKT4bII.s 			page 47


1591:Generated_Source\PSoC4/BLE_eventHandler.c ****             (void) CyBle_GapSetIoCap(CYBLE_IO_CAPABILITY);    
 1016              		.loc 1 1591 0
 1017 0088 0320     		mov	r0, #3
 1018 008a FFF7FEFF 		bl	CyBle_GapSetIoCap
 1019              	.LBB5:
1592:Generated_Source\PSoC4/BLE_eventHandler.c ****             {
1593:Generated_Source\PSoC4/BLE_eventHandler.c ****                 /* Enable all 4.1 events and configured 4.2 events */
1594:Generated_Source\PSoC4/BLE_eventHandler.c ****                 uint8 leMask[CYBLE_LE_MASK_LENGTH] = {LO8(CYBLE_LE_MASK), HI8(CYBLE_LE_MASK)};
 1020              		.loc 1 1594 0
 1021 008e 0823     		mov	r3, #8
 1022 0090 FB18     		add	r3, r7, r3
 1023 0092 3F22     		mov	r2, #63
 1024 0094 1A70     		strb	r2, [r3]
 1025 0096 0823     		mov	r3, #8
 1026 0098 FB18     		add	r3, r7, r3
 1027 009a 0022     		mov	r2, #0
 1028 009c 5A70     		strb	r2, [r3, #1]
1595:Generated_Source\PSoC4/BLE_eventHandler.c ****                 (void) CyBle_GapSetLeEventMask(leMask);
 1029              		.loc 1 1595 0
 1030 009e 0823     		mov	r3, #8
 1031 00a0 FB18     		add	r3, r7, r3
 1032 00a2 181C     		mov	r0, r3
 1033 00a4 FFF7FEFF 		bl	CyBle_GapSetLeEventMask
 1034              	.LBE5:
1596:Generated_Source\PSoC4/BLE_eventHandler.c ****             }
1597:Generated_Source\PSoC4/BLE_eventHandler.c ****         #if(CYBLE_DLE_FEATURE_ENABLED)
1598:Generated_Source\PSoC4/BLE_eventHandler.c ****         {
1599:Generated_Source\PSoC4/BLE_eventHandler.c ****             /* Set maximum suggested TX payload size */
1600:Generated_Source\PSoC4/BLE_eventHandler.c ****             uint16 payloadTime = CYBLE_LL_MAX_TX_TIME;
1601:Generated_Source\PSoC4/BLE_eventHandler.c ****             (void) CyBle_GapConvertOctetToTime(CYBLE_GAP_PHY_1MBPS, CYBLE_LL_MAX_TX_PAYLOAD_SIZE, &
1602:Generated_Source\PSoC4/BLE_eventHandler.c ****             (void) CyBle_GapSetSuggestedDataLength(CYBLE_LL_MAX_TX_PAYLOAD_SIZE, payloadTime); 
1603:Generated_Source\PSoC4/BLE_eventHandler.c ****         }
1604:Generated_Source\PSoC4/BLE_eventHandler.c ****         #endif /* CYBLE_DLE_FEATURE != 0u */
1605:Generated_Source\PSoC4/BLE_eventHandler.c ****         
1606:Generated_Source\PSoC4/BLE_eventHandler.c ****         #endif /* CYBLE_GATT_ROLE_SERVER || CYBLE_GATT_ROLE_CLIENT */
1607:Generated_Source\PSoC4/BLE_eventHandler.c ****             CyBle_SetState(CYBLE_STATE_DISCONNECTED);
 1035              		.loc 1 1607 0
 1036 00a8 9E4B     		ldr	r3, .L90+16
 1037 00aa 0522     		mov	r2, #5
 1038 00ac 1A70     		strb	r2, [r3]
1608:Generated_Source\PSoC4/BLE_eventHandler.c ****             break;
 1039              		.loc 1 1608 0
 1040 00ae 17E1     		b	.L76
 1041              	.L48:
1609:Generated_Source\PSoC4/BLE_eventHandler.c ****         case CYBLE_EVT_TIMEOUT:
1610:Generated_Source\PSoC4/BLE_eventHandler.c ****             CyBle_TimeOutEventHandler((CYBLE_TO_REASON_CODE_T *)eventParam);
 1042              		.loc 1 1610 0
 1043 00b0 3B68     		ldr	r3, [r7]
 1044 00b2 181C     		mov	r0, r3
 1045 00b4 FFF7FEFF 		bl	CyBle_TimeOutEventHandler
1611:Generated_Source\PSoC4/BLE_eventHandler.c ****             break;
 1046              		.loc 1 1611 0
 1047 00b8 12E1     		b	.L76
 1048              	.L49:
1612:Generated_Source\PSoC4/BLE_eventHandler.c ****     	case CYBLE_EVT_STACK_BUSY_STATUS:
1613:Generated_Source\PSoC4/BLE_eventHandler.c ****             cyBle_busyStatus = *(uint8 *)eventParam;
 1049              		.loc 1 1613 0
ARM GAS  C:\Users\ANDREW~1\AppData\Local\Temp\ccKT4bII.s 			page 48


 1050 00ba 3B68     		ldr	r3, [r7]
 1051 00bc 1A78     		ldrb	r2, [r3]
 1052 00be 9A4B     		ldr	r3, .L90+20
 1053 00c0 1A70     		strb	r2, [r3]
1614:Generated_Source\PSoC4/BLE_eventHandler.c ****             break;
 1054              		.loc 1 1614 0
 1055 00c2 0DE1     		b	.L76
 1056              	.L50:
 1057              	.LBB6:
1615:Generated_Source\PSoC4/BLE_eventHandler.c ****     	case CYBLE_EVT_MEMORY_REQUEST:
1616:Generated_Source\PSoC4/BLE_eventHandler.c ****         #if(CYBLE_MODE_PROFILE)
1617:Generated_Source\PSoC4/BLE_eventHandler.c ****         {
1618:Generated_Source\PSoC4/BLE_eventHandler.c ****             CYBLE_MEMORY_REQUEST_T *memReq = (CYBLE_MEMORY_REQUEST_T *)eventParam;
 1058              		.loc 1 1618 0
 1059 00c4 3B68     		ldr	r3, [r7]
 1060 00c6 3B61     		str	r3, [r7, #16]
1619:Generated_Source\PSoC4/BLE_eventHandler.c ****             if(memReq->request == CYBLE_PREPARED_WRITE_REQUEST)
 1061              		.loc 1 1619 0
 1062 00c8 3B69     		ldr	r3, [r7, #16]
 1063 00ca 1B78     		ldrb	r3, [r3]
 1064 00cc 002B     		cmp	r3, #0
 1065 00ce 18D1     		bne	.L77
1620:Generated_Source\PSoC4/BLE_eventHandler.c ****             {  
1621:Generated_Source\PSoC4/BLE_eventHandler.c ****             #if(CYBLE_GATT_ENABLE_EXTERNAL_PREP_WRITE_BUFF == 0u)
1622:Generated_Source\PSoC4/BLE_eventHandler.c ****                 /* Stack requests to provide memory to process remote request */
1623:Generated_Source\PSoC4/BLE_eventHandler.c ****                 if(memReq->allocFree == CYBLE_ALLOC_MEMORY)
 1066              		.loc 1 1623 0
 1067 00d0 3B69     		ldr	r3, [r7, #16]
 1068 00d2 5B78     		ldrb	r3, [r3, #1]
 1069 00d4 002B     		cmp	r3, #0
 1070 00d6 0BD1     		bne	.L78
 1071              	.LBB7:
1624:Generated_Source\PSoC4/BLE_eventHandler.c ****                 {
1625:Generated_Source\PSoC4/BLE_eventHandler.c ****                     static CYBLE_PREPARE_WRITE_REQUEST_MEMORY_T gPrepWriteReqMem;
1626:Generated_Source\PSoC4/BLE_eventHandler.c ****                     
1627:Generated_Source\PSoC4/BLE_eventHandler.c ****                     /* Configure and return statically allocated buffer at the end of cyBle_stackMe
1628:Generated_Source\PSoC4/BLE_eventHandler.c ****                     gPrepWriteReqMem.prepareWriteQueueSize = CYBLE_GATT_MAX_PREPARE_BUFF_COUNT;
 1072              		.loc 1 1628 0
 1073 00d8 944B     		ldr	r3, .L90+24
 1074 00da 0022     		mov	r2, #0
 1075 00dc DA80     		strh	r2, [r3, #6]
1629:Generated_Source\PSoC4/BLE_eventHandler.c ****                     gPrepWriteReqMem.totalAttrValueLength = CYBLE_GATT_PREPARE_LENGTH_ALIGN;
 1076              		.loc 1 1629 0
 1077 00de 934B     		ldr	r3, .L90+24
 1078 00e0 0022     		mov	r2, #0
 1079 00e2 9A80     		strh	r2, [r3, #4]
1630:Generated_Source\PSoC4/BLE_eventHandler.c ****                     gPrepWriteReqMem.queueBuffer = &cyBle_stackMemoryRam[CYBLE_STACK_RAM_SIZE - 
 1080              		.loc 1 1630 0
 1081 00e4 914B     		ldr	r3, .L90+24
 1082 00e6 924A     		ldr	r2, .L90+28
 1083 00e8 1A60     		str	r2, [r3]
1631:Generated_Source\PSoC4/BLE_eventHandler.c ****                                                                          CYBLE_GATT_PREPARE_WRITE_B
1632:Generated_Source\PSoC4/BLE_eventHandler.c ****                     memReq->configMemory = &gPrepWriteReqMem;  
 1084              		.loc 1 1632 0
 1085 00ea 3B69     		ldr	r3, [r7, #16]
 1086 00ec 8F4A     		ldr	r2, .L90+24
 1087 00ee 5A60     		str	r2, [r3, #4]
ARM GAS  C:\Users\ANDREW~1\AppData\Local\Temp\ccKT4bII.s 			page 49


 1088              	.L78:
 1089              	.LBE7:
1633:Generated_Source\PSoC4/BLE_eventHandler.c ****                 }                
1634:Generated_Source\PSoC4/BLE_eventHandler.c ****                 /* Clear CYBLE_CALLBACK flag not to provide handled event to application */
1635:Generated_Source\PSoC4/BLE_eventHandler.c ****                 cyBle_eventHandlerFlag &= (uint8)~CYBLE_CALLBACK;
 1090              		.loc 1 1635 0
 1091 00f0 884B     		ldr	r3, .L90
 1092 00f2 1B78     		ldrb	r3, [r3]
 1093 00f4 DBB2     		uxtb	r3, r3
 1094 00f6 0122     		mov	r2, #1
 1095 00f8 9343     		bic	r3, r2
 1096 00fa DAB2     		uxtb	r2, r3
 1097 00fc 854B     		ldr	r3, .L90
 1098 00fe 1A70     		strb	r2, [r3]
 1099              	.LBE6:
1636:Generated_Source\PSoC4/BLE_eventHandler.c ****             #endif  /* CYBLE_GATT_ENABLE_EXTERNAL_PREP_WRITE_BUFF == 0u */
1637:Generated_Source\PSoC4/BLE_eventHandler.c ****             }
1638:Generated_Source\PSoC4/BLE_eventHandler.c ****         }
1639:Generated_Source\PSoC4/BLE_eventHandler.c ****         #endif /* CYBLE_MODE_PROFILE */
1640:Generated_Source\PSoC4/BLE_eventHandler.c ****             break;
 1100              		.loc 1 1640 0
 1101 0100 EEE0     		b	.L76
 1102              	.L77:
 1103 0102 EDE0     		b	.L76
 1104              	.L52:
1641:Generated_Source\PSoC4/BLE_eventHandler.c ****         /**********************************************************
1642:Generated_Source\PSoC4/BLE_eventHandler.c ****         * GAP events
1643:Generated_Source\PSoC4/BLE_eventHandler.c ****         ************************************************************/
1644:Generated_Source\PSoC4/BLE_eventHandler.c ****         case CYBLE_EVT_GAP_AUTH_REQ:
1645:Generated_Source\PSoC4/BLE_eventHandler.c ****         #if(CYBLE_MODE_PROFILE)
1646:Generated_Source\PSoC4/BLE_eventHandler.c ****             if((cyBle_eventHandlerFlag & CYBLE_DISABLE_AUTOMATIC_AUTH) == 0u)
 1105              		.loc 1 1646 0
 1106 0104 834B     		ldr	r3, .L90
 1107 0106 1B78     		ldrb	r3, [r3]
 1108 0108 DBB2     		uxtb	r3, r3
 1109 010a 1A1C     		mov	r2, r3
 1110 010c 2023     		mov	r3, #32
 1111 010e 1340     		and	r3, r2
 1112 0110 0ED1     		bne	.L79
1647:Generated_Source\PSoC4/BLE_eventHandler.c ****             {
1648:Generated_Source\PSoC4/BLE_eventHandler.c ****                 /* If the responding device does not support pairing then the responding 
1649:Generated_Source\PSoC4/BLE_eventHandler.c ****                    device shall respond using the Pairing Failed message with the error 
1650:Generated_Source\PSoC4/BLE_eventHandler.c ****                    code "Pairing Not Supported" otherwise it responds with a Pairing 
1651:Generated_Source\PSoC4/BLE_eventHandler.c ****                    Response message.
1652:Generated_Source\PSoC4/BLE_eventHandler.c ****                 */
1653:Generated_Source\PSoC4/BLE_eventHandler.c ****                 if(cyBle_authInfo.security == (CYBLE_GAP_SEC_MODE_1 | CYBLE_GAP_SEC_LEVEL_1))
 1113              		.loc 1 1653 0
 1114 0112 884B     		ldr	r3, .L90+32
 1115 0114 1B78     		ldrb	r3, [r3]
 1116 0116 102B     		cmp	r3, #16
 1117 0118 02D1     		bne	.L80
1654:Generated_Source\PSoC4/BLE_eventHandler.c ****                 {
1655:Generated_Source\PSoC4/BLE_eventHandler.c ****                     cyBle_authInfo.authErr = CYBLE_GAP_AUTH_ERROR_PAIRING_NOT_SUPPORTED;
 1118              		.loc 1 1655 0
 1119 011a 864B     		ldr	r3, .L90+32
 1120 011c 0522     		mov	r2, #5
 1121 011e DA70     		strb	r2, [r3, #3]
ARM GAS  C:\Users\ANDREW~1\AppData\Local\Temp\ccKT4bII.s 			page 50


 1122              	.L80:
1656:Generated_Source\PSoC4/BLE_eventHandler.c ****                 }    
1657:Generated_Source\PSoC4/BLE_eventHandler.c ****             #if(CYBLE_GAP_ROLE_PERIPHERAL)
1658:Generated_Source\PSoC4/BLE_eventHandler.c ****                 {
1659:Generated_Source\PSoC4/BLE_eventHandler.c ****                     CYBLE_API_RESULT_T apiResult;
1660:Generated_Source\PSoC4/BLE_eventHandler.c ****                     
1661:Generated_Source\PSoC4/BLE_eventHandler.c ****                     apiResult = CyBle_GappAuthReqReply(cyBle_connHandle.bdHandle, &cyBle_authInfo);
1662:Generated_Source\PSoC4/BLE_eventHandler.c ****                     /* Setting callback flag again as CyBle_GappAuthReqReply() will generate
1663:Generated_Source\PSoC4/BLE_eventHandler.c ****                     * CYBLE_EVT_GAP_SMP_NEGOTIATED_AUTH_INFO event which will clear the callback
1664:Generated_Source\PSoC4/BLE_eventHandler.c ****                     * flag.
1665:Generated_Source\PSoC4/BLE_eventHandler.c ****                     */
1666:Generated_Source\PSoC4/BLE_eventHandler.c ****                     if (apiResult != CYBLE_ERROR_OK)
1667:Generated_Source\PSoC4/BLE_eventHandler.c ****                     {   
1668:Generated_Source\PSoC4/BLE_eventHandler.c ****                         CyBle_ApplCallback(CYBLE_EVT_GAP_AUTH_REQ_REPLY_ERR , &apiResult);
1669:Generated_Source\PSoC4/BLE_eventHandler.c ****                     }
1670:Generated_Source\PSoC4/BLE_eventHandler.c ****                     cyBle_eventHandlerFlag |= CYBLE_CALLBACK;
1671:Generated_Source\PSoC4/BLE_eventHandler.c ****                 }
1672:Generated_Source\PSoC4/BLE_eventHandler.c ****             #endif /* CYBLE_GAP_ROLE_PERIPHERAL */
1673:Generated_Source\PSoC4/BLE_eventHandler.c ****             #if (CYBLE_GAP_ROLE_CENTRAL)
1674:Generated_Source\PSoC4/BLE_eventHandler.c ****                 (void)CyBle_GapAuthReq(cyBle_connHandle.bdHandle, &cyBle_authInfo);
 1123              		.loc 1 1674 0
 1124 0120 854B     		ldr	r3, .L90+36
 1125 0122 1A78     		ldrb	r2, [r3]
 1126 0124 834B     		ldr	r3, .L90+32
 1127 0126 101C     		mov	r0, r2
 1128 0128 191C     		mov	r1, r3
 1129 012a FFF7FEFF 		bl	CyBle_GapAuthReq
1675:Generated_Source\PSoC4/BLE_eventHandler.c ****             #endif /* CYBLE_GAP_ROLE_CENTRAL */
1676:Generated_Source\PSoC4/BLE_eventHandler.c ****             }
1677:Generated_Source\PSoC4/BLE_eventHandler.c ****         #endif /* CYBLE_MODE_PROFILE */
1678:Generated_Source\PSoC4/BLE_eventHandler.c ****             break;
 1130              		.loc 1 1678 0
 1131 012e D7E0     		b	.L76
 1132              	.L79:
 1133 0130 D6E0     		b	.L76
 1134              	.L56:
1679:Generated_Source\PSoC4/BLE_eventHandler.c ****         
1680:Generated_Source\PSoC4/BLE_eventHandler.c ****         case CYBLE_EVT_GAP_AUTH_COMPLETE:
1681:Generated_Source\PSoC4/BLE_eventHandler.c ****         #if((CYBLE_GAP_ROLE_PERIPHERAL || CYBLE_GAP_ROLE_CENTRAL) && (CYBLE_BONDING_REQUIREMENT == 
1682:Generated_Source\PSoC4/BLE_eventHandler.c ****             cyBle_peerBonding = ((CYBLE_GAP_AUTH_INFO_T *)eventParam)->bonding;
1683:Generated_Source\PSoC4/BLE_eventHandler.c ****         #endif  /* CYBLE_BONDING_REQUIREMENT == CYBLE_BONDING_YES */
1684:Generated_Source\PSoC4/BLE_eventHandler.c ****             break;
1685:Generated_Source\PSoC4/BLE_eventHandler.c ****         
1686:Generated_Source\PSoC4/BLE_eventHandler.c ****         case CYBLE_EVT_GAP_CONNECTION_UPDATE_COMPLETE:
1687:Generated_Source\PSoC4/BLE_eventHandler.c ****             CyBle_GapConnUpdateCompleteEventHandler((const CYBLE_GAP_CONN_PARAM_UPDATED_IN_CONTROLL
 1135              		.loc 1 1687 0
 1136 0132 3B68     		ldr	r3, [r7]
 1137 0134 181C     		mov	r0, r3
 1138 0136 FFF7FEFF 		bl	CyBle_GapConnUpdateCompleteEventHandler
1688:Generated_Source\PSoC4/BLE_eventHandler.c ****             break;
 1139              		.loc 1 1688 0
 1140 013a D1E0     		b	.L76
 1141              	.L54:
1689:Generated_Source\PSoC4/BLE_eventHandler.c ****             
1690:Generated_Source\PSoC4/BLE_eventHandler.c ****     #if(CYBLE_LL_PRIVACY_FEATURE != 0u)        
1691:Generated_Source\PSoC4/BLE_eventHandler.c ****         case CYBLE_EVT_GAP_ENHANCE_CONN_COMPLETE:
1692:Generated_Source\PSoC4/BLE_eventHandler.c ****         {
ARM GAS  C:\Users\ANDREW~1\AppData\Local\Temp\ccKT4bII.s 			page 51


1693:Generated_Source\PSoC4/BLE_eventHandler.c ****             CYBLE_GAP_CONN_PARAM_UPDATED_IN_CONTROLLER_T  connCParam;
1694:Generated_Source\PSoC4/BLE_eventHandler.c ****             CYBLE_GAP_ENHANCE_CONN_COMPLETE_T *connEnhanceParam;
1695:Generated_Source\PSoC4/BLE_eventHandler.c ****             
1696:Generated_Source\PSoC4/BLE_eventHandler.c ****             connEnhanceParam = (CYBLE_GAP_ENHANCE_CONN_COMPLETE_T *)eventParam;
1697:Generated_Source\PSoC4/BLE_eventHandler.c ****             connCParam.status = connEnhanceParam->status;
1698:Generated_Source\PSoC4/BLE_eventHandler.c ****             connCParam.connIntv = connEnhanceParam->connIntv;
1699:Generated_Source\PSoC4/BLE_eventHandler.c ****             connCParam.connLatency = connEnhanceParam->connLatency;
1700:Generated_Source\PSoC4/BLE_eventHandler.c ****             connCParam.supervisionTO = connEnhanceParam->supervisionTo;
1701:Generated_Source\PSoC4/BLE_eventHandler.c ****             CyBle_GapConnUpdateCompleteEventHandler((const CYBLE_GAP_CONN_PARAM_UPDATED_IN_CONTROLL
1702:Generated_Source\PSoC4/BLE_eventHandler.c ****             
1703:Generated_Source\PSoC4/BLE_eventHandler.c ****             #if(CYBLE_GAP_ROLE_CENTRAL)
1704:Generated_Source\PSoC4/BLE_eventHandler.c ****                 if(cyBle_connectingTimeout != 0u)
1705:Generated_Source\PSoC4/BLE_eventHandler.c ****                 {
1706:Generated_Source\PSoC4/BLE_eventHandler.c ****                    (void)CyBle_StopTimer();
1707:Generated_Source\PSoC4/BLE_eventHandler.c ****                 }
1708:Generated_Source\PSoC4/BLE_eventHandler.c ****             #endif /* CYBLE_GAP_ROLE_CENTRAL */
1709:Generated_Source\PSoC4/BLE_eventHandler.c ****             CyBle_SetState(CYBLE_STATE_CONNECTED);
1710:Generated_Source\PSoC4/BLE_eventHandler.c ****         }
1711:Generated_Source\PSoC4/BLE_eventHandler.c ****             break;
1712:Generated_Source\PSoC4/BLE_eventHandler.c ****     #endif /* CYBLE_LL_PRIVACY_FEATURE != 0u */      
1713:Generated_Source\PSoC4/BLE_eventHandler.c ****             
1714:Generated_Source\PSoC4/BLE_eventHandler.c ****         case CYBLE_EVT_GAP_DEVICE_CONNECTED:
1715:Generated_Source\PSoC4/BLE_eventHandler.c ****             CyBle_GapConnUpdateCompleteEventHandler((const CYBLE_GAP_CONN_PARAM_UPDATED_IN_CONTROLL
 1142              		.loc 1 1715 0
 1143 013c 3B68     		ldr	r3, [r7]
 1144 013e 181C     		mov	r0, r3
 1145 0140 FFF7FEFF 		bl	CyBle_GapConnUpdateCompleteEventHandler
1716:Generated_Source\PSoC4/BLE_eventHandler.c ****             #if(CYBLE_GAP_ROLE_CENTRAL)
1717:Generated_Source\PSoC4/BLE_eventHandler.c ****                 if(cyBle_connectingTimeout != 0u)
 1146              		.loc 1 1717 0
 1147 0144 7D4B     		ldr	r3, .L90+40
 1148 0146 1B88     		ldrh	r3, [r3]
 1149 0148 002B     		cmp	r3, #0
 1150 014a 01D0     		beq	.L81
1718:Generated_Source\PSoC4/BLE_eventHandler.c ****                 {
1719:Generated_Source\PSoC4/BLE_eventHandler.c ****                    (void)CyBle_StopTimer();
 1151              		.loc 1 1719 0
 1152 014c FFF7FEFF 		bl	CyBle_StopTimer
 1153              	.L81:
1720:Generated_Source\PSoC4/BLE_eventHandler.c ****                 }
1721:Generated_Source\PSoC4/BLE_eventHandler.c ****             #endif /* CYBLE_GAP_ROLE_CENTRAL */
1722:Generated_Source\PSoC4/BLE_eventHandler.c ****             CyBle_SetState(CYBLE_STATE_CONNECTED);
 1154              		.loc 1 1722 0
 1155 0150 744B     		ldr	r3, .L90+16
 1156 0152 0222     		mov	r2, #2
 1157 0154 1A70     		strb	r2, [r3]
1723:Generated_Source\PSoC4/BLE_eventHandler.c ****             break;
 1158              		.loc 1 1723 0
 1159 0156 C3E0     		b	.L76
 1160              	.L55:
1724:Generated_Source\PSoC4/BLE_eventHandler.c **** 
1725:Generated_Source\PSoC4/BLE_eventHandler.c ****         case CYBLE_EVT_GAP_DEVICE_DISCONNECTED:
1726:Generated_Source\PSoC4/BLE_eventHandler.c ****             CyBle_SetState(CYBLE_STATE_DISCONNECTED);
 1161              		.loc 1 1726 0
 1162 0158 724B     		ldr	r3, .L90+16
 1163 015a 0522     		mov	r2, #5
 1164 015c 1A70     		strb	r2, [r3]
ARM GAS  C:\Users\ANDREW~1\AppData\Local\Temp\ccKT4bII.s 			page 52


1727:Generated_Source\PSoC4/BLE_eventHandler.c ****             break;
 1165              		.loc 1 1727 0
 1166 015e BFE0     		b	.L76
 1167              	.L57:
1728:Generated_Source\PSoC4/BLE_eventHandler.c ****         #if(CYBLE_GAP_ROLE_PERIPHERAL || CYBLE_GAP_ROLE_BROADCASTER)
1729:Generated_Source\PSoC4/BLE_eventHandler.c ****             
1730:Generated_Source\PSoC4/BLE_eventHandler.c ****         case CYBLE_EVT_GAPP_ADVERTISEMENT_START_STOP:
1731:Generated_Source\PSoC4/BLE_eventHandler.c ****             #ifdef CYBLE_CPS_SERVER
1732:Generated_Source\PSoC4/BLE_eventHandler.c ****                 #if(CYBLE_GAP_ROLE_BROADCASTER)
1733:Generated_Source\PSoC4/BLE_eventHandler.c ****                     CyBle_CpssAdvertisementStartStopEventHandler();
1734:Generated_Source\PSoC4/BLE_eventHandler.c ****                 #endif /* CYBLE_GAP_ROLE_BROADCASTER */
1735:Generated_Source\PSoC4/BLE_eventHandler.c ****             #endif /* CYBLE_CPS_SERVER */
1736:Generated_Source\PSoC4/BLE_eventHandler.c ****             
1737:Generated_Source\PSoC4/BLE_eventHandler.c ****             if((CYBLE_STATE_CONNECTED != CyBle_GetState()) && ((cyBle_eventHandlerFlag & CYBLE_CALL
1738:Generated_Source\PSoC4/BLE_eventHandler.c ****             {
1739:Generated_Source\PSoC4/BLE_eventHandler.c ****                 /* After CyBle_GappStartAdvertisement first event indicates that advertising has be
1740:Generated_Source\PSoC4/BLE_eventHandler.c ****                 if(0u != (cyBle_eventHandlerFlag & CYBLE_START_FLAG))
1741:Generated_Source\PSoC4/BLE_eventHandler.c ****                 {
1742:Generated_Source\PSoC4/BLE_eventHandler.c ****                     CyBle_SetState(CYBLE_STATE_ADVERTISING);
1743:Generated_Source\PSoC4/BLE_eventHandler.c ****                     cyBle_eventHandlerFlag &= (uint8)~CYBLE_START_FLAG;
1744:Generated_Source\PSoC4/BLE_eventHandler.c ****                 }
1745:Generated_Source\PSoC4/BLE_eventHandler.c ****                 /* When application initiated stop advertisement */
1746:Generated_Source\PSoC4/BLE_eventHandler.c ****                 else if(0u != (cyBle_eventHandlerFlag & CYBLE_STOP_FLAG))
1747:Generated_Source\PSoC4/BLE_eventHandler.c ****                 {
1748:Generated_Source\PSoC4/BLE_eventHandler.c ****                     CyBle_SetState(CYBLE_STATE_DISCONNECTED);  
1749:Generated_Source\PSoC4/BLE_eventHandler.c ****                     cyBle_eventHandlerFlag &= (uint8)~CYBLE_STOP_FLAG;
1750:Generated_Source\PSoC4/BLE_eventHandler.c ****                 }
1751:Generated_Source\PSoC4/BLE_eventHandler.c ****                 else /* Following event indicates that advertising has been stopped */
1752:Generated_Source\PSoC4/BLE_eventHandler.c ****                 {
1753:Generated_Source\PSoC4/BLE_eventHandler.c ****                     if(CyBle_GetState() == CYBLE_STATE_ADVERTISING)
1754:Generated_Source\PSoC4/BLE_eventHandler.c ****                     {
1755:Generated_Source\PSoC4/BLE_eventHandler.c ****                         CyBle_SetState(CYBLE_STATE_DISCONNECTED);
1756:Generated_Source\PSoC4/BLE_eventHandler.c ****                     #if ((CYBLE_SLOW_ADV_ENABLED != 0u) && (CYBLE_FAST_ADV_TIMEOUT != 0u))
1757:Generated_Source\PSoC4/BLE_eventHandler.c ****                         if(cyBle_advertisingIntervalType == CYBLE_ADVERTISING_FAST)
1758:Generated_Source\PSoC4/BLE_eventHandler.c ****                         {
1759:Generated_Source\PSoC4/BLE_eventHandler.c ****                             /* When fast advertising time out occur: Start slow advertising */
1760:Generated_Source\PSoC4/BLE_eventHandler.c ****                             if(CyBle_GappStartAdvertisement(CYBLE_ADVERTISING_SLOW) == CYBLE_ERROR_
1761:Generated_Source\PSoC4/BLE_eventHandler.c ****                             {
1762:Generated_Source\PSoC4/BLE_eventHandler.c ****                                 CyBle_SetState(CYBLE_STATE_ADVERTISING);
1763:Generated_Source\PSoC4/BLE_eventHandler.c ****                             }
1764:Generated_Source\PSoC4/BLE_eventHandler.c ****                         }
1765:Generated_Source\PSoC4/BLE_eventHandler.c ****                     #endif /* CYBLE_SLOW_ADV_ENABLED */
1766:Generated_Source\PSoC4/BLE_eventHandler.c ****                     }
1767:Generated_Source\PSoC4/BLE_eventHandler.c ****                 }
1768:Generated_Source\PSoC4/BLE_eventHandler.c ****             }
1769:Generated_Source\PSoC4/BLE_eventHandler.c ****             break;
1770:Generated_Source\PSoC4/BLE_eventHandler.c ****         #endif /* CYBLE_GAP_ROLE_PERIPHERAL || CYBLE_GAP_ROLE_BROADCASTER */
1771:Generated_Source\PSoC4/BLE_eventHandler.c ****         
1772:Generated_Source\PSoC4/BLE_eventHandler.c ****         #if(CYBLE_GAP_ROLE_CENTRAL || CYBLE_GAP_ROLE_OBSERVER)    
1773:Generated_Source\PSoC4/BLE_eventHandler.c ****         case CYBLE_EVT_GAPC_SCAN_START_STOP:
1774:Generated_Source\PSoC4/BLE_eventHandler.c ****             #ifdef CYBLE_CPS_CLIENT
1775:Generated_Source\PSoC4/BLE_eventHandler.c ****                 CyBle_CpscScanStartStopEventHandler();
1776:Generated_Source\PSoC4/BLE_eventHandler.c ****             #endif /* CYBLE_CPS_CLIENT */
1777:Generated_Source\PSoC4/BLE_eventHandler.c ****             
1778:Generated_Source\PSoC4/BLE_eventHandler.c ****             if((CYBLE_STATE_CONNECTED != CyBle_GetState()) && ((cyBle_eventHandlerFlag & CYBLE_CALL
 1168              		.loc 1 1778 0
 1169 0160 704B     		ldr	r3, .L90+16
ARM GAS  C:\Users\ANDREW~1\AppData\Local\Temp\ccKT4bII.s 			page 53


 1170 0162 1B78     		ldrb	r3, [r3]
 1171 0164 022B     		cmp	r3, #2
 1172 0166 40D0     		beq	.L82
 1173              		.loc 1 1778 0 is_stmt 0 discriminator 1
 1174 0168 6A4B     		ldr	r3, .L90
 1175 016a 1B78     		ldrb	r3, [r3]
 1176 016c DBB2     		uxtb	r3, r3
 1177 016e 1A1C     		mov	r2, r3
 1178 0170 0123     		mov	r3, #1
 1179 0172 1340     		and	r3, r2
 1180 0174 39D0     		beq	.L82
1779:Generated_Source\PSoC4/BLE_eventHandler.c ****             {
1780:Generated_Source\PSoC4/BLE_eventHandler.c ****                 /* After CyBle_GapcStartScan first event indicates that scanning has been started *
1781:Generated_Source\PSoC4/BLE_eventHandler.c ****                 if(0u != (cyBle_eventHandlerFlag & CYBLE_START_FLAG))
 1181              		.loc 1 1781 0 is_stmt 1
 1182 0176 674B     		ldr	r3, .L90
 1183 0178 1B78     		ldrb	r3, [r3]
 1184 017a DBB2     		uxtb	r3, r3
 1185 017c 1A1C     		mov	r2, r3
 1186 017e 0423     		mov	r3, #4
 1187 0180 1340     		and	r3, r2
 1188 0182 0BD0     		beq	.L83
1782:Generated_Source\PSoC4/BLE_eventHandler.c ****                 {
1783:Generated_Source\PSoC4/BLE_eventHandler.c ****                     CyBle_SetState(CYBLE_STATE_SCANNING);
 1189              		.loc 1 1783 0
 1190 0184 674B     		ldr	r3, .L90+16
 1191 0186 0322     		mov	r2, #3
 1192 0188 1A70     		strb	r2, [r3]
1784:Generated_Source\PSoC4/BLE_eventHandler.c ****                     cyBle_eventHandlerFlag &= (uint8)~CYBLE_START_FLAG;
 1193              		.loc 1 1784 0
 1194 018a 624B     		ldr	r3, .L90
 1195 018c 1B78     		ldrb	r3, [r3]
 1196 018e DBB2     		uxtb	r3, r3
 1197 0190 0422     		mov	r2, #4
 1198 0192 9343     		bic	r3, r2
 1199 0194 DAB2     		uxtb	r2, r3
 1200 0196 5F4B     		ldr	r3, .L90
 1201 0198 1A70     		strb	r2, [r3]
 1202 019a 26E0     		b	.L82
 1203              	.L83:
1785:Generated_Source\PSoC4/BLE_eventHandler.c ****                 }
1786:Generated_Source\PSoC4/BLE_eventHandler.c ****                 /* When application initiated stop scanning */
1787:Generated_Source\PSoC4/BLE_eventHandler.c ****                 else if(0u != (cyBle_eventHandlerFlag & CYBLE_STOP_FLAG))
 1204              		.loc 1 1787 0
 1205 019c 5D4B     		ldr	r3, .L90
 1206 019e 1B78     		ldrb	r3, [r3]
 1207 01a0 DBB2     		uxtb	r3, r3
 1208 01a2 1A1C     		mov	r2, r3
 1209 01a4 0823     		mov	r3, #8
 1210 01a6 1340     		and	r3, r2
 1211 01a8 0BD0     		beq	.L84
1788:Generated_Source\PSoC4/BLE_eventHandler.c ****                 {
1789:Generated_Source\PSoC4/BLE_eventHandler.c ****                     CyBle_SetState(CYBLE_STATE_DISCONNECTED);  
 1212              		.loc 1 1789 0
 1213 01aa 5E4B     		ldr	r3, .L90+16
 1214 01ac 0522     		mov	r2, #5
 1215 01ae 1A70     		strb	r2, [r3]
ARM GAS  C:\Users\ANDREW~1\AppData\Local\Temp\ccKT4bII.s 			page 54


1790:Generated_Source\PSoC4/BLE_eventHandler.c ****                     cyBle_eventHandlerFlag &= (uint8)~CYBLE_STOP_FLAG;
 1216              		.loc 1 1790 0
 1217 01b0 584B     		ldr	r3, .L90
 1218 01b2 1B78     		ldrb	r3, [r3]
 1219 01b4 DBB2     		uxtb	r3, r3
 1220 01b6 0822     		mov	r2, #8
 1221 01b8 9343     		bic	r3, r2
 1222 01ba DAB2     		uxtb	r2, r3
 1223 01bc 554B     		ldr	r3, .L90
 1224 01be 1A70     		strb	r2, [r3]
 1225 01c0 13E0     		b	.L82
 1226              	.L84:
1791:Generated_Source\PSoC4/BLE_eventHandler.c ****                 }
1792:Generated_Source\PSoC4/BLE_eventHandler.c ****                 else /* Following event indicates that scanning has been stopped by stack */
1793:Generated_Source\PSoC4/BLE_eventHandler.c ****                 {
1794:Generated_Source\PSoC4/BLE_eventHandler.c ****                     if(CyBle_GetState() == CYBLE_STATE_SCANNING)
 1227              		.loc 1 1794 0
 1228 01c2 584B     		ldr	r3, .L90+16
 1229 01c4 1B78     		ldrb	r3, [r3]
 1230 01c6 032B     		cmp	r3, #3
 1231 01c8 0FD1     		bne	.L82
1795:Generated_Source\PSoC4/BLE_eventHandler.c ****                     {
1796:Generated_Source\PSoC4/BLE_eventHandler.c ****                         CyBle_SetState(CYBLE_STATE_DISCONNECTED);  
 1232              		.loc 1 1796 0
 1233 01ca 564B     		ldr	r3, .L90+16
 1234 01cc 0522     		mov	r2, #5
 1235 01ce 1A70     		strb	r2, [r3]
1797:Generated_Source\PSoC4/BLE_eventHandler.c ****                     #if ((CYBLE_SLOW_SCAN_ENABLED != 0u) && (CYBLE_FAST_SCAN_TIMEOUT != 0u))
1798:Generated_Source\PSoC4/BLE_eventHandler.c ****                         if(cyBle_scanningIntervalType == CYBLE_SCANNING_FAST)
 1236              		.loc 1 1798 0
 1237 01d0 5B4B     		ldr	r3, .L90+44
 1238 01d2 1B78     		ldrb	r3, [r3]
 1239 01d4 002B     		cmp	r3, #0
 1240 01d6 08D1     		bne	.L82
1799:Generated_Source\PSoC4/BLE_eventHandler.c ****                         {
1800:Generated_Source\PSoC4/BLE_eventHandler.c ****                             /* When fast scanning time out occur: Start slow scanning */
1801:Generated_Source\PSoC4/BLE_eventHandler.c ****                             if(CyBle_GapcStartScan(CYBLE_SCANNING_SLOW) == CYBLE_ERROR_OK)
 1241              		.loc 1 1801 0
 1242 01d8 0120     		mov	r0, #1
 1243 01da FFF7FEFF 		bl	CyBle_GapcStartScan
 1244 01de 031E     		sub	r3, r0, #0
 1245 01e0 03D1     		bne	.L82
1802:Generated_Source\PSoC4/BLE_eventHandler.c ****                             {
1803:Generated_Source\PSoC4/BLE_eventHandler.c ****                                 CyBle_SetState(CYBLE_STATE_SCANNING);
 1246              		.loc 1 1803 0
 1247 01e2 504B     		ldr	r3, .L90+16
 1248 01e4 0322     		mov	r2, #3
 1249 01e6 1A70     		strb	r2, [r3]
1804:Generated_Source\PSoC4/BLE_eventHandler.c ****                             }
1805:Generated_Source\PSoC4/BLE_eventHandler.c ****                         }
1806:Generated_Source\PSoC4/BLE_eventHandler.c ****                     #endif /* CYBLE_SLOW_SCAN_ENABLED */
1807:Generated_Source\PSoC4/BLE_eventHandler.c ****                     }
1808:Generated_Source\PSoC4/BLE_eventHandler.c ****                 }
1809:Generated_Source\PSoC4/BLE_eventHandler.c ****             }
1810:Generated_Source\PSoC4/BLE_eventHandler.c ****             break;
 1250              		.loc 1 1810 0
 1251 01e8 7AE0     		b	.L76
ARM GAS  C:\Users\ANDREW~1\AppData\Local\Temp\ccKT4bII.s 			page 55


 1252              	.L82:
 1253 01ea 79E0     		b	.L76
 1254              	.L73:
1811:Generated_Source\PSoC4/BLE_eventHandler.c ****         #endif /* CYBLE_GAP_ROLE_CENTRAL || CYBLE_GAP_ROLE_OBSERVER */
1812:Generated_Source\PSoC4/BLE_eventHandler.c **** 
1813:Generated_Source\PSoC4/BLE_eventHandler.c ****         /**********************************************************
1814:Generated_Source\PSoC4/BLE_eventHandler.c ****         * L2AP events 
1815:Generated_Source\PSoC4/BLE_eventHandler.c ****         ************************************************************/
1816:Generated_Source\PSoC4/BLE_eventHandler.c ****         case CYBLE_EVT_L2CAP_CONN_PARAM_UPDATE_RSP:
1817:Generated_Source\PSoC4/BLE_eventHandler.c ****             CyBle_L2Cap_ConnParamUpdateRspEventHandler(*(uint16 *)eventParam);
 1255              		.loc 1 1817 0
 1256 01ec 3B68     		ldr	r3, [r7]
 1257 01ee 1B88     		ldrh	r3, [r3]
 1258 01f0 181C     		mov	r0, r3
 1259 01f2 FFF7FEFF 		bl	CyBle_L2Cap_ConnParamUpdateRspEventHandler
1818:Generated_Source\PSoC4/BLE_eventHandler.c ****             break;
 1260              		.loc 1 1818 0
 1261 01f6 73E0     		b	.L76
 1262              	.L59:
1819:Generated_Source\PSoC4/BLE_eventHandler.c ****         
1820:Generated_Source\PSoC4/BLE_eventHandler.c ****         /**********************************************************
1821:Generated_Source\PSoC4/BLE_eventHandler.c ****         * GATT events
1822:Generated_Source\PSoC4/BLE_eventHandler.c ****         ************************************************************/        
1823:Generated_Source\PSoC4/BLE_eventHandler.c ****         case CYBLE_EVT_GATT_CONNECT_IND:
1824:Generated_Source\PSoC4/BLE_eventHandler.c ****             cyBle_connHandle = *(CYBLE_CONN_HANDLE_T *)eventParam;
 1263              		.loc 1 1824 0
 1264 01f8 4F4A     		ldr	r2, .L90+36
 1265 01fa 3B68     		ldr	r3, [r7]
 1266 01fc 111C     		mov	r1, r2
 1267 01fe 1A1C     		mov	r2, r3
 1268 0200 0223     		mov	r3, #2
 1269 0202 081C     		mov	r0, r1
 1270 0204 111C     		mov	r1, r2
 1271 0206 1A1C     		mov	r2, r3
 1272 0208 FFF7FEFF 		bl	memcpy
1825:Generated_Source\PSoC4/BLE_eventHandler.c ****             cyBle_busyStatus = CYBLE_STACK_STATE_FREE;
 1273              		.loc 1 1825 0
 1274 020c 464B     		ldr	r3, .L90+20
 1275 020e 0022     		mov	r2, #0
 1276 0210 1A70     		strb	r2, [r3]
1826:Generated_Source\PSoC4/BLE_eventHandler.c ****             
1827:Generated_Source\PSoC4/BLE_eventHandler.c ****         #if((CYBLE_GATT_ROLE_SERVER) && (CYBLE_GATT_DB_CCCD_COUNT != 0u) && \
1828:Generated_Source\PSoC4/BLE_eventHandler.c ****             (CYBLE_BONDING_REQUIREMENT == CYBLE_BONDING_YES))
1829:Generated_Source\PSoC4/BLE_eventHandler.c ****             /* Init CCCD values in RAM when bonding is enabled */
1830:Generated_Source\PSoC4/BLE_eventHandler.c ****         	(void) memcpy (cyBle_attValuesCCCD, cyBle_flashStorage.attValuesCCCDFlashMemory[cyBle_conn
1831:Generated_Source\PSoC4/BLE_eventHandler.c ****                             CYBLE_GATT_DB_CCCD_COUNT);
1832:Generated_Source\PSoC4/BLE_eventHandler.c ****         #endif /* CYBLE_GATT_ROLE_SERVER && (CYBLE_BONDING_REQUIREMENT == CYBLE_BONDING_YES) */
1833:Generated_Source\PSoC4/BLE_eventHandler.c ****         
1834:Generated_Source\PSoC4/BLE_eventHandler.c ****         #if (CYBLE_GATT_ROLE_CLIENT)
1835:Generated_Source\PSoC4/BLE_eventHandler.c ****             CyBle_SetClientState(CYBLE_CLIENT_STATE_CONNECTED);
 1277              		.loc 1 1835 0
 1278 0212 4C4B     		ldr	r3, .L90+48
 1279 0214 0022     		mov	r2, #0
 1280 0216 1A70     		strb	r2, [r3]
1836:Generated_Source\PSoC4/BLE_eventHandler.c ****         #endif /* CYBLE_GATT_ROLE_CLIENT */
1837:Generated_Source\PSoC4/BLE_eventHandler.c ****         
1838:Generated_Source\PSoC4/BLE_eventHandler.c ****             CyBle_GattConnectReqHandler();
ARM GAS  C:\Users\ANDREW~1\AppData\Local\Temp\ccKT4bII.s 			page 56


 1281              		.loc 1 1838 0
 1282 0218 FFF7FEFF 		bl	CyBle_GattConnectReqHandler
1839:Generated_Source\PSoC4/BLE_eventHandler.c ****             break;
 1283              		.loc 1 1839 0
 1284 021c 60E0     		b	.L76
 1285              	.L60:
1840:Generated_Source\PSoC4/BLE_eventHandler.c **** 
1841:Generated_Source\PSoC4/BLE_eventHandler.c ****         case CYBLE_EVT_GATT_DISCONNECT_IND:
1842:Generated_Source\PSoC4/BLE_eventHandler.c ****             CyBle_GattDisconnectEventHandler();
 1286              		.loc 1 1842 0
 1287 021e FFF7FEFF 		bl	CyBle_GattDisconnectEventHandler
1843:Generated_Source\PSoC4/BLE_eventHandler.c ****             break;
 1288              		.loc 1 1843 0
 1289 0222 5DE0     		b	.L76
 1290              	.L61:
 1291              	.LBB8:
1844:Generated_Source\PSoC4/BLE_eventHandler.c **** 
1845:Generated_Source\PSoC4/BLE_eventHandler.c ****     #if((CYBLE_GATT_ROLE_SERVER) || (CYBLE_GATT_ROLE_CLIENT))
1846:Generated_Source\PSoC4/BLE_eventHandler.c ****         case CYBLE_EVT_GATTS_XCNHG_MTU_REQ:
1847:Generated_Source\PSoC4/BLE_eventHandler.c ****             {
1848:Generated_Source\PSoC4/BLE_eventHandler.c ****                 uint16 cyBle_mtuSize;
1849:Generated_Source\PSoC4/BLE_eventHandler.c ****                 if(CYBLE_GATT_MTU > ((CYBLE_GATT_XCHG_MTU_PARAM_T *)eventParam)->mtu)
 1292              		.loc 1 1849 0
 1293 0224 3B68     		ldr	r3, [r7]
 1294 0226 5B88     		ldrh	r3, [r3, #2]
 1295 0228 162B     		cmp	r3, #22
 1296 022a 05D8     		bhi	.L85
1850:Generated_Source\PSoC4/BLE_eventHandler.c ****                 {
1851:Generated_Source\PSoC4/BLE_eventHandler.c ****                     cyBle_mtuSize = ((CYBLE_GATT_XCHG_MTU_PARAM_T *)eventParam)->mtu;
 1297              		.loc 1 1851 0
 1298 022c 1623     		mov	r3, #22
 1299 022e FB18     		add	r3, r7, r3
 1300 0230 3A68     		ldr	r2, [r7]
 1301 0232 5288     		ldrh	r2, [r2, #2]
 1302 0234 1A80     		strh	r2, [r3]
 1303 0236 03E0     		b	.L86
 1304              	.L85:
1852:Generated_Source\PSoC4/BLE_eventHandler.c ****                 }
1853:Generated_Source\PSoC4/BLE_eventHandler.c ****                 else
1854:Generated_Source\PSoC4/BLE_eventHandler.c ****                 {
1855:Generated_Source\PSoC4/BLE_eventHandler.c ****                     cyBle_mtuSize = CYBLE_GATT_MTU;
 1305              		.loc 1 1855 0
 1306 0238 1623     		mov	r3, #22
 1307 023a FB18     		add	r3, r7, r3
 1308 023c 1722     		mov	r2, #23
 1309 023e 1A80     		strh	r2, [r3]
 1310              	.L86:
1856:Generated_Source\PSoC4/BLE_eventHandler.c ****                 }
1857:Generated_Source\PSoC4/BLE_eventHandler.c ****                 (void)CyBle_GattsExchangeMtuRsp(((CYBLE_GATT_XCHG_MTU_PARAM_T *)eventParam)->connHa
 1311              		.loc 1 1857 0
 1312 0240 3B68     		ldr	r3, [r7]
 1313 0242 1622     		mov	r2, #22
 1314 0244 BA18     		add	r2, r7, r2
 1315 0246 1188     		ldrh	r1, [r2]
 1316 0248 1A88     		ldrh	r2, [r3]
 1317 024a 0023     		mov	r3, #0
 1318 024c 1204     		lsl	r2, r2, #16
ARM GAS  C:\Users\ANDREW~1\AppData\Local\Temp\ccKT4bII.s 			page 57


 1319 024e 120C     		lsr	r2, r2, #16
 1320 0250 1B0C     		lsr	r3, r3, #16
 1321 0252 1B04     		lsl	r3, r3, #16
 1322 0254 1343     		orr	r3, r2
 1323 0256 181C     		mov	r0, r3
 1324 0258 FFF7FEFF 		bl	CyBle_GattsExchangeMtuRsp
 1325              	.LBE8:
1858:Generated_Source\PSoC4/BLE_eventHandler.c ****             }
1859:Generated_Source\PSoC4/BLE_eventHandler.c ****             break;
 1326              		.loc 1 1859 0
 1327 025c 40E0     		b	.L76
 1328              	.L62:
1860:Generated_Source\PSoC4/BLE_eventHandler.c ****     #endif /* CYBLE_GATT_ROLE_SERVER || CYBLE_GATT_ROLE_CLIENT */
1861:Generated_Source\PSoC4/BLE_eventHandler.c ****     
1862:Generated_Source\PSoC4/BLE_eventHandler.c ****     #if (CYBLE_GATT_ROLE_CLIENT)
1863:Generated_Source\PSoC4/BLE_eventHandler.c ****         case CYBLE_EVT_GAPC_SCAN_PROGRESS_RESULT:
1864:Generated_Source\PSoC4/BLE_eventHandler.c ****         #ifdef CYBLE_CPS_CLIENT
1865:Generated_Source\PSoC4/BLE_eventHandler.c ****             CyBle_CpscScanProcessEventHandler((CYBLE_GAPC_ADV_REPORT_T *)eventParam);
1866:Generated_Source\PSoC4/BLE_eventHandler.c ****         #endif /* CYBLE_CPS_CLIENT */
1867:Generated_Source\PSoC4/BLE_eventHandler.c ****             break;
1868:Generated_Source\PSoC4/BLE_eventHandler.c ****     #endif /* CYBLE_GATT_ROLE_CLIENT */
1869:Generated_Source\PSoC4/BLE_eventHandler.c **** 
1870:Generated_Source\PSoC4/BLE_eventHandler.c ****     #if(CYBLE_GATT_ROLE_SERVER)
1871:Generated_Source\PSoC4/BLE_eventHandler.c ****         case CYBLE_EVT_GATTS_WRITE_REQ:
1872:Generated_Source\PSoC4/BLE_eventHandler.c ****             CyBle_WriteReqHandler((CYBLE_GATTS_WRITE_REQ_PARAM_T *)eventParam);
1873:Generated_Source\PSoC4/BLE_eventHandler.c ****             break;
1874:Generated_Source\PSoC4/BLE_eventHandler.c **** 
1875:Generated_Source\PSoC4/BLE_eventHandler.c ****         case CYBLE_EVT_GATTS_WRITE_CMD_REQ:
1876:Generated_Source\PSoC4/BLE_eventHandler.c ****         #ifdef CYBLE_IAS_SERVER
1877:Generated_Source\PSoC4/BLE_eventHandler.c ****             if((cyBle_eventHandlerFlag & CYBLE_CALLBACK) != 0u)
1878:Generated_Source\PSoC4/BLE_eventHandler.c ****             {
1879:Generated_Source\PSoC4/BLE_eventHandler.c ****                 (void)CyBle_IassWriteCmdEventHandler((CYBLE_GATTS_WRITE_REQ_PARAM_T *)eventParam);
1880:Generated_Source\PSoC4/BLE_eventHandler.c ****             }
1881:Generated_Source\PSoC4/BLE_eventHandler.c ****         #endif /* CYBLE_IAS_SERVER */
1882:Generated_Source\PSoC4/BLE_eventHandler.c ****         #ifdef CYBLE_IPS_SERVER
1883:Generated_Source\PSoC4/BLE_eventHandler.c ****             if((cyBle_eventHandlerFlag & CYBLE_CALLBACK) != 0u)
1884:Generated_Source\PSoC4/BLE_eventHandler.c ****             {
1885:Generated_Source\PSoC4/BLE_eventHandler.c ****                 (void)CyBle_IpssWriteCmdEventHandler((CYBLE_GATTS_WRITE_REQ_PARAM_T *)eventParam);
1886:Generated_Source\PSoC4/BLE_eventHandler.c ****             }
1887:Generated_Source\PSoC4/BLE_eventHandler.c ****         #endif /* CYBLE_IPS_SERVER */
1888:Generated_Source\PSoC4/BLE_eventHandler.c ****         #ifdef CYBLE_HIDS_SERVER
1889:Generated_Source\PSoC4/BLE_eventHandler.c ****             if((cyBle_eventHandlerFlag & CYBLE_CALLBACK) != 0u)
1890:Generated_Source\PSoC4/BLE_eventHandler.c ****             {
1891:Generated_Source\PSoC4/BLE_eventHandler.c ****                 (void)CyBle_HidssWriteEventHandler((CYBLE_GATTS_WRITE_REQ_PARAM_T *)eventParam);
1892:Generated_Source\PSoC4/BLE_eventHandler.c ****             }
1893:Generated_Source\PSoC4/BLE_eventHandler.c ****         #endif /* CYBLE_HIDS_SERVER */
1894:Generated_Source\PSoC4/BLE_eventHandler.c ****         #ifdef CYBLE_PASS_SERVER
1895:Generated_Source\PSoC4/BLE_eventHandler.c ****             if((cyBle_eventHandlerFlag & CYBLE_CALLBACK) != 0u)
1896:Generated_Source\PSoC4/BLE_eventHandler.c ****             {
1897:Generated_Source\PSoC4/BLE_eventHandler.c ****                 (void)CyBle_PasssWriteCmdEventHandler((CYBLE_GATTS_WRITE_REQ_PARAM_T *)eventParam);
1898:Generated_Source\PSoC4/BLE_eventHandler.c ****             }
1899:Generated_Source\PSoC4/BLE_eventHandler.c ****         #endif /* CYBLE_PASS_SERVER */
1900:Generated_Source\PSoC4/BLE_eventHandler.c ****         #ifdef CYBLE_RTUS_SERVER
1901:Generated_Source\PSoC4/BLE_eventHandler.c ****             if((cyBle_eventHandlerFlag & CYBLE_CALLBACK) != 0u)
1902:Generated_Source\PSoC4/BLE_eventHandler.c ****             {
1903:Generated_Source\PSoC4/BLE_eventHandler.c ****                 (void)CyBle_RtussWriteCmdEventHandler((CYBLE_GATTS_WRITE_REQ_PARAM_T *)eventParam);
1904:Generated_Source\PSoC4/BLE_eventHandler.c ****             }
ARM GAS  C:\Users\ANDREW~1\AppData\Local\Temp\ccKT4bII.s 			page 58


1905:Generated_Source\PSoC4/BLE_eventHandler.c ****         #endif /* CYBLE_RTUS_SERVER */
1906:Generated_Source\PSoC4/BLE_eventHandler.c ****         #ifdef CYBLE_SCPS_SERVER
1907:Generated_Source\PSoC4/BLE_eventHandler.c ****             if((cyBle_eventHandlerFlag & CYBLE_CALLBACK) != 0u)
1908:Generated_Source\PSoC4/BLE_eventHandler.c ****             {
1909:Generated_Source\PSoC4/BLE_eventHandler.c ****                 (void)CyBle_ScpssWriteEventHandler((CYBLE_GATTS_WRITE_REQ_PARAM_T *)eventParam);
1910:Generated_Source\PSoC4/BLE_eventHandler.c ****             }
1911:Generated_Source\PSoC4/BLE_eventHandler.c ****         #endif /* CYBLE_SCPS_SERVER */
1912:Generated_Source\PSoC4/BLE_eventHandler.c ****             break;
1913:Generated_Source\PSoC4/BLE_eventHandler.c ****         
1914:Generated_Source\PSoC4/BLE_eventHandler.c ****         case CYBLE_EVT_GATTS_PREP_WRITE_REQ:
1915:Generated_Source\PSoC4/BLE_eventHandler.c ****         #ifdef CYBLE_BMS_SERVER
1916:Generated_Source\PSoC4/BLE_eventHandler.c ****             CyBle_BmssPrepareWriteRequestEventHandler((CYBLE_GATTS_PREP_WRITE_REQ_PARAM_T *)eventPa
1917:Generated_Source\PSoC4/BLE_eventHandler.c ****         #endif /* CYBLE_BMS_SERVER */
1918:Generated_Source\PSoC4/BLE_eventHandler.c ****         #ifdef CYBLE_BTS_SERVER
1919:Generated_Source\PSoC4/BLE_eventHandler.c ****             if((cyBle_eventHandlerFlag & CYBLE_CALLBACK) != 0u)
1920:Generated_Source\PSoC4/BLE_eventHandler.c ****             {
1921:Generated_Source\PSoC4/BLE_eventHandler.c ****                 CyBle_BtssPrepareWriteRequestEventHandler((CYBLE_GATTS_PREP_WRITE_REQ_PARAM_T *)eve
1922:Generated_Source\PSoC4/BLE_eventHandler.c ****             }
1923:Generated_Source\PSoC4/BLE_eventHandler.c ****         #endif /* CYBLE_BTS_SERVER */
1924:Generated_Source\PSoC4/BLE_eventHandler.c ****         #ifdef CYBLE_ESS_SERVER
1925:Generated_Source\PSoC4/BLE_eventHandler.c ****             if((cyBle_eventHandlerFlag & CYBLE_CALLBACK) != 0u)
1926:Generated_Source\PSoC4/BLE_eventHandler.c ****             {
1927:Generated_Source\PSoC4/BLE_eventHandler.c ****                 CyBle_EsssPrepareWriteRequestEventHandler((CYBLE_GATTS_PREP_WRITE_REQ_PARAM_T *)eve
1928:Generated_Source\PSoC4/BLE_eventHandler.c ****             }
1929:Generated_Source\PSoC4/BLE_eventHandler.c ****         #endif /* CYBLE_ESS_SERVER */
1930:Generated_Source\PSoC4/BLE_eventHandler.c ****         #ifdef CYBLE_HPS_SERVER
1931:Generated_Source\PSoC4/BLE_eventHandler.c ****             if((cyBle_eventHandlerFlag & CYBLE_CALLBACK) != 0u)
1932:Generated_Source\PSoC4/BLE_eventHandler.c ****             {
1933:Generated_Source\PSoC4/BLE_eventHandler.c ****                 CyBle_HpssPrepareWriteRequestEventHandler((CYBLE_GATTS_PREP_WRITE_REQ_PARAM_T *)eve
1934:Generated_Source\PSoC4/BLE_eventHandler.c ****             }
1935:Generated_Source\PSoC4/BLE_eventHandler.c ****         #endif /* CYBLE_HPS_SERVER */
1936:Generated_Source\PSoC4/BLE_eventHandler.c ****         #ifdef CYBLE_IPS_SERVER
1937:Generated_Source\PSoC4/BLE_eventHandler.c ****             if((cyBle_eventHandlerFlag & CYBLE_CALLBACK) != 0u)
1938:Generated_Source\PSoC4/BLE_eventHandler.c ****             {
1939:Generated_Source\PSoC4/BLE_eventHandler.c ****                 CyBle_IpssPrepareWriteRequestEventHandler((CYBLE_GATTS_PREP_WRITE_REQ_PARAM_T *)eve
1940:Generated_Source\PSoC4/BLE_eventHandler.c ****             }
1941:Generated_Source\PSoC4/BLE_eventHandler.c ****         #endif /* CYBLE_IPS_SERVER */
1942:Generated_Source\PSoC4/BLE_eventHandler.c ****         #ifdef CYBLE_UDS_SERVER
1943:Generated_Source\PSoC4/BLE_eventHandler.c ****             if((cyBle_eventHandlerFlag & CYBLE_CALLBACK) != 0u)
1944:Generated_Source\PSoC4/BLE_eventHandler.c ****             {
1945:Generated_Source\PSoC4/BLE_eventHandler.c ****                 CyBle_UdssPrepareWriteRequestEventHandler((CYBLE_GATTS_PREP_WRITE_REQ_PARAM_T *)eve
1946:Generated_Source\PSoC4/BLE_eventHandler.c ****             }
1947:Generated_Source\PSoC4/BLE_eventHandler.c ****         #endif /* CYBLE_UDS_SERVER */
1948:Generated_Source\PSoC4/BLE_eventHandler.c ****             break;
1949:Generated_Source\PSoC4/BLE_eventHandler.c **** 
1950:Generated_Source\PSoC4/BLE_eventHandler.c ****         case CYBLE_EVT_GATTS_EXEC_WRITE_REQ:
1951:Generated_Source\PSoC4/BLE_eventHandler.c ****         #ifdef CYBLE_BMS_SERVER
1952:Generated_Source\PSoC4/BLE_eventHandler.c ****             CyBle_BmssExecuteWriteRequestEventHandler((CYBLE_GATTS_EXEC_WRITE_REQ_T *)eventParam);
1953:Generated_Source\PSoC4/BLE_eventHandler.c ****         #endif /* CYBLE_BMS_SERVER */
1954:Generated_Source\PSoC4/BLE_eventHandler.c ****         #ifdef CYBLE_BTS_SERVER
1955:Generated_Source\PSoC4/BLE_eventHandler.c ****             CyBle_BtssExecuteWriteRequestEventHandler((CYBLE_GATTS_EXEC_WRITE_REQ_T *)eventParam);
1956:Generated_Source\PSoC4/BLE_eventHandler.c ****         #endif /* CYBLE_BTS_SERVER */
1957:Generated_Source\PSoC4/BLE_eventHandler.c ****         #ifdef CYBLE_ESS_SERVER
1958:Generated_Source\PSoC4/BLE_eventHandler.c ****             CyBle_EsssExecuteWriteRequestEventHandler((CYBLE_GATTS_EXEC_WRITE_REQ_T *)eventParam);
1959:Generated_Source\PSoC4/BLE_eventHandler.c ****         #endif /* CYBLE_ESS_SERVER */
1960:Generated_Source\PSoC4/BLE_eventHandler.c ****         #ifdef CYBLE_HPS_SERVER
1961:Generated_Source\PSoC4/BLE_eventHandler.c ****             CyBle_HpssExecuteWriteRequestEventHandler((CYBLE_GATTS_EXEC_WRITE_REQ_T *)eventParam);
ARM GAS  C:\Users\ANDREW~1\AppData\Local\Temp\ccKT4bII.s 			page 59


1962:Generated_Source\PSoC4/BLE_eventHandler.c ****         #endif /* CYBLE_HPS_SERVER */
1963:Generated_Source\PSoC4/BLE_eventHandler.c ****         #ifdef CYBLE_IPS_SERVER
1964:Generated_Source\PSoC4/BLE_eventHandler.c ****             CyBle_IpssExecuteWriteRequestEventHandler((CYBLE_GATTS_EXEC_WRITE_REQ_T *)eventParam);
1965:Generated_Source\PSoC4/BLE_eventHandler.c ****         #endif /* CYBLE_IPS_SERVER */
1966:Generated_Source\PSoC4/BLE_eventHandler.c **** 		#ifdef CYBLE_UDS_SERVER
1967:Generated_Source\PSoC4/BLE_eventHandler.c ****             CyBle_UdssExecuteWriteRequestEventHandler((CYBLE_GATTS_EXEC_WRITE_REQ_T *)eventParam);
1968:Generated_Source\PSoC4/BLE_eventHandler.c ****         #endif /* CYBLE_UDS_SERVER */
1969:Generated_Source\PSoC4/BLE_eventHandler.c ****             break;
1970:Generated_Source\PSoC4/BLE_eventHandler.c ****         
1971:Generated_Source\PSoC4/BLE_eventHandler.c ****         case CYBLE_EVT_GATTS_HANDLE_VALUE_CNF:
1972:Generated_Source\PSoC4/BLE_eventHandler.c ****             CyBle_ValueConfirmation((CYBLE_CONN_HANDLE_T *)eventParam);
1973:Generated_Source\PSoC4/BLE_eventHandler.c ****             break;
1974:Generated_Source\PSoC4/BLE_eventHandler.c ****             
1975:Generated_Source\PSoC4/BLE_eventHandler.c ****         case CYBLE_EVT_GATTS_READ_CHAR_VAL_ACCESS_REQ:
1976:Generated_Source\PSoC4/BLE_eventHandler.c ****         #ifdef CYBLE_UDS_SERVER
1977:Generated_Source\PSoC4/BLE_eventHandler.c ****             CyBle_UdssReadRequestEventHandler((CYBLE_GATTS_CHAR_VAL_READ_REQ_T *)eventParam);
1978:Generated_Source\PSoC4/BLE_eventHandler.c ****         #endif /* CYBLE_UDS_SERVER */
1979:Generated_Source\PSoC4/BLE_eventHandler.c ****             break;
1980:Generated_Source\PSoC4/BLE_eventHandler.c ****             
1981:Generated_Source\PSoC4/BLE_eventHandler.c ****     #endif /* CYBLE_GATT_ROLE_SERVER */
1982:Generated_Source\PSoC4/BLE_eventHandler.c **** 
1983:Generated_Source\PSoC4/BLE_eventHandler.c ****     #if (CYBLE_GATT_ROLE_CLIENT)
1984:Generated_Source\PSoC4/BLE_eventHandler.c ****         
1985:Generated_Source\PSoC4/BLE_eventHandler.c ****         case CYBLE_EVT_GATTC_READ_BY_GROUP_TYPE_RSP:
1986:Generated_Source\PSoC4/BLE_eventHandler.c ****             CyBle_ReadByGroupEventHandler((CYBLE_GATTC_READ_BY_GRP_RSP_PARAM_T *)eventParam);
 1329              		.loc 1 1986 0
 1330 025e 3B68     		ldr	r3, [r7]
 1331 0260 181C     		mov	r0, r3
 1332 0262 FFF7FEFF 		bl	CyBle_ReadByGroupEventHandler
1987:Generated_Source\PSoC4/BLE_eventHandler.c ****             break;
 1333              		.loc 1 1987 0
 1334 0266 3BE0     		b	.L76
 1335              	.L63:
1988:Generated_Source\PSoC4/BLE_eventHandler.c **** 
1989:Generated_Source\PSoC4/BLE_eventHandler.c ****         case CYBLE_EVT_GATTC_READ_BY_TYPE_RSP:
1990:Generated_Source\PSoC4/BLE_eventHandler.c ****             CyBle_ReadByTypeEventHandler((CYBLE_GATTC_READ_BY_TYPE_RSP_PARAM_T *)eventParam);
 1336              		.loc 1 1990 0
 1337 0268 3B68     		ldr	r3, [r7]
 1338 026a 181C     		mov	r0, r3
 1339 026c FFF7FEFF 		bl	CyBle_ReadByTypeEventHandler
1991:Generated_Source\PSoC4/BLE_eventHandler.c ****             break;
 1340              		.loc 1 1991 0
 1341 0270 36E0     		b	.L76
 1342              	.L72:
1992:Generated_Source\PSoC4/BLE_eventHandler.c **** 
1993:Generated_Source\PSoC4/BLE_eventHandler.c ****         case CYBLE_EVT_GATTC_READ_BLOB_RSP:
1994:Generated_Source\PSoC4/BLE_eventHandler.c ****         #ifdef CYBLE_ESS_CLIENT
1995:Generated_Source\PSoC4/BLE_eventHandler.c ****             CyBle_EsscReadLongRespEventHandler((CYBLE_GATTC_READ_RSP_PARAM_T *)eventParam);
1996:Generated_Source\PSoC4/BLE_eventHandler.c ****         #endif /* CYBLE_ESS_CLIENT */
1997:Generated_Source\PSoC4/BLE_eventHandler.c ****         #ifdef CYBLE_HPS_CLIENT
1998:Generated_Source\PSoC4/BLE_eventHandler.c ****             CyBle_HpscReadLongRespEventHandler((CYBLE_GATTC_READ_RSP_PARAM_T *)eventParam);
1999:Generated_Source\PSoC4/BLE_eventHandler.c ****         #endif /* CYBLE_HPS_CLIENT */
2000:Generated_Source\PSoC4/BLE_eventHandler.c **** 		#ifdef CYBLE_IPS_CLIENT
2001:Generated_Source\PSoC4/BLE_eventHandler.c ****             CyBle_IpscReadLongRespEventHandler((CYBLE_GATTC_READ_RSP_PARAM_T *)eventParam);
2002:Generated_Source\PSoC4/BLE_eventHandler.c ****         #endif /* CYBLE_IPS_CLIENT */
2003:Generated_Source\PSoC4/BLE_eventHandler.c ****         #ifdef CYBLE_UDS_CLIENT
2004:Generated_Source\PSoC4/BLE_eventHandler.c ****             if((cyBle_eventHandlerFlag & CYBLE_CALLBACK) != 0u)
ARM GAS  C:\Users\ANDREW~1\AppData\Local\Temp\ccKT4bII.s 			page 60


2005:Generated_Source\PSoC4/BLE_eventHandler.c ****             {
2006:Generated_Source\PSoC4/BLE_eventHandler.c ****                 CyBle_UdscReadLongRespEventHandler((CYBLE_GATTC_READ_RSP_PARAM_T *)eventParam);
2007:Generated_Source\PSoC4/BLE_eventHandler.c ****             }
2008:Generated_Source\PSoC4/BLE_eventHandler.c ****         #endif /* CYBLE_UDS_CLIENT */
2009:Generated_Source\PSoC4/BLE_eventHandler.c ****             break;
2010:Generated_Source\PSoC4/BLE_eventHandler.c ****         
2011:Generated_Source\PSoC4/BLE_eventHandler.c ****         case CYBLE_EVT_GATTC_LONG_PROCEDURE_END:
2012:Generated_Source\PSoC4/BLE_eventHandler.c ****             CyBle_LongProcedureEndEventHandler();
 1343              		.loc 1 2012 0
 1344 0272 FFF7FEFF 		bl	CyBle_LongProcedureEndEventHandler
2013:Generated_Source\PSoC4/BLE_eventHandler.c ****             break;
 1345              		.loc 1 2013 0
 1346 0276 33E0     		b	.L76
 1347              	.L64:
2014:Generated_Source\PSoC4/BLE_eventHandler.c ****         
2015:Generated_Source\PSoC4/BLE_eventHandler.c ****         case CYBLE_EVT_GATTC_FIND_INFO_RSP:
2016:Generated_Source\PSoC4/BLE_eventHandler.c ****             CyBle_FindInfoEventHandler((CYBLE_GATTC_FIND_INFO_RSP_PARAM_T *)eventParam);
 1348              		.loc 1 2016 0
 1349 0278 3B68     		ldr	r3, [r7]
 1350 027a 181C     		mov	r0, r3
 1351 027c FFF7FEFF 		bl	CyBle_FindInfoEventHandler
2017:Generated_Source\PSoC4/BLE_eventHandler.c ****             break;
 1352              		.loc 1 2017 0
 1353 0280 2EE0     		b	.L76
 1354              	.L58:
2018:Generated_Source\PSoC4/BLE_eventHandler.c **** 
2019:Generated_Source\PSoC4/BLE_eventHandler.c ****         case CYBLE_EVT_GATTC_ERROR_RSP:
2020:Generated_Source\PSoC4/BLE_eventHandler.c ****             CyBle_ErrorResponseEventHandler((CYBLE_GATTC_ERR_RSP_PARAM_T *)eventParam);
 1355              		.loc 1 2020 0
 1356 0282 3B68     		ldr	r3, [r7]
 1357 0284 181C     		mov	r0, r3
 1358 0286 FFF7FEFF 		bl	CyBle_ErrorResponseEventHandler
2021:Generated_Source\PSoC4/BLE_eventHandler.c ****             break;
 1359              		.loc 1 2021 0
 1360 028a 29E0     		b	.L76
 1361              	.L70:
2022:Generated_Source\PSoC4/BLE_eventHandler.c **** 
2023:Generated_Source\PSoC4/BLE_eventHandler.c ****         case CYBLE_EVT_GATTC_HANDLE_VALUE_NTF:
2024:Generated_Source\PSoC4/BLE_eventHandler.c ****             CyBle_NotificationEventHandler((CYBLE_GATTC_HANDLE_VALUE_NTF_PARAM_T *)eventParam);
 1362              		.loc 1 2024 0
 1363 028c 3B68     		ldr	r3, [r7]
 1364 028e 181C     		mov	r0, r3
 1365 0290 FFF7FEFF 		bl	CyBle_NotificationEventHandler
2025:Generated_Source\PSoC4/BLE_eventHandler.c ****             break;
 1366              		.loc 1 2025 0
 1367 0294 24E0     		b	.L76
 1368              	.L71:
2026:Generated_Source\PSoC4/BLE_eventHandler.c **** 
2027:Generated_Source\PSoC4/BLE_eventHandler.c ****         case CYBLE_EVT_GATTC_HANDLE_VALUE_IND:
2028:Generated_Source\PSoC4/BLE_eventHandler.c ****             CyBle_GattcIndicationEventHandler((CYBLE_GATTC_HANDLE_VALUE_IND_PARAM_T *)eventParam);
 1369              		.loc 1 2028 0
 1370 0296 3B68     		ldr	r3, [r7]
 1371 0298 181C     		mov	r0, r3
 1372 029a FFF7FEFF 		bl	CyBle_GattcIndicationEventHandler
2029:Generated_Source\PSoC4/BLE_eventHandler.c ****             CyBle_IndicationEventHandler((CYBLE_GATTC_HANDLE_VALUE_IND_PARAM_T *)eventParam);
 1373              		.loc 1 2029 0
 1374 029e 3B68     		ldr	r3, [r7]
ARM GAS  C:\Users\ANDREW~1\AppData\Local\Temp\ccKT4bII.s 			page 61


 1375 02a0 181C     		mov	r0, r3
 1376 02a2 FFF7FEFF 		bl	CyBle_IndicationEventHandler
2030:Generated_Source\PSoC4/BLE_eventHandler.c ****         
2031:Generated_Source\PSoC4/BLE_eventHandler.c ****             /* Respond with a Handle Value Confirmation when request handled */
2032:Generated_Source\PSoC4/BLE_eventHandler.c ****             if((cyBle_eventHandlerFlag & CYBLE_CALLBACK) == 0u)
 1377              		.loc 1 2032 0
 1378 02a6 1B4B     		ldr	r3, .L90
 1379 02a8 1B78     		ldrb	r3, [r3]
 1380 02aa DBB2     		uxtb	r3, r3
 1381 02ac 1A1C     		mov	r2, r3
 1382 02ae 0123     		mov	r3, #1
 1383 02b0 1340     		and	r3, r2
 1384 02b2 04D1     		bne	.L87
2033:Generated_Source\PSoC4/BLE_eventHandler.c ****             {
2034:Generated_Source\PSoC4/BLE_eventHandler.c ****                 (void)CyBle_GattcConfirmation(((CYBLE_GATTC_HANDLE_VALUE_IND_PARAM_T *)eventParam)-
 1385              		.loc 1 2034 0
 1386 02b4 3B68     		ldr	r3, [r7]
 1387 02b6 1868     		ldr	r0, [r3]
 1388 02b8 FFF7FEFF 		bl	CyBle_GattcConfirmation
2035:Generated_Source\PSoC4/BLE_eventHandler.c ****             }
2036:Generated_Source\PSoC4/BLE_eventHandler.c ****             break;
 1389              		.loc 1 2036 0
 1390 02bc 10E0     		b	.L76
 1391              	.L87:
 1392 02be 0FE0     		b	.L76
 1393              	.L65:
2037:Generated_Source\PSoC4/BLE_eventHandler.c ****         
2038:Generated_Source\PSoC4/BLE_eventHandler.c ****         case CYBLE_EVT_GATTC_READ_RSP:
2039:Generated_Source\PSoC4/BLE_eventHandler.c ****             CyBle_ReadResponseEventHandler((CYBLE_GATTC_READ_RSP_PARAM_T *)eventParam);
 1394              		.loc 1 2039 0
 1395 02c0 3B68     		ldr	r3, [r7]
 1396 02c2 181C     		mov	r0, r3
 1397 02c4 FFF7FEFF 		bl	CyBle_ReadResponseEventHandler
2040:Generated_Source\PSoC4/BLE_eventHandler.c ****             break;
 1398              		.loc 1 2040 0
 1399 02c8 0AE0     		b	.L76
 1400              	.L67:
2041:Generated_Source\PSoC4/BLE_eventHandler.c ****         
2042:Generated_Source\PSoC4/BLE_eventHandler.c ****         case CYBLE_EVT_GATTC_READ_MULTI_RSP:
2043:Generated_Source\PSoC4/BLE_eventHandler.c ****             CyBle_ReadMultipleResponseEventHandler((CYBLE_GATTC_READ_RSP_PARAM_T *)eventParam);
 1401              		.loc 1 2043 0
 1402 02ca 3B68     		ldr	r3, [r7]
 1403 02cc 181C     		mov	r0, r3
 1404 02ce FFF7FEFF 		bl	CyBle_ReadMultipleResponseEventHandler
2044:Generated_Source\PSoC4/BLE_eventHandler.c ****             break;
 1405              		.loc 1 2044 0
 1406 02d2 05E0     		b	.L76
 1407              	.L68:
2045:Generated_Source\PSoC4/BLE_eventHandler.c ****             
2046:Generated_Source\PSoC4/BLE_eventHandler.c ****         case CYBLE_EVT_GATTC_WRITE_RSP:
2047:Generated_Source\PSoC4/BLE_eventHandler.c ****             CyBle_GattcWriteResponseEventHandler((CYBLE_CONN_HANDLE_T *)eventParam);
 1408              		.loc 1 2047 0
 1409 02d4 3B68     		ldr	r3, [r7]
 1410 02d6 181C     		mov	r0, r3
 1411 02d8 FFF7FEFF 		bl	CyBle_GattcWriteResponseEventHandler
2048:Generated_Source\PSoC4/BLE_eventHandler.c ****             break;
 1412              		.loc 1 2048 0
ARM GAS  C:\Users\ANDREW~1\AppData\Local\Temp\ccKT4bII.s 			page 62


 1413 02dc 00E0     		b	.L76
 1414              	.L89:
2049:Generated_Source\PSoC4/BLE_eventHandler.c ****             
2050:Generated_Source\PSoC4/BLE_eventHandler.c ****         case CYBLE_EVT_GATTC_EXEC_WRITE_RSP:
2051:Generated_Source\PSoC4/BLE_eventHandler.c ****         #ifdef CYBLE_BMS_CLIENT
2052:Generated_Source\PSoC4/BLE_eventHandler.c ****             CyBle_BmscExecuteWriteResponseEventHandler((CYBLE_GATTC_EXEC_WRITE_RSP_T *)eventParam);
2053:Generated_Source\PSoC4/BLE_eventHandler.c ****         #endif /* CYBLE_BMS_CLIENT */
2054:Generated_Source\PSoC4/BLE_eventHandler.c ****         #ifdef CYBLE_ESS_CLIENT
2055:Generated_Source\PSoC4/BLE_eventHandler.c ****             if((cyBle_eventHandlerFlag & CYBLE_CALLBACK) != 0u)
2056:Generated_Source\PSoC4/BLE_eventHandler.c ****             {
2057:Generated_Source\PSoC4/BLE_eventHandler.c ****                 CyBle_EsscExecuteWriteResponseEventHandler((CYBLE_GATTC_EXEC_WRITE_RSP_T *)eventPar
2058:Generated_Source\PSoC4/BLE_eventHandler.c ****             }
2059:Generated_Source\PSoC4/BLE_eventHandler.c ****         #endif /* CYBLE_ESS_CLIENT */
2060:Generated_Source\PSoC4/BLE_eventHandler.c ****         #ifdef CYBLE_HPS_CLIENT
2061:Generated_Source\PSoC4/BLE_eventHandler.c ****             if((cyBle_eventHandlerFlag & CYBLE_CALLBACK) != 0u)
2062:Generated_Source\PSoC4/BLE_eventHandler.c ****             {
2063:Generated_Source\PSoC4/BLE_eventHandler.c ****                 CyBle_HpscExecuteWriteResponseEventHandler((CYBLE_GATTC_EXEC_WRITE_RSP_T *)eventPar
2064:Generated_Source\PSoC4/BLE_eventHandler.c ****             }
2065:Generated_Source\PSoC4/BLE_eventHandler.c ****         #endif /* CYBLE_HPS_CLIENT */
2066:Generated_Source\PSoC4/BLE_eventHandler.c ****         #ifdef CYBLE_IPS_CLIENT
2067:Generated_Source\PSoC4/BLE_eventHandler.c ****             if((cyBle_eventHandlerFlag & CYBLE_CALLBACK) != 0u)
2068:Generated_Source\PSoC4/BLE_eventHandler.c ****             {
2069:Generated_Source\PSoC4/BLE_eventHandler.c ****                 CyBle_IpscExecuteWriteResponseEventHandler((CYBLE_GATTC_EXEC_WRITE_RSP_T *)eventPar
2070:Generated_Source\PSoC4/BLE_eventHandler.c ****             }
2071:Generated_Source\PSoC4/BLE_eventHandler.c ****         #endif /* CYBLE_IPS_CLIENT */
2072:Generated_Source\PSoC4/BLE_eventHandler.c ****         #ifdef CYBLE_UDS_CLIENT
2073:Generated_Source\PSoC4/BLE_eventHandler.c ****             if((cyBle_eventHandlerFlag & CYBLE_CALLBACK) != 0u)
2074:Generated_Source\PSoC4/BLE_eventHandler.c ****             {
2075:Generated_Source\PSoC4/BLE_eventHandler.c ****                 CyBle_UdscExecuteWriteResponseEventHandler((CYBLE_GATTC_EXEC_WRITE_RSP_T *)eventPar
2076:Generated_Source\PSoC4/BLE_eventHandler.c ****             }
2077:Generated_Source\PSoC4/BLE_eventHandler.c ****         #endif /* CYBLE_UDS_CLIENT */
2078:Generated_Source\PSoC4/BLE_eventHandler.c ****             break;
2079:Generated_Source\PSoC4/BLE_eventHandler.c ****             
2080:Generated_Source\PSoC4/BLE_eventHandler.c ****     #endif /* CYBLE_GATT_ROLE_CLIENT */
2081:Generated_Source\PSoC4/BLE_eventHandler.c **** 
2082:Generated_Source\PSoC4/BLE_eventHandler.c ****     #if((CYBLE_GAP_ROLE_PERIPHERAL || CYBLE_GAP_ROLE_CENTRAL) && (CYBLE_BONDING_REQUIREMENT == CYBL
2083:Generated_Source\PSoC4/BLE_eventHandler.c **** 
2084:Generated_Source\PSoC4/BLE_eventHandler.c ****         case CYBLE_EVT_PENDING_FLASH_WRITE:
2085:Generated_Source\PSoC4/BLE_eventHandler.c ****             cyBle_pendingFlashWrite |= CYBLE_PENDING_STACK_FLASH_WRITE_BIT;
2086:Generated_Source\PSoC4/BLE_eventHandler.c ****             break;
2087:Generated_Source\PSoC4/BLE_eventHandler.c ****         
2088:Generated_Source\PSoC4/BLE_eventHandler.c ****     #endif  /* (CYBLE_BONDING_REQUIREMENT == CYBLE_BONDING_YES) */
2089:Generated_Source\PSoC4/BLE_eventHandler.c ****     
2090:Generated_Source\PSoC4/BLE_eventHandler.c ****         default:
2091:Generated_Source\PSoC4/BLE_eventHandler.c ****             break;
 1415              		.loc 1 2091 0
 1416 02de C046     		mov	r8, r8
 1417              	.L76:
2092:Generated_Source\PSoC4/BLE_eventHandler.c ****     }
2093:Generated_Source\PSoC4/BLE_eventHandler.c **** 
2094:Generated_Source\PSoC4/BLE_eventHandler.c ****     if(0u != (cyBle_eventHandlerFlag & (CYBLE_CALLBACK | CYBLE_ENABLE_ALL_EVENTS))) 
 1418              		.loc 1 2094 0
 1419 02e0 0C4B     		ldr	r3, .L90
 1420 02e2 1B78     		ldrb	r3, [r3]
 1421 02e4 DBB2     		uxtb	r3, r3
 1422 02e6 1A1C     		mov	r2, r3
 1423 02e8 1123     		mov	r3, #17
ARM GAS  C:\Users\ANDREW~1\AppData\Local\Temp\ccKT4bII.s 			page 63


 1424 02ea 1340     		and	r3, r2
 1425 02ec 0FD0     		beq	.L44
2095:Generated_Source\PSoC4/BLE_eventHandler.c ****     {
2096:Generated_Source\PSoC4/BLE_eventHandler.c ****         cyBle_eventHandlerFlag &= (uint8)~CYBLE_CALLBACK;
 1426              		.loc 1 2096 0
 1427 02ee 094B     		ldr	r3, .L90
 1428 02f0 1B78     		ldrb	r3, [r3]
 1429 02f2 DBB2     		uxtb	r3, r3
 1430 02f4 0122     		mov	r2, #1
 1431 02f6 9343     		bic	r3, r2
 1432 02f8 DAB2     		uxtb	r2, r3
 1433 02fa 064B     		ldr	r3, .L90
 1434 02fc 1A70     		strb	r2, [r3]
2097:Generated_Source\PSoC4/BLE_eventHandler.c ****         CyBle_ApplCallback((uint32)eventCode, eventParam);
 1435              		.loc 1 2097 0
 1436 02fe 124B     		ldr	r3, .L90+52
 1437 0300 1B68     		ldr	r3, [r3]
 1438 0302 FA1D     		add	r2, r7, #7
 1439 0304 1178     		ldrb	r1, [r2]
 1440 0306 3A68     		ldr	r2, [r7]
 1441 0308 081C     		mov	r0, r1
 1442 030a 111C     		mov	r1, r2
 1443 030c 9847     		blx	r3
 1444              	.L44:
2098:Generated_Source\PSoC4/BLE_eventHandler.c ****     }
2099:Generated_Source\PSoC4/BLE_eventHandler.c **** }
 1445              		.loc 1 2099 0
 1446 030e BD46     		mov	sp, r7
 1447 0310 06B0     		add	sp, sp, #24
 1448              		@ sp needed
 1449 0312 80BD     		pop	{r7, pc}
 1450              	.L91:
 1451              		.align	2
 1452              	.L90:
 1453 0314 00000000 		.word	cyBle_eventHandlerFlag
 1454 0318 00000000 		.word	.L47
 1455 031c 00000000 		.word	cyBle_sflashDeviceAddress
 1456 0320 00000000 		.word	cyBle_deviceAddress
 1457 0324 00000000 		.word	cyBle_state
 1458 0328 00000000 		.word	cyBle_busyStatus
 1459 032c 18000000 		.word	gPrepWriteReqMem.6553
 1460 0330 E00A0000 		.word	cyBle_stackMemoryRam+2784
 1461 0334 00000000 		.word	cyBle_authInfo
 1462 0338 00000000 		.word	cyBle_connHandle
 1463 033c 00000000 		.word	cyBle_connectingTimeout
 1464 0340 00000000 		.word	cyBle_scanningIntervalType
 1465 0344 00000000 		.word	cyBle_clientState
 1466 0348 00000000 		.word	CyBle_ApplCallback
 1467              		.cfi_endproc
 1468              	.LFE13:
 1469              		.size	CyBle_EventHandler, .-CyBle_EventHandler
 1470              		.section	.text.CyBle_ReadByGroupEventHandler,"ax",%progbits
 1471              		.align	2
 1472              		.global	CyBle_ReadByGroupEventHandler
 1473              		.code	16
 1474              		.thumb_func
 1475              		.type	CyBle_ReadByGroupEventHandler, %function
ARM GAS  C:\Users\ANDREW~1\AppData\Local\Temp\ccKT4bII.s 			page 64


 1476              	CyBle_ReadByGroupEventHandler:
 1477              	.LFB14:
2100:Generated_Source\PSoC4/BLE_eventHandler.c **** 
2101:Generated_Source\PSoC4/BLE_eventHandler.c **** 
2102:Generated_Source\PSoC4/BLE_eventHandler.c **** #if (CYBLE_GATT_ROLE_CLIENT)
2103:Generated_Source\PSoC4/BLE_eventHandler.c **** 
2104:Generated_Source\PSoC4/BLE_eventHandler.c **** 
2105:Generated_Source\PSoC4/BLE_eventHandler.c **** /****************************************************************************** 
2106:Generated_Source\PSoC4/BLE_eventHandler.c **** * Function Name: CyBle_ReadByGroupEventHandler
2107:Generated_Source\PSoC4/BLE_eventHandler.c **** ***************************************************************************//**
2108:Generated_Source\PSoC4/BLE_eventHandler.c **** * 
2109:Generated_Source\PSoC4/BLE_eventHandler.c **** *  Handles the Read By Group Response Event during an automatic server discovery
2110:Generated_Source\PSoC4/BLE_eventHandler.c **** *  process.
2111:Generated_Source\PSoC4/BLE_eventHandler.c **** * 
2112:Generated_Source\PSoC4/BLE_eventHandler.c **** *  \param eventParam:  the event parameters for a Read By Group Response
2113:Generated_Source\PSoC4/BLE_eventHandler.c **** * 
2114:Generated_Source\PSoC4/BLE_eventHandler.c **** * \return
2115:Generated_Source\PSoC4/BLE_eventHandler.c **** *  None
