ARM GAS  C:\Users\ANDREW~1\AppData\Local\Temp\ccMSvfVk.s 			page 1


   1              		.cpu cortex-m0
   2              		.fpu softvfp
   3              		.eabi_attribute 20, 1
   4              		.eabi_attribute 21, 1
   5              		.eabi_attribute 23, 3
   6              		.eabi_attribute 24, 1
   7              		.eabi_attribute 25, 1
   8              		.eabi_attribute 26, 1
   9              		.eabi_attribute 30, 6
  10              		.eabi_attribute 34, 0
  11              		.eabi_attribute 18, 4
  12              		.code	16
  13              		.file	"millis.c"
  14              		.text
  15              	.Ltext0:
  16              		.cfi_sections	.debug_frame
  17              		.bss
  18              		.align	2
  19              	msCount:
  20 0000 00000000 		.space	4
  21              		.section	.text.millisSysTickISR,"ax",%progbits
  22              		.align	2
  23              		.global	millisSysTickISR
  24              		.code	16
  25              		.thumb_func
  26              		.type	millisSysTickISR, %function
  27              	millisSysTickISR:
  28              	.LFB2:
  29              		.file 1 "millis.c"
   1:millis.c      **** /*
   2:millis.c      ****  * Semi-equivalent of millis() from the Arduino API.
   3:millis.c      ****  * Uses SysTick to generate interrupts to be counted every one millisecond.
   4:millis.c      ****  *
   5:millis.c      ****  * Written by Eric B. Wertz (eric@edushields.com)
   6:millis.c      ****  * Version 1.0
   7:millis.c      ****  * Last modified 28-Aug-2015
   8:millis.c      ****  */
   9:millis.c      **** 
  10:millis.c      **** #include <CyLib.h>
  11:millis.c      **** #include "millis.h"
  12:millis.c      **** 
  13:millis.c      **** #define INITMILLIS_OK   0
  14:millis.c      **** #define INITMILLIS_FAIL 1
  15:millis.c      **** 
  16:millis.c      **** volatile static uint32 msCount;
  17:millis.c      **** 
  18:millis.c      **** CY_ISR(millisSysTickISR)
  19:millis.c      **** {
  30              		.loc 1 19 0
  31              		.cfi_startproc
  32 0000 80B5     		push	{r7, lr}
  33              		.cfi_def_cfa_offset 8
  34              		.cfi_offset 7, -8
  35              		.cfi_offset 14, -4
  36 0002 00AF     		add	r7, sp, #0
  37              		.cfi_def_cfa_register 7
  20:millis.c      ****     msCount++;
ARM GAS  C:\Users\ANDREW~1\AppData\Local\Temp\ccMSvfVk.s 			page 2


  38              		.loc 1 20 0
  39 0004 034B     		ldr	r3, .L2
  40 0006 1B68     		ldr	r3, [r3]
  41 0008 5A1C     		add	r2, r3, #1
  42 000a 024B     		ldr	r3, .L2
  43 000c 1A60     		str	r2, [r3]
  21:millis.c      **** }
  44              		.loc 1 21 0
  45 000e BD46     		mov	sp, r7
  46              		@ sp needed
  47 0010 80BD     		pop	{r7, pc}
  48              	.L3:
  49 0012 C046     		.align	2
  50              	.L2:
  51 0014 00000000 		.word	msCount
  52              		.cfi_endproc
  53              	.LFE2:
  54              		.size	millisSysTickISR, .-millisSysTickISR
  55              		.section	.text.millis_Start,"ax",%progbits
  56              		.align	2
  57              		.global	millis_Start
  58              		.code	16
  59              		.thumb_func
  60              		.type	millis_Start, %function
  61              	millis_Start:
  62              	.LFB3:
  22:millis.c      **** 
  23:millis.c      **** /*
  24:millis.c      ****  * Install ISR in first available slot, if it's not there already.
  25:millis.c      ****  * Reset millis() counter to 0.
  26:millis.c      ****  */
  27:millis.c      **** int millis_Start(void)
  28:millis.c      **** {
  63              		.loc 1 28 0
  64              		.cfi_startproc
  65 0000 80B5     		push	{r7, lr}
  66              		.cfi_def_cfa_offset 8
  67              		.cfi_offset 7, -8
  68              		.cfi_offset 14, -4
  69 0002 82B0     		sub	sp, sp, #8
  70              		.cfi_def_cfa_offset 16
  71 0004 00AF     		add	r7, sp, #0
  72              		.cfi_def_cfa_register 7
  29:millis.c      ****     unsigned int i;
  30:millis.c      ****     int retval=INITMILLIS_FAIL;
  73              		.loc 1 30 0
  74 0006 0123     		mov	r3, #1
  75 0008 3B60     		str	r3, [r7]
  31:millis.c      **** 
  32:millis.c      ****     msCount = 0;
  76              		.loc 1 32 0
  77 000a 164B     		ldr	r3, .L11
  78 000c 0022     		mov	r2, #0
  79 000e 1A60     		str	r2, [r3]
  33:millis.c      **** 
  34:millis.c      ****     CySysTickStart();
  80              		.loc 1 34 0
ARM GAS  C:\Users\ANDREW~1\AppData\Local\Temp\ccMSvfVk.s 			page 3


  81 0010 FFF7FEFF 		bl	CySysTickStart
  35:millis.c      **** 
  36:millis.c      ****     for (i=0; i < CY_SYS_SYST_NUM_OF_CALLBACKS; ++i) {
  82              		.loc 1 36 0
  83 0014 0023     		mov	r3, #0
  84 0016 7B60     		str	r3, [r7, #4]
  85 0018 1CE0     		b	.L5
  86              	.L9:
  37:millis.c      ****         if (!CySysTickGetCallback(i)) {
  87              		.loc 1 37 0
  88 001a 7B68     		ldr	r3, [r7, #4]
  89 001c 181C     		mov	r0, r3
  90 001e FFF7FEFF 		bl	CySysTickGetCallback
  91 0022 031E     		sub	r3, r0, #0
  92 0024 08D1     		bne	.L6
  38:millis.c      ****             CySysTickSetCallback(i, millisSysTickISR);
  93              		.loc 1 38 0
  94 0026 7A68     		ldr	r2, [r7, #4]
  95 0028 0F4B     		ldr	r3, .L11+4
  96 002a 101C     		mov	r0, r2
  97 002c 191C     		mov	r1, r3
  98 002e FFF7FEFF 		bl	CySysTickSetCallback
  39:millis.c      ****             retval = INITMILLIS_OK;
  99              		.loc 1 39 0
 100 0032 0023     		mov	r3, #0
 101 0034 3B60     		str	r3, [r7]
  40:millis.c      ****             break;
 102              		.loc 1 40 0
 103 0036 10E0     		b	.L7
 104              	.L6:
  41:millis.c      ****         }
  42:millis.c      ****         else if (CySysTickGetCallback(i) == millisSysTickISR) {
 105              		.loc 1 42 0
 106 0038 7B68     		ldr	r3, [r7, #4]
 107 003a 181C     		mov	r0, r3
 108 003c FFF7FEFF 		bl	CySysTickGetCallback
 109 0040 021E     		sub	r2, r0, #0
 110 0042 094B     		ldr	r3, .L11+4
 111 0044 9A42     		cmp	r2, r3
 112 0046 02D1     		bne	.L8
  43:millis.c      ****             retval = INITMILLIS_OK;
 113              		.loc 1 43 0
 114 0048 0023     		mov	r3, #0
 115 004a 3B60     		str	r3, [r7]
  44:millis.c      ****             break;
 116              		.loc 1 44 0
 117 004c 05E0     		b	.L7
 118              	.L8:
  36:millis.c      ****         if (!CySysTickGetCallback(i)) {
 119              		.loc 1 36 0 discriminator 2
 120 004e 7B68     		ldr	r3, [r7, #4]
 121 0050 0133     		add	r3, r3, #1
 122 0052 7B60     		str	r3, [r7, #4]
 123              	.L5:
  36:millis.c      ****         if (!CySysTickGetCallback(i)) {
 124              		.loc 1 36 0 is_stmt 0 discriminator 1
 125 0054 7B68     		ldr	r3, [r7, #4]
ARM GAS  C:\Users\ANDREW~1\AppData\Local\Temp\ccMSvfVk.s 			page 4


 126 0056 042B     		cmp	r3, #4
 127 0058 DFD9     		bls	.L9
 128              	.L7:
  45:millis.c      ****         }
  46:millis.c      ****     }
  47:millis.c      **** 
  48:millis.c      ****     return retval;
 129              		.loc 1 48 0 is_stmt 1
 130 005a 3B68     		ldr	r3, [r7]
  49:millis.c      **** }
 131              		.loc 1 49 0
 132 005c 181C     		mov	r0, r3
 133 005e BD46     		mov	sp, r7
 134 0060 02B0     		add	sp, sp, #8
 135              		@ sp needed
 136 0062 80BD     		pop	{r7, pc}
 137              	.L12:
 138              		.align	2
 139              	.L11:
 140 0064 00000000 		.word	msCount
 141 0068 00000000 		.word	millisSysTickISR
 142              		.cfi_endproc
 143              	.LFE3:
 144              		.size	millis_Start, .-millis_Start
 145              		.section	.text.millis,"ax",%progbits
 146              		.align	2
 147              		.global	millis
 148              		.code	16
 149              		.thumb_func
 150              		.type	millis, %function
 151              	millis:
 152              	.LFB4:
  50:millis.c      **** 
  51:millis.c      **** uint32 millis(void)
  52:millis.c      **** {
 153              		.loc 1 52 0
 154              		.cfi_startproc
 155 0000 80B5     		push	{r7, lr}
 156              		.cfi_def_cfa_offset 8
 157              		.cfi_offset 7, -8
 158              		.cfi_offset 14, -4
 159 0002 00AF     		add	r7, sp, #0
 160              		.cfi_def_cfa_register 7
  53:millis.c      ****     return msCount;
 161              		.loc 1 53 0
 162 0004 024B     		ldr	r3, .L15
 163 0006 1B68     		ldr	r3, [r3]
  54:millis.c      **** }
 164              		.loc 1 54 0
 165 0008 181C     		mov	r0, r3
 166 000a BD46     		mov	sp, r7
 167              		@ sp needed
 168 000c 80BD     		pop	{r7, pc}
 169              	.L16:
 170 000e C046     		.align	2
 171              	.L15:
 172 0010 00000000 		.word	msCount
ARM GAS  C:\Users\ANDREW~1\AppData\Local\Temp\ccMSvfVk.s 			page 5


 173              		.cfi_endproc
 174              	.LFE4:
 175              		.size	millis, .-millis
 176              		.section	.text.millis_Reset,"ax",%progbits
 177              		.align	2
 178              		.global	millis_Reset
 179              		.code	16
 180              		.thumb_func
 181              		.type	millis_Reset, %function
 182              	millis_Reset:
 183              	.LFB5:
  55:millis.c      **** 
  56:millis.c      **** void millis_Reset(void)
  57:millis.c      **** {
 184              		.loc 1 57 0
 185              		.cfi_startproc
 186 0000 80B5     		push	{r7, lr}
 187              		.cfi_def_cfa_offset 8
 188              		.cfi_offset 7, -8
 189              		.cfi_offset 14, -4
 190 0002 00AF     		add	r7, sp, #0
 191              		.cfi_def_cfa_register 7
  58:millis.c      ****     msCount = 0;
 192              		.loc 1 58 0
 193 0004 024B     		ldr	r3, .L18
 194 0006 0022     		mov	r2, #0
 195 0008 1A60     		str	r2, [r3]
  59:millis.c      **** }
 196              		.loc 1 59 0
 197 000a BD46     		mov	sp, r7
 198              		@ sp needed
 199 000c 80BD     		pop	{r7, pc}
 200              	.L19:
 201 000e C046     		.align	2
 202              	.L18:
 203 0010 00000000 		.word	msCount
 204              		.cfi_endproc
 205              	.LFE5:
 206              		.size	millis_Reset, .-millis_Reset
 207              		.text
 208              	.Letext0:
 209              		.file 2 "Generated_Source\\PSoC4/cytypes.h"