ARM GAS  C:\Users\ANDREW~1\AppData\Local\Temp\ccPPMxZW.s 			page 1


   1              		.cpu cortex-m0
   2              		.fpu softvfp
   3              		.eabi_attribute 20, 1
   4              		.eabi_attribute 21, 1
   5              		.eabi_attribute 23, 3
   6              		.eabi_attribute 24, 1
   7              		.eabi_attribute 25, 1
   8              		.eabi_attribute 26, 1
   9              		.eabi_attribute 30, 6
  10              		.eabi_attribute 34, 0
  11              		.eabi_attribute 18, 4
  12              		.code	16
  13              		.file	"UART.c"
  14              		.text
  15              	.Ltext0:
  16              		.cfi_sections	.debug_frame
  17              		.global	UART_initVar
  18              		.bss
  19              		.type	UART_initVar, %object
  20              		.size	UART_initVar, 1
  21              	UART_initVar:
  22 0000 00       		.space	1
  23              		.global	UART_IntrTxMask
  24 0001 00       		.align	1
  25              		.type	UART_IntrTxMask, %object
  26              		.size	UART_IntrTxMask, 2
  27              	UART_IntrTxMask:
  28 0002 0000     		.space	2
  29              		.global	UART_customIntrHandler
  30              		.align	2
  31              		.type	UART_customIntrHandler, %object
  32              		.size	UART_customIntrHandler, 4
  33              	UART_customIntrHandler:
  34 0004 00000000 		.space	4
  35              		.section	.text.UART_Init,"ax",%progbits
  36              		.align	2
  37              		.global	UART_Init
  38              		.code	16
  39              		.thumb_func
  40              		.type	UART_Init, %function
  41              	UART_Init:
  42              	.LFB2:
  43              		.file 1 "Generated_Source\\PSoC4\\UART.c"
   1:Generated_Source\PSoC4/UART.c **** /***************************************************************************//**
   2:Generated_Source\PSoC4/UART.c **** * \file UART.c
   3:Generated_Source\PSoC4/UART.c **** * \version 3.20
   4:Generated_Source\PSoC4/UART.c **** *
   5:Generated_Source\PSoC4/UART.c **** * \brief
   6:Generated_Source\PSoC4/UART.c **** *  This file provides the source code to the API for the SCB Component.
   7:Generated_Source\PSoC4/UART.c **** *
   8:Generated_Source\PSoC4/UART.c **** * Note:
   9:Generated_Source\PSoC4/UART.c **** *
  10:Generated_Source\PSoC4/UART.c **** *******************************************************************************
  11:Generated_Source\PSoC4/UART.c **** * \copyright
  12:Generated_Source\PSoC4/UART.c **** * Copyright 2013-2016, Cypress Semiconductor Corporation.  All rights reserved.
  13:Generated_Source\PSoC4/UART.c **** * You may use this file only in accordance with the license, terms, conditions,
  14:Generated_Source\PSoC4/UART.c **** * disclaimers, and limitations in the end user license agreement accompanying
ARM GAS  C:\Users\ANDREW~1\AppData\Local\Temp\ccPPMxZW.s 			page 2


  15:Generated_Source\PSoC4/UART.c **** * the software package with which this file was provided.
  16:Generated_Source\PSoC4/UART.c **** *******************************************************************************/
  17:Generated_Source\PSoC4/UART.c **** 
  18:Generated_Source\PSoC4/UART.c **** #include "UART_PVT.h"
  19:Generated_Source\PSoC4/UART.c **** 
  20:Generated_Source\PSoC4/UART.c **** #if (UART_SCB_MODE_I2C_INC)
  21:Generated_Source\PSoC4/UART.c ****     #include "UART_I2C_PVT.h"
  22:Generated_Source\PSoC4/UART.c **** #endif /* (UART_SCB_MODE_I2C_INC) */
  23:Generated_Source\PSoC4/UART.c **** 
  24:Generated_Source\PSoC4/UART.c **** #if (UART_SCB_MODE_EZI2C_INC)
  25:Generated_Source\PSoC4/UART.c ****     #include "UART_EZI2C_PVT.h"
  26:Generated_Source\PSoC4/UART.c **** #endif /* (UART_SCB_MODE_EZI2C_INC) */
  27:Generated_Source\PSoC4/UART.c **** 
  28:Generated_Source\PSoC4/UART.c **** #if (UART_SCB_MODE_SPI_INC || UART_SCB_MODE_UART_INC)
  29:Generated_Source\PSoC4/UART.c ****     #include "UART_SPI_UART_PVT.h"
  30:Generated_Source\PSoC4/UART.c **** #endif /* (UART_SCB_MODE_SPI_INC || UART_SCB_MODE_UART_INC) */
  31:Generated_Source\PSoC4/UART.c **** 
  32:Generated_Source\PSoC4/UART.c **** 
  33:Generated_Source\PSoC4/UART.c **** /***************************************
  34:Generated_Source\PSoC4/UART.c **** *    Run Time Configuration Vars
  35:Generated_Source\PSoC4/UART.c **** ***************************************/
  36:Generated_Source\PSoC4/UART.c **** 
  37:Generated_Source\PSoC4/UART.c **** /* Stores internal component configuration for Unconfigured mode */
  38:Generated_Source\PSoC4/UART.c **** #if (UART_SCB_MODE_UNCONFIG_CONST_CFG)
  39:Generated_Source\PSoC4/UART.c ****     /* Common configuration variables */
  40:Generated_Source\PSoC4/UART.c ****     uint8 UART_scbMode = UART_SCB_MODE_UNCONFIG;
  41:Generated_Source\PSoC4/UART.c ****     uint8 UART_scbEnableWake;
  42:Generated_Source\PSoC4/UART.c ****     uint8 UART_scbEnableIntr;
  43:Generated_Source\PSoC4/UART.c **** 
  44:Generated_Source\PSoC4/UART.c ****     /* I2C configuration variables */
  45:Generated_Source\PSoC4/UART.c ****     uint8 UART_mode;
  46:Generated_Source\PSoC4/UART.c ****     uint8 UART_acceptAddr;
  47:Generated_Source\PSoC4/UART.c **** 
  48:Generated_Source\PSoC4/UART.c ****     /* SPI/UART configuration variables */
  49:Generated_Source\PSoC4/UART.c ****     volatile uint8 * UART_rxBuffer;
  50:Generated_Source\PSoC4/UART.c ****     uint8  UART_rxDataBits;
  51:Generated_Source\PSoC4/UART.c ****     uint32 UART_rxBufferSize;
  52:Generated_Source\PSoC4/UART.c **** 
  53:Generated_Source\PSoC4/UART.c ****     volatile uint8 * UART_txBuffer;
  54:Generated_Source\PSoC4/UART.c ****     uint8  UART_txDataBits;
  55:Generated_Source\PSoC4/UART.c ****     uint32 UART_txBufferSize;
  56:Generated_Source\PSoC4/UART.c **** 
  57:Generated_Source\PSoC4/UART.c ****     /* EZI2C configuration variables */
  58:Generated_Source\PSoC4/UART.c ****     uint8 UART_numberOfAddr;
  59:Generated_Source\PSoC4/UART.c ****     uint8 UART_subAddrSize;
  60:Generated_Source\PSoC4/UART.c **** #endif /* (UART_SCB_MODE_UNCONFIG_CONST_CFG) */
  61:Generated_Source\PSoC4/UART.c **** 
  62:Generated_Source\PSoC4/UART.c **** 
  63:Generated_Source\PSoC4/UART.c **** /***************************************
  64:Generated_Source\PSoC4/UART.c **** *     Common SCB Vars
  65:Generated_Source\PSoC4/UART.c **** ***************************************/
  66:Generated_Source\PSoC4/UART.c **** /**
  67:Generated_Source\PSoC4/UART.c **** * \addtogroup group_general
  68:Generated_Source\PSoC4/UART.c **** * \{
  69:Generated_Source\PSoC4/UART.c **** */
  70:Generated_Source\PSoC4/UART.c **** 
  71:Generated_Source\PSoC4/UART.c **** /** UART_initVar indicates whether the UART 
ARM GAS  C:\Users\ANDREW~1\AppData\Local\Temp\ccPPMxZW.s 			page 3


  72:Generated_Source\PSoC4/UART.c **** *  component has been initialized. The variable is initialized to 0 
  73:Generated_Source\PSoC4/UART.c **** *  and set to 1 the first time SCB_Start() is called. This allows 
  74:Generated_Source\PSoC4/UART.c **** *  the component to restart without reinitialization after the first 
  75:Generated_Source\PSoC4/UART.c **** *  call to the UART_Start() routine.
  76:Generated_Source\PSoC4/UART.c **** *
  77:Generated_Source\PSoC4/UART.c **** *  If re-initialization of the component is required, then the 
  78:Generated_Source\PSoC4/UART.c **** *  UART_Init() function can be called before the 
  79:Generated_Source\PSoC4/UART.c **** *  UART_Start() or UART_Enable() function.
  80:Generated_Source\PSoC4/UART.c **** */
  81:Generated_Source\PSoC4/UART.c **** uint8 UART_initVar = 0u;
  82:Generated_Source\PSoC4/UART.c **** 
  83:Generated_Source\PSoC4/UART.c **** 
  84:Generated_Source\PSoC4/UART.c **** #if (! (UART_SCB_MODE_I2C_CONST_CFG || \
  85:Generated_Source\PSoC4/UART.c ****         UART_SCB_MODE_EZI2C_CONST_CFG))
  86:Generated_Source\PSoC4/UART.c ****     /** This global variable stores TX interrupt sources after 
  87:Generated_Source\PSoC4/UART.c ****     * UART_Stop() is called. Only these TX interrupt sources 
  88:Generated_Source\PSoC4/UART.c ****     * will be restored on a subsequent UART_Enable() call.
  89:Generated_Source\PSoC4/UART.c ****     */
  90:Generated_Source\PSoC4/UART.c ****     uint16 UART_IntrTxMask = 0u;
  91:Generated_Source\PSoC4/UART.c **** #endif /* (! (UART_SCB_MODE_I2C_CONST_CFG || \
  92:Generated_Source\PSoC4/UART.c ****               UART_SCB_MODE_EZI2C_CONST_CFG)) */
  93:Generated_Source\PSoC4/UART.c **** /** \} globals */
  94:Generated_Source\PSoC4/UART.c **** 
  95:Generated_Source\PSoC4/UART.c **** #if (UART_SCB_IRQ_INTERNAL)
  96:Generated_Source\PSoC4/UART.c **** #if !defined (CY_REMOVE_UART_CUSTOM_INTR_HANDLER)
  97:Generated_Source\PSoC4/UART.c ****     void (*UART_customIntrHandler)(void) = NULL;
  98:Generated_Source\PSoC4/UART.c **** #endif /* !defined (CY_REMOVE_UART_CUSTOM_INTR_HANDLER) */
  99:Generated_Source\PSoC4/UART.c **** #endif /* (UART_SCB_IRQ_INTERNAL) */
 100:Generated_Source\PSoC4/UART.c **** 
 101:Generated_Source\PSoC4/UART.c **** 
 102:Generated_Source\PSoC4/UART.c **** /***************************************
 103:Generated_Source\PSoC4/UART.c **** *    Private Function Prototypes
 104:Generated_Source\PSoC4/UART.c **** ***************************************/
 105:Generated_Source\PSoC4/UART.c **** 
 106:Generated_Source\PSoC4/UART.c **** static void UART_ScbEnableIntr(void);
 107:Generated_Source\PSoC4/UART.c **** static void UART_ScbModeStop(void);
 108:Generated_Source\PSoC4/UART.c **** static void UART_ScbModePostEnable(void);
 109:Generated_Source\PSoC4/UART.c **** 
 110:Generated_Source\PSoC4/UART.c **** 
 111:Generated_Source\PSoC4/UART.c **** /*******************************************************************************
 112:Generated_Source\PSoC4/UART.c **** * Function Name: UART_Init
 113:Generated_Source\PSoC4/UART.c **** ****************************************************************************//**
 114:Generated_Source\PSoC4/UART.c **** *
 115:Generated_Source\PSoC4/UART.c **** *  Initializes the UART component to operate in one of the selected
 116:Generated_Source\PSoC4/UART.c **** *  configurations: I2C, SPI, UART or EZI2C.
 117:Generated_Source\PSoC4/UART.c **** *  When the configuration is set to "Unconfigured SCB", this function does
 118:Generated_Source\PSoC4/UART.c **** *  not do any initialization. Use mode-specific initialization APIs instead:
 119:Generated_Source\PSoC4/UART.c **** *  UART_I2CInit, UART_SpiInit, 
 120:Generated_Source\PSoC4/UART.c **** *  UART_UartInit or UART_EzI2CInit.
 121:Generated_Source\PSoC4/UART.c **** *
 122:Generated_Source\PSoC4/UART.c **** *******************************************************************************/
 123:Generated_Source\PSoC4/UART.c **** void UART_Init(void)
 124:Generated_Source\PSoC4/UART.c **** {
  44              		.loc 1 124 0
  45              		.cfi_startproc
  46 0000 80B5     		push	{r7, lr}
  47              		.cfi_def_cfa_offset 8
ARM GAS  C:\Users\ANDREW~1\AppData\Local\Temp\ccPPMxZW.s 			page 4


  48              		.cfi_offset 7, -8
  49              		.cfi_offset 14, -4
  50 0002 00AF     		add	r7, sp, #0
  51              		.cfi_def_cfa_register 7
 125:Generated_Source\PSoC4/UART.c **** #if (UART_SCB_MODE_UNCONFIG_CONST_CFG)
 126:Generated_Source\PSoC4/UART.c ****     if (UART_SCB_MODE_UNCONFIG_RUNTM_CFG)
 127:Generated_Source\PSoC4/UART.c ****     {
 128:Generated_Source\PSoC4/UART.c ****         UART_initVar = 0u;
 129:Generated_Source\PSoC4/UART.c ****     }
 130:Generated_Source\PSoC4/UART.c ****     else
 131:Generated_Source\PSoC4/UART.c ****     {
 132:Generated_Source\PSoC4/UART.c ****         /* Initialization was done before this function call */
 133:Generated_Source\PSoC4/UART.c ****     }
 134:Generated_Source\PSoC4/UART.c **** 
 135:Generated_Source\PSoC4/UART.c **** #elif (UART_SCB_MODE_I2C_CONST_CFG)
 136:Generated_Source\PSoC4/UART.c ****     UART_I2CInit();
 137:Generated_Source\PSoC4/UART.c **** 
 138:Generated_Source\PSoC4/UART.c **** #elif (UART_SCB_MODE_SPI_CONST_CFG)
 139:Generated_Source\PSoC4/UART.c ****     UART_SpiInit();
 140:Generated_Source\PSoC4/UART.c **** 
 141:Generated_Source\PSoC4/UART.c **** #elif (UART_SCB_MODE_UART_CONST_CFG)
 142:Generated_Source\PSoC4/UART.c ****     UART_UartInit();
  52              		.loc 1 142 0
  53 0004 FFF7FEFF 		bl	UART_UartInit
 143:Generated_Source\PSoC4/UART.c **** 
 144:Generated_Source\PSoC4/UART.c **** #elif (UART_SCB_MODE_EZI2C_CONST_CFG)
 145:Generated_Source\PSoC4/UART.c ****     UART_EzI2CInit();
 146:Generated_Source\PSoC4/UART.c **** 
 147:Generated_Source\PSoC4/UART.c **** #endif /* (UART_SCB_MODE_UNCONFIG_CONST_CFG) */
 148:Generated_Source\PSoC4/UART.c **** }
  54              		.loc 1 148 0
  55 0008 BD46     		mov	sp, r7
  56              		@ sp needed
  57 000a 80BD     		pop	{r7, pc}
  58              		.cfi_endproc
  59              	.LFE2:
  60              		.size	UART_Init, .-UART_Init
  61              		.section	.text.UART_Enable,"ax",%progbits
  62              		.align	2
  63              		.global	UART_Enable
  64              		.code	16
  65              		.thumb_func
  66              		.type	UART_Enable, %function
  67              	UART_Enable:
  68              	.LFB3:
 149:Generated_Source\PSoC4/UART.c **** 
 150:Generated_Source\PSoC4/UART.c **** 
 151:Generated_Source\PSoC4/UART.c **** /*******************************************************************************
 152:Generated_Source\PSoC4/UART.c **** * Function Name: UART_Enable
 153:Generated_Source\PSoC4/UART.c **** ****************************************************************************//**
 154:Generated_Source\PSoC4/UART.c **** *
 155:Generated_Source\PSoC4/UART.c **** *  Enables UART component operation: activates the hardware and 
 156:Generated_Source\PSoC4/UART.c **** *  internal interrupt. It also restores TX interrupt sources disabled after the 
 157:Generated_Source\PSoC4/UART.c **** *  UART_Stop() function was called (note that level-triggered TX 
 158:Generated_Source\PSoC4/UART.c **** *  interrupt sources remain disabled to not cause code lock-up).
 159:Generated_Source\PSoC4/UART.c **** *  For I2C and EZI2C modes the interrupt is internal and mandatory for 
 160:Generated_Source\PSoC4/UART.c **** *  operation. For SPI and UART modes the interrupt can be configured as none, 
ARM GAS  C:\Users\ANDREW~1\AppData\Local\Temp\ccPPMxZW.s 			page 5


 161:Generated_Source\PSoC4/UART.c **** *  internal or external.
 162:Generated_Source\PSoC4/UART.c **** *  The UART configuration should be not changed when the component
 163:Generated_Source\PSoC4/UART.c **** *  is enabled. Any configuration changes should be made after disabling the 
 164:Generated_Source\PSoC4/UART.c **** *  component.
 165:Generated_Source\PSoC4/UART.c **** *  When configuration is set to “Unconfigured UART”, the component 
 166:Generated_Source\PSoC4/UART.c **** *  must first be initialized to operate in one of the following configurations: 
 167:Generated_Source\PSoC4/UART.c **** *  I2C, SPI, UART or EZ I2C, using the mode-specific initialization API. 
 168:Generated_Source\PSoC4/UART.c **** *  Otherwise this function does not enable the component.
 169:Generated_Source\PSoC4/UART.c **** *
 170:Generated_Source\PSoC4/UART.c **** *******************************************************************************/
 171:Generated_Source\PSoC4/UART.c **** void UART_Enable(void)
 172:Generated_Source\PSoC4/UART.c **** {
  69              		.loc 1 172 0
  70              		.cfi_startproc
  71 0000 80B5     		push	{r7, lr}
  72              		.cfi_def_cfa_offset 8
  73              		.cfi_offset 7, -8
  74              		.cfi_offset 14, -4
  75 0002 00AF     		add	r7, sp, #0
  76              		.cfi_def_cfa_register 7
 173:Generated_Source\PSoC4/UART.c **** #if (UART_SCB_MODE_UNCONFIG_CONST_CFG)
 174:Generated_Source\PSoC4/UART.c ****     /* Enable SCB block, only if it is already configured */
 175:Generated_Source\PSoC4/UART.c ****     if (!UART_SCB_MODE_UNCONFIG_RUNTM_CFG)
 176:Generated_Source\PSoC4/UART.c ****     {
 177:Generated_Source\PSoC4/UART.c ****         UART_CTRL_REG |= UART_CTRL_ENABLED;
 178:Generated_Source\PSoC4/UART.c **** 
 179:Generated_Source\PSoC4/UART.c ****         UART_ScbEnableIntr();
 180:Generated_Source\PSoC4/UART.c **** 
 181:Generated_Source\PSoC4/UART.c ****         /* Call PostEnable function specific to current operation mode */
 182:Generated_Source\PSoC4/UART.c ****         UART_ScbModePostEnable();
 183:Generated_Source\PSoC4/UART.c ****     }
 184:Generated_Source\PSoC4/UART.c **** #else
 185:Generated_Source\PSoC4/UART.c ****     UART_CTRL_REG |= UART_CTRL_ENABLED;
  77              		.loc 1 185 0
  78 0004 064B     		ldr	r3, .L3
  79 0006 064A     		ldr	r2, .L3
  80 0008 1268     		ldr	r2, [r2]
  81 000a 8021     		mov	r1, #128
  82 000c 0906     		lsl	r1, r1, #24
  83 000e 0A43     		orr	r2, r1
  84 0010 1A60     		str	r2, [r3]
 186:Generated_Source\PSoC4/UART.c **** 
 187:Generated_Source\PSoC4/UART.c ****     UART_ScbEnableIntr();
  85              		.loc 1 187 0
  86 0012 FFF7FEFF 		bl	UART_ScbEnableIntr
 188:Generated_Source\PSoC4/UART.c **** 
 189:Generated_Source\PSoC4/UART.c ****     /* Call PostEnable function specific to current operation mode */
 190:Generated_Source\PSoC4/UART.c ****     UART_ScbModePostEnable();
  87              		.loc 1 190 0
  88 0016 FFF7FEFF 		bl	UART_ScbModePostEnable
 191:Generated_Source\PSoC4/UART.c **** #endif /* (UART_SCB_MODE_UNCONFIG_CONST_CFG) */
 192:Generated_Source\PSoC4/UART.c **** }
  89              		.loc 1 192 0
  90 001a BD46     		mov	sp, r7
  91              		@ sp needed
  92 001c 80BD     		pop	{r7, pc}
  93              	.L4:
ARM GAS  C:\Users\ANDREW~1\AppData\Local\Temp\ccPPMxZW.s 			page 6


  94 001e C046     		.align	2
  95              	.L3:
  96 0020 00002440 		.word	1076101120
  97              		.cfi_endproc
  98              	.LFE3:
  99              		.size	UART_Enable, .-UART_Enable
 100              		.section	.text.UART_Start,"ax",%progbits
 101              		.align	2
 102              		.global	UART_Start
 103              		.code	16
 104              		.thumb_func
 105              		.type	UART_Start, %function
 106              	UART_Start:
 107              	.LFB4:
 193:Generated_Source\PSoC4/UART.c **** 
 194:Generated_Source\PSoC4/UART.c **** 
 195:Generated_Source\PSoC4/UART.c **** /*******************************************************************************
 196:Generated_Source\PSoC4/UART.c **** * Function Name: UART_Start
 197:Generated_Source\PSoC4/UART.c **** ****************************************************************************//**
 198:Generated_Source\PSoC4/UART.c **** *
 199:Generated_Source\PSoC4/UART.c **** *  Invokes UART_Init() and UART_Enable().
 200:Generated_Source\PSoC4/UART.c **** *  After this function call, the component is enabled and ready for operation.
 201:Generated_Source\PSoC4/UART.c **** *  When configuration is set to "Unconfigured SCB", the component must first be
 202:Generated_Source\PSoC4/UART.c **** *  initialized to operate in one of the following configurations: I2C, SPI, UART
 203:Generated_Source\PSoC4/UART.c **** *  or EZI2C. Otherwise this function does not enable the component.
 204:Generated_Source\PSoC4/UART.c **** *
 205:Generated_Source\PSoC4/UART.c **** * \globalvars
 206:Generated_Source\PSoC4/UART.c **** *  UART_initVar - used to check initial configuration, modified
 207:Generated_Source\PSoC4/UART.c **** *  on first function call.
 208:Generated_Source\PSoC4/UART.c **** *
 209:Generated_Source\PSoC4/UART.c **** *******************************************************************************/
 210:Generated_Source\PSoC4/UART.c **** void UART_Start(void)
 211:Generated_Source\PSoC4/UART.c **** {
 108              		.loc 1 211 0
 109              		.cfi_startproc
 110 0000 80B5     		push	{r7, lr}
 111              		.cfi_def_cfa_offset 8
 112              		.cfi_offset 7, -8
 113              		.cfi_offset 14, -4
 114 0002 00AF     		add	r7, sp, #0
 115              		.cfi_def_cfa_register 7
 212:Generated_Source\PSoC4/UART.c ****     if (0u == UART_initVar)
 116              		.loc 1 212 0
 117 0004 064B     		ldr	r3, .L7
 118 0006 1B78     		ldrb	r3, [r3]
 119 0008 002B     		cmp	r3, #0
 120 000a 04D1     		bne	.L6
 213:Generated_Source\PSoC4/UART.c ****     {
 214:Generated_Source\PSoC4/UART.c ****         UART_Init();
 121              		.loc 1 214 0
 122 000c FFF7FEFF 		bl	UART_Init
 215:Generated_Source\PSoC4/UART.c ****         UART_initVar = 1u; /* Component was initialized */
 123              		.loc 1 215 0
 124 0010 034B     		ldr	r3, .L7
 125 0012 0122     		mov	r2, #1
 126 0014 1A70     		strb	r2, [r3]
 127              	.L6:
ARM GAS  C:\Users\ANDREW~1\AppData\Local\Temp\ccPPMxZW.s 			page 7


 216:Generated_Source\PSoC4/UART.c ****     }
 217:Generated_Source\PSoC4/UART.c **** 
 218:Generated_Source\PSoC4/UART.c ****     UART_Enable();
 128              		.loc 1 218 0
 129 0016 FFF7FEFF 		bl	UART_Enable
 219:Generated_Source\PSoC4/UART.c **** }
 130              		.loc 1 219 0
 131 001a BD46     		mov	sp, r7
 132              		@ sp needed
 133 001c 80BD     		pop	{r7, pc}
 134              	.L8:
 135 001e C046     		.align	2
 136              	.L7:
 137 0020 00000000 		.word	UART_initVar
 138              		.cfi_endproc
 139              	.LFE4:
 140              		.size	UART_Start, .-UART_Start
 141              		.section	.text.UART_Stop,"ax",%progbits
 142              		.align	2
 143              		.global	UART_Stop
 144              		.code	16
 145              		.thumb_func
 146              		.type	UART_Stop, %function
 147              	UART_Stop:
 148              	.LFB5:
 220:Generated_Source\PSoC4/UART.c **** 
 221:Generated_Source\PSoC4/UART.c **** 
 222:Generated_Source\PSoC4/UART.c **** /*******************************************************************************
 223:Generated_Source\PSoC4/UART.c **** * Function Name: UART_Stop
 224:Generated_Source\PSoC4/UART.c **** ****************************************************************************//**
 225:Generated_Source\PSoC4/UART.c **** *
 226:Generated_Source\PSoC4/UART.c **** *  Disables the UART component: disable the hardware and internal 
 227:Generated_Source\PSoC4/UART.c **** *  interrupt. It also disables all TX interrupt sources so as not to cause an 
 228:Generated_Source\PSoC4/UART.c **** *  unexpected interrupt trigger because after the component is enabled, the 
 229:Generated_Source\PSoC4/UART.c **** *  TX FIFO is empty.
 230:Generated_Source\PSoC4/UART.c **** *  Refer to the function UART_Enable() for the interrupt 
 231:Generated_Source\PSoC4/UART.c **** *  configuration details.
 232:Generated_Source\PSoC4/UART.c **** *  This function disables the SCB component without checking to see if 
 233:Generated_Source\PSoC4/UART.c **** *  communication is in progress. Before calling this function it may be 
 234:Generated_Source\PSoC4/UART.c **** *  necessary to check the status of communication to make sure communication 
 235:Generated_Source\PSoC4/UART.c **** *  is complete. If this is not done then communication could be stopped mid 
 236:Generated_Source\PSoC4/UART.c **** *  byte and corrupted data could result.
 237:Generated_Source\PSoC4/UART.c **** *
 238:Generated_Source\PSoC4/UART.c **** *******************************************************************************/
 239:Generated_Source\PSoC4/UART.c **** void UART_Stop(void)
 240:Generated_Source\PSoC4/UART.c **** {
 149              		.loc 1 240 0
 150              		.cfi_startproc
 151 0000 80B5     		push	{r7, lr}
 152              		.cfi_def_cfa_offset 8
 153              		.cfi_offset 7, -8
 154              		.cfi_offset 14, -4
 155 0002 00AF     		add	r7, sp, #0
 156              		.cfi_def_cfa_register 7
 241:Generated_Source\PSoC4/UART.c **** #if (UART_SCB_IRQ_INTERNAL)
 242:Generated_Source\PSoC4/UART.c ****     UART_DisableInt();
 157              		.loc 1 242 0
ARM GAS  C:\Users\ANDREW~1\AppData\Local\Temp\ccPPMxZW.s 			page 8


 158 0004 0920     		mov	r0, #9
 159 0006 FFF7FEFF 		bl	CyIntDisable
 243:Generated_Source\PSoC4/UART.c **** #endif /* (UART_SCB_IRQ_INTERNAL) */
 244:Generated_Source\PSoC4/UART.c **** 
 245:Generated_Source\PSoC4/UART.c ****     /* Call Stop function specific to current operation mode */
 246:Generated_Source\PSoC4/UART.c ****     UART_ScbModeStop();
 160              		.loc 1 246 0
 161 000a FFF7FEFF 		bl	UART_ScbModeStop
 247:Generated_Source\PSoC4/UART.c **** 
 248:Generated_Source\PSoC4/UART.c ****     /* Disable SCB IP */
 249:Generated_Source\PSoC4/UART.c ****     UART_CTRL_REG &= (uint32) ~UART_CTRL_ENABLED;
 162              		.loc 1 249 0
 163 000e 074B     		ldr	r3, .L10
 164 0010 064A     		ldr	r2, .L10
 165 0012 1268     		ldr	r2, [r2]
 166 0014 5200     		lsl	r2, r2, #1
 167 0016 5208     		lsr	r2, r2, #1
 168 0018 1A60     		str	r2, [r3]
 250:Generated_Source\PSoC4/UART.c **** 
 251:Generated_Source\PSoC4/UART.c ****     /* Disable all TX interrupt sources so as not to cause an unexpected
 252:Generated_Source\PSoC4/UART.c ****     * interrupt trigger after the component will be enabled because the 
 253:Generated_Source\PSoC4/UART.c ****     * TX FIFO is empty.
 254:Generated_Source\PSoC4/UART.c ****     * For SCB IP v0, it is critical as it does not mask-out interrupt
 255:Generated_Source\PSoC4/UART.c ****     * sources when it is disabled. This can cause a code lock-up in the
 256:Generated_Source\PSoC4/UART.c ****     * interrupt handler because TX FIFO cannot be loaded after the block
 257:Generated_Source\PSoC4/UART.c ****     * is disabled.
 258:Generated_Source\PSoC4/UART.c ****     */
 259:Generated_Source\PSoC4/UART.c ****     UART_SetTxInterruptMode(UART_NO_INTR_SOURCES);
 169              		.loc 1 259 0
 170 001a 054B     		ldr	r3, .L10+4
 171 001c 0022     		mov	r2, #0
 172 001e 1A60     		str	r2, [r3]
 260:Generated_Source\PSoC4/UART.c **** 
 261:Generated_Source\PSoC4/UART.c **** #if (UART_SCB_IRQ_INTERNAL)
 262:Generated_Source\PSoC4/UART.c ****     UART_ClearPendingInt();
 173              		.loc 1 262 0
 174 0020 0920     		mov	r0, #9
 175 0022 FFF7FEFF 		bl	CyIntClearPending
 263:Generated_Source\PSoC4/UART.c **** #endif /* (UART_SCB_IRQ_INTERNAL) */
 264:Generated_Source\PSoC4/UART.c **** }
 176              		.loc 1 264 0
 177 0026 BD46     		mov	sp, r7
 178              		@ sp needed
 179 0028 80BD     		pop	{r7, pc}
 180              	.L11:
 181 002a C046     		.align	2
 182              	.L10:
 183 002c 00002440 		.word	1076101120
 184 0030 880F2440 		.word	1076105096
 185              		.cfi_endproc
 186              	.LFE5:
 187              		.size	UART_Stop, .-UART_Stop
 188              		.section	.text.UART_SetRxFifoLevel,"ax",%progbits
 189              		.align	2
 190              		.global	UART_SetRxFifoLevel
 191              		.code	16
 192              		.thumb_func
ARM GAS  C:\Users\ANDREW~1\AppData\Local\Temp\ccPPMxZW.s 			page 9


 193              		.type	UART_SetRxFifoLevel, %function
 194              	UART_SetRxFifoLevel:
 195              	.LFB6:
 265:Generated_Source\PSoC4/UART.c **** 
 266:Generated_Source\PSoC4/UART.c **** 
 267:Generated_Source\PSoC4/UART.c **** /*******************************************************************************
 268:Generated_Source\PSoC4/UART.c **** * Function Name: UART_SetRxFifoLevel
 269:Generated_Source\PSoC4/UART.c **** ****************************************************************************//**
 270:Generated_Source\PSoC4/UART.c **** *
 271:Generated_Source\PSoC4/UART.c **** *  Sets level in the RX FIFO to generate a RX level interrupt.
 272:Generated_Source\PSoC4/UART.c **** *  When the RX FIFO has more entries than the RX FIFO level an RX level
 273:Generated_Source\PSoC4/UART.c **** *  interrupt request is generated.
 274:Generated_Source\PSoC4/UART.c **** *
 275:Generated_Source\PSoC4/UART.c **** *  \param level: Level in the RX FIFO to generate RX level interrupt.
 276:Generated_Source\PSoC4/UART.c **** *   The range of valid level values is between 0 and RX FIFO depth - 1.
 277:Generated_Source\PSoC4/UART.c **** *
 278:Generated_Source\PSoC4/UART.c **** *******************************************************************************/
 279:Generated_Source\PSoC4/UART.c **** void UART_SetRxFifoLevel(uint32 level)
 280:Generated_Source\PSoC4/UART.c **** {
 196              		.loc 1 280 0
 197              		.cfi_startproc
 198 0000 80B5     		push	{r7, lr}
 199              		.cfi_def_cfa_offset 8
 200              		.cfi_offset 7, -8
 201              		.cfi_offset 14, -4
 202 0002 84B0     		sub	sp, sp, #16
 203              		.cfi_def_cfa_offset 24
 204 0004 00AF     		add	r7, sp, #0
 205              		.cfi_def_cfa_register 7
 206 0006 7860     		str	r0, [r7, #4]
 281:Generated_Source\PSoC4/UART.c ****     uint32 rxFifoCtrl;
 282:Generated_Source\PSoC4/UART.c **** 
 283:Generated_Source\PSoC4/UART.c ****     rxFifoCtrl = UART_RX_FIFO_CTRL_REG;
 207              		.loc 1 283 0
 208 0008 094B     		ldr	r3, .L13
 209 000a 1B68     		ldr	r3, [r3]
 210 000c FB60     		str	r3, [r7, #12]
 284:Generated_Source\PSoC4/UART.c **** 
 285:Generated_Source\PSoC4/UART.c ****     rxFifoCtrl &= ((uint32) ~UART_RX_FIFO_CTRL_TRIGGER_LEVEL_MASK); /* Clear level mask bits */
 211              		.loc 1 285 0
 212 000e FB68     		ldr	r3, [r7, #12]
 213 0010 0F22     		mov	r2, #15
 214 0012 9343     		bic	r3, r2
 215 0014 FB60     		str	r3, [r7, #12]
 286:Generated_Source\PSoC4/UART.c ****     rxFifoCtrl |= ((uint32) (UART_RX_FIFO_CTRL_TRIGGER_LEVEL_MASK & level));
 216              		.loc 1 286 0
 217 0016 7B68     		ldr	r3, [r7, #4]
 218 0018 0F22     		mov	r2, #15
 219 001a 1340     		and	r3, r2
 220 001c FA68     		ldr	r2, [r7, #12]
 221 001e 1343     		orr	r3, r2
 222 0020 FB60     		str	r3, [r7, #12]
 287:Generated_Source\PSoC4/UART.c **** 
 288:Generated_Source\PSoC4/UART.c ****     UART_RX_FIFO_CTRL_REG = rxFifoCtrl;
 223              		.loc 1 288 0
 224 0022 034B     		ldr	r3, .L13
 225 0024 FA68     		ldr	r2, [r7, #12]
ARM GAS  C:\Users\ANDREW~1\AppData\Local\Temp\ccPPMxZW.s 			page 10


 226 0026 1A60     		str	r2, [r3]
 289:Generated_Source\PSoC4/UART.c **** }
 227              		.loc 1 289 0
 228 0028 BD46     		mov	sp, r7
 229 002a 04B0     		add	sp, sp, #16
 230              		@ sp needed
 231 002c 80BD     		pop	{r7, pc}
 232              	.L14:
 233 002e C046     		.align	2
 234              	.L13:
 235 0030 04032440 		.word	1076101892
 236              		.cfi_endproc
 237              	.LFE6:
 238              		.size	UART_SetRxFifoLevel, .-UART_SetRxFifoLevel
 239              		.section	.text.UART_SetTxFifoLevel,"ax",%progbits
 240              		.align	2
 241              		.global	UART_SetTxFifoLevel
 242              		.code	16
 243              		.thumb_func
 244              		.type	UART_SetTxFifoLevel, %function
 245              	UART_SetTxFifoLevel:
 246              	.LFB7:
 290:Generated_Source\PSoC4/UART.c **** 
 291:Generated_Source\PSoC4/UART.c **** 
 292:Generated_Source\PSoC4/UART.c **** /*******************************************************************************
 293:Generated_Source\PSoC4/UART.c **** * Function Name: UART_SetTxFifoLevel
 294:Generated_Source\PSoC4/UART.c **** ****************************************************************************//**
 295:Generated_Source\PSoC4/UART.c **** *
 296:Generated_Source\PSoC4/UART.c **** *  Sets level in the TX FIFO to generate a TX level interrupt.
 297:Generated_Source\PSoC4/UART.c **** *  When the TX FIFO has less entries than the TX FIFO level an TX level
 298:Generated_Source\PSoC4/UART.c **** *  interrupt request is generated.
 299:Generated_Source\PSoC4/UART.c **** *
 300:Generated_Source\PSoC4/UART.c **** *  \param level: Level in the TX FIFO to generate TX level interrupt.
 301:Generated_Source\PSoC4/UART.c **** *   The range of valid level values is between 0 and TX FIFO depth - 1.
 302:Generated_Source\PSoC4/UART.c **** *
 303:Generated_Source\PSoC4/UART.c **** *******************************************************************************/
 304:Generated_Source\PSoC4/UART.c **** void UART_SetTxFifoLevel(uint32 level)
 305:Generated_Source\PSoC4/UART.c **** {
 247              		.loc 1 305 0
 248              		.cfi_startproc
 249 0000 80B5     		push	{r7, lr}
 250              		.cfi_def_cfa_offset 8
 251              		.cfi_offset 7, -8
 252              		.cfi_offset 14, -4
 253 0002 84B0     		sub	sp, sp, #16
 254              		.cfi_def_cfa_offset 24
 255 0004 00AF     		add	r7, sp, #0
 256              		.cfi_def_cfa_register 7
 257 0006 7860     		str	r0, [r7, #4]
 306:Generated_Source\PSoC4/UART.c ****     uint32 txFifoCtrl;
 307:Generated_Source\PSoC4/UART.c **** 
 308:Generated_Source\PSoC4/UART.c ****     txFifoCtrl = UART_TX_FIFO_CTRL_REG;
 258              		.loc 1 308 0
 259 0008 094B     		ldr	r3, .L16
 260 000a 1B68     		ldr	r3, [r3]
 261 000c FB60     		str	r3, [r7, #12]
 309:Generated_Source\PSoC4/UART.c **** 
ARM GAS  C:\Users\ANDREW~1\AppData\Local\Temp\ccPPMxZW.s 			page 11


 310:Generated_Source\PSoC4/UART.c ****     txFifoCtrl &= ((uint32) ~UART_TX_FIFO_CTRL_TRIGGER_LEVEL_MASK); /* Clear level mask bits */
 262              		.loc 1 310 0
 263 000e FB68     		ldr	r3, [r7, #12]
 264 0010 0F22     		mov	r2, #15
 265 0012 9343     		bic	r3, r2
 266 0014 FB60     		str	r3, [r7, #12]
 311:Generated_Source\PSoC4/UART.c ****     txFifoCtrl |= ((uint32) (UART_TX_FIFO_CTRL_TRIGGER_LEVEL_MASK & level));
 267              		.loc 1 311 0
 268 0016 7B68     		ldr	r3, [r7, #4]
 269 0018 0F22     		mov	r2, #15
 270 001a 1340     		and	r3, r2
 271 001c FA68     		ldr	r2, [r7, #12]
 272 001e 1343     		orr	r3, r2
 273 0020 FB60     		str	r3, [r7, #12]
 312:Generated_Source\PSoC4/UART.c **** 
 313:Generated_Source\PSoC4/UART.c ****     UART_TX_FIFO_CTRL_REG = txFifoCtrl;
 274              		.loc 1 313 0
 275 0022 034B     		ldr	r3, .L16
 276 0024 FA68     		ldr	r2, [r7, #12]
 277 0026 1A60     		str	r2, [r3]
 314:Generated_Source\PSoC4/UART.c **** }
 278              		.loc 1 314 0
 279 0028 BD46     		mov	sp, r7
 280 002a 04B0     		add	sp, sp, #16
 281              		@ sp needed
 282 002c 80BD     		pop	{r7, pc}
 283              	.L17:
 284 002e C046     		.align	2
 285              	.L16:
 286 0030 04022440 		.word	1076101636
 287              		.cfi_endproc
 288              	.LFE7:
 289              		.size	UART_SetTxFifoLevel, .-UART_SetTxFifoLevel
 290              		.section	.text.UART_SetCustomInterruptHandler,"ax",%progbits
 291              		.align	2
 292              		.global	UART_SetCustomInterruptHandler
 293              		.code	16
 294              		.thumb_func
 295              		.type	UART_SetCustomInterruptHandler, %function
 296              	UART_SetCustomInterruptHandler:
 297              	.LFB8:
 315:Generated_Source\PSoC4/UART.c **** 
 316:Generated_Source\PSoC4/UART.c **** 
 317:Generated_Source\PSoC4/UART.c **** #if (UART_SCB_IRQ_INTERNAL)
 318:Generated_Source\PSoC4/UART.c ****     /*******************************************************************************
 319:Generated_Source\PSoC4/UART.c ****     * Function Name: UART_SetCustomInterruptHandler
 320:Generated_Source\PSoC4/UART.c ****     ****************************************************************************//**
 321:Generated_Source\PSoC4/UART.c ****     *
 322:Generated_Source\PSoC4/UART.c ****     *  Registers a function to be called by the internal interrupt handler.
 323:Generated_Source\PSoC4/UART.c ****     *  First the function that is registered is called, then the internal interrupt
 324:Generated_Source\PSoC4/UART.c ****     *  handler performs any operation such as software buffer management functions
 325:Generated_Source\PSoC4/UART.c ****     *  before the interrupt returns.  It is the user's responsibility not to break
 326:Generated_Source\PSoC4/UART.c ****     *  the software buffer operations. Only one custom handler is supported, which
 327:Generated_Source\PSoC4/UART.c ****     *  is the function provided by the most recent call.
 328:Generated_Source\PSoC4/UART.c ****     *  At the initialization time no custom handler is registered.
 329:Generated_Source\PSoC4/UART.c ****     *
 330:Generated_Source\PSoC4/UART.c ****     *  \param func: Pointer to the function to register.
ARM GAS  C:\Users\ANDREW~1\AppData\Local\Temp\ccPPMxZW.s 			page 12


 331:Generated_Source\PSoC4/UART.c ****     *        The value NULL indicates to remove the current custom interrupt
 332:Generated_Source\PSoC4/UART.c ****     *        handler.
 333:Generated_Source\PSoC4/UART.c ****     *
 334:Generated_Source\PSoC4/UART.c ****     *******************************************************************************/
 335:Generated_Source\PSoC4/UART.c ****     void UART_SetCustomInterruptHandler(void (*func)(void))
 336:Generated_Source\PSoC4/UART.c ****     {
 298              		.loc 1 336 0
 299              		.cfi_startproc
 300 0000 80B5     		push	{r7, lr}
 301              		.cfi_def_cfa_offset 8
 302              		.cfi_offset 7, -8
 303              		.cfi_offset 14, -4
 304 0002 82B0     		sub	sp, sp, #8
 305              		.cfi_def_cfa_offset 16
 306 0004 00AF     		add	r7, sp, #0
 307              		.cfi_def_cfa_register 7
 308 0006 7860     		str	r0, [r7, #4]
 337:Generated_Source\PSoC4/UART.c ****     #if !defined (CY_REMOVE_UART_CUSTOM_INTR_HANDLER)
 338:Generated_Source\PSoC4/UART.c ****         UART_customIntrHandler = func; /* Register interrupt handler */
 309              		.loc 1 338 0
 310 0008 024B     		ldr	r3, .L19
 311 000a 7A68     		ldr	r2, [r7, #4]
 312 000c 1A60     		str	r2, [r3]
 339:Generated_Source\PSoC4/UART.c ****     #else
 340:Generated_Source\PSoC4/UART.c ****         if (NULL != func)
 341:Generated_Source\PSoC4/UART.c ****         {
 342:Generated_Source\PSoC4/UART.c ****             /* Suppress compiler warning */
 343:Generated_Source\PSoC4/UART.c ****         }
 344:Generated_Source\PSoC4/UART.c ****     #endif /* !defined (CY_REMOVE_UART_CUSTOM_INTR_HANDLER) */
 345:Generated_Source\PSoC4/UART.c ****     }
 313              		.loc 1 345 0
 314 000e BD46     		mov	sp, r7
 315 0010 02B0     		add	sp, sp, #8
 316              		@ sp needed
 317 0012 80BD     		pop	{r7, pc}
 318              	.L20:
 319              		.align	2
 320              	.L19:
 321 0014 00000000 		.word	UART_customIntrHandler
 322              		.cfi_endproc
 323              	.LFE8:
 324              		.size	UART_SetCustomInterruptHandler, .-UART_SetCustomInterruptHandler
 325              		.section	.text.UART_ScbEnableIntr,"ax",%progbits
 326              		.align	2
 327              		.code	16
 328              		.thumb_func
 329              		.type	UART_ScbEnableIntr, %function
 330              	UART_ScbEnableIntr:
 331              	.LFB9:
 346:Generated_Source\PSoC4/UART.c **** #endif /* (UART_SCB_IRQ_INTERNAL) */
 347:Generated_Source\PSoC4/UART.c **** 
 348:Generated_Source\PSoC4/UART.c **** 
 349:Generated_Source\PSoC4/UART.c **** /*******************************************************************************
 350:Generated_Source\PSoC4/UART.c **** * Function Name: UART_ScbModeEnableIntr
 351:Generated_Source\PSoC4/UART.c **** ****************************************************************************//**
 352:Generated_Source\PSoC4/UART.c **** *
 353:Generated_Source\PSoC4/UART.c **** *  Enables an interrupt for a specific mode.
ARM GAS  C:\Users\ANDREW~1\AppData\Local\Temp\ccPPMxZW.s 			page 13


 354:Generated_Source\PSoC4/UART.c **** *
 355:Generated_Source\PSoC4/UART.c **** *******************************************************************************/
 356:Generated_Source\PSoC4/UART.c **** static void UART_ScbEnableIntr(void)
 357:Generated_Source\PSoC4/UART.c **** {
 332              		.loc 1 357 0
 333              		.cfi_startproc
 334 0000 80B5     		push	{r7, lr}
 335              		.cfi_def_cfa_offset 8
 336              		.cfi_offset 7, -8
 337              		.cfi_offset 14, -4
 338 0002 00AF     		add	r7, sp, #0
 339              		.cfi_def_cfa_register 7
 358:Generated_Source\PSoC4/UART.c **** #if (UART_SCB_IRQ_INTERNAL)
 359:Generated_Source\PSoC4/UART.c ****     /* Enable interrupt in NVIC */
 360:Generated_Source\PSoC4/UART.c ****     #if (UART_SCB_MODE_UNCONFIG_CONST_CFG)
 361:Generated_Source\PSoC4/UART.c ****         if (0u != UART_scbEnableIntr)
 362:Generated_Source\PSoC4/UART.c ****         {
 363:Generated_Source\PSoC4/UART.c ****             UART_EnableInt();
 364:Generated_Source\PSoC4/UART.c ****         }
 365:Generated_Source\PSoC4/UART.c **** 
 366:Generated_Source\PSoC4/UART.c ****     #else
 367:Generated_Source\PSoC4/UART.c ****         UART_EnableInt();
 340              		.loc 1 367 0
 341 0004 0920     		mov	r0, #9
 342 0006 FFF7FEFF 		bl	CyIntEnable
 368:Generated_Source\PSoC4/UART.c **** 
 369:Generated_Source\PSoC4/UART.c ****     #endif /* (UART_SCB_MODE_UNCONFIG_CONST_CFG) */
 370:Generated_Source\PSoC4/UART.c **** #endif /* (UART_SCB_IRQ_INTERNAL) */
 371:Generated_Source\PSoC4/UART.c **** }
 343              		.loc 1 371 0
 344 000a BD46     		mov	sp, r7
 345              		@ sp needed
 346 000c 80BD     		pop	{r7, pc}
 347              		.cfi_endproc
 348              	.LFE9:
 349              		.size	UART_ScbEnableIntr, .-UART_ScbEnableIntr
 350              		.section	.text.UART_ScbModePostEnable,"ax",%progbits
 351              		.align	2
 352              		.code	16
 353              		.thumb_func
 354              		.type	UART_ScbModePostEnable, %function
 355              	UART_ScbModePostEnable:
 356              	.LFB10:
 372:Generated_Source\PSoC4/UART.c **** 
 373:Generated_Source\PSoC4/UART.c **** 
 374:Generated_Source\PSoC4/UART.c **** /*******************************************************************************
 375:Generated_Source\PSoC4/UART.c **** * Function Name: UART_ScbModePostEnable
 376:Generated_Source\PSoC4/UART.c **** ****************************************************************************//**
 377:Generated_Source\PSoC4/UART.c **** *
 378:Generated_Source\PSoC4/UART.c **** *  Calls the PostEnable function for a specific operation mode.
 379:Generated_Source\PSoC4/UART.c **** *
 380:Generated_Source\PSoC4/UART.c **** *******************************************************************************/
 381:Generated_Source\PSoC4/UART.c **** static void UART_ScbModePostEnable(void)
 382:Generated_Source\PSoC4/UART.c **** {
 357              		.loc 1 382 0
 358              		.cfi_startproc
 359 0000 80B5     		push	{r7, lr}
ARM GAS  C:\Users\ANDREW~1\AppData\Local\Temp\ccPPMxZW.s 			page 14


 360              		.cfi_def_cfa_offset 8
 361              		.cfi_offset 7, -8
 362              		.cfi_offset 14, -4
 363 0002 00AF     		add	r7, sp, #0
 364              		.cfi_def_cfa_register 7
 383:Generated_Source\PSoC4/UART.c **** #if (UART_SCB_MODE_UNCONFIG_CONST_CFG)
 384:Generated_Source\PSoC4/UART.c **** #if (!UART_CY_SCBIP_V1)
 385:Generated_Source\PSoC4/UART.c ****     if (UART_SCB_MODE_SPI_RUNTM_CFG)
 386:Generated_Source\PSoC4/UART.c ****     {
 387:Generated_Source\PSoC4/UART.c ****         UART_SpiPostEnable();
 388:Generated_Source\PSoC4/UART.c ****     }
 389:Generated_Source\PSoC4/UART.c ****     else if (UART_SCB_MODE_UART_RUNTM_CFG)
 390:Generated_Source\PSoC4/UART.c ****     {
 391:Generated_Source\PSoC4/UART.c ****         UART_UartPostEnable();
 392:Generated_Source\PSoC4/UART.c ****     }
 393:Generated_Source\PSoC4/UART.c ****     else
 394:Generated_Source\PSoC4/UART.c ****     {
 395:Generated_Source\PSoC4/UART.c ****         /* Unknown mode: do nothing */
 396:Generated_Source\PSoC4/UART.c ****     }
 397:Generated_Source\PSoC4/UART.c **** #endif /* (!UART_CY_SCBIP_V1) */
 398:Generated_Source\PSoC4/UART.c **** 
 399:Generated_Source\PSoC4/UART.c **** #elif (UART_SCB_MODE_SPI_CONST_CFG)
 400:Generated_Source\PSoC4/UART.c ****     UART_SpiPostEnable();
 401:Generated_Source\PSoC4/UART.c **** 
 402:Generated_Source\PSoC4/UART.c **** #elif (UART_SCB_MODE_UART_CONST_CFG)
 403:Generated_Source\PSoC4/UART.c ****     UART_UartPostEnable();
 365              		.loc 1 403 0
 366 0004 FFF7FEFF 		bl	UART_UartPostEnable
 404:Generated_Source\PSoC4/UART.c **** 
 405:Generated_Source\PSoC4/UART.c **** #else
 406:Generated_Source\PSoC4/UART.c ****     /* Unknown mode: do nothing */
 407:Generated_Source\PSoC4/UART.c **** #endif /* (UART_SCB_MODE_UNCONFIG_CONST_CFG) */
 408:Generated_Source\PSoC4/UART.c **** }
 367              		.loc 1 408 0
 368 0008 BD46     		mov	sp, r7
 369              		@ sp needed
 370 000a 80BD     		pop	{r7, pc}
 371              		.cfi_endproc
 372              	.LFE10:
 373              		.size	UART_ScbModePostEnable, .-UART_ScbModePostEnable
 374              		.section	.text.UART_ScbModeStop,"ax",%progbits
 375              		.align	2
 376              		.code	16
 377              		.thumb_func
 378              		.type	UART_ScbModeStop, %function
 379              	UART_ScbModeStop:
 380              	.LFB11:
 409:Generated_Source\PSoC4/UART.c **** 
 410:Generated_Source\PSoC4/UART.c **** 
 411:Generated_Source\PSoC4/UART.c **** /*******************************************************************************
 412:Generated_Source\PSoC4/UART.c **** * Function Name: UART_ScbModeStop
 413:Generated_Source\PSoC4/UART.c **** ****************************************************************************//**
 414:Generated_Source\PSoC4/UART.c **** *
 415:Generated_Source\PSoC4/UART.c **** *  Calls the Stop function for a specific operation mode.
 416:Generated_Source\PSoC4/UART.c **** *
 417:Generated_Source\PSoC4/UART.c **** *******************************************************************************/
 418:Generated_Source\PSoC4/UART.c **** static void UART_ScbModeStop(void)
ARM GAS  C:\Users\ANDREW~1\AppData\Local\Temp\ccPPMxZW.s 			page 15


 419:Generated_Source\PSoC4/UART.c **** {
 381              		.loc 1 419 0
 382              		.cfi_startproc
 383 0000 80B5     		push	{r7, lr}
 384              		.cfi_def_cfa_offset 8
 385              		.cfi_offset 7, -8
 386              		.cfi_offset 14, -4
 387 0002 00AF     		add	r7, sp, #0
 388              		.cfi_def_cfa_register 7
 420:Generated_Source\PSoC4/UART.c **** #if (UART_SCB_MODE_UNCONFIG_CONST_CFG)
 421:Generated_Source\PSoC4/UART.c ****     if (UART_SCB_MODE_I2C_RUNTM_CFG)
 422:Generated_Source\PSoC4/UART.c ****     {
 423:Generated_Source\PSoC4/UART.c ****         UART_I2CStop();
 424:Generated_Source\PSoC4/UART.c ****     }
 425:Generated_Source\PSoC4/UART.c ****     else if (UART_SCB_MODE_EZI2C_RUNTM_CFG)
 426:Generated_Source\PSoC4/UART.c ****     {
 427:Generated_Source\PSoC4/UART.c ****         UART_EzI2CStop();
 428:Generated_Source\PSoC4/UART.c ****     }
 429:Generated_Source\PSoC4/UART.c **** #if (!UART_CY_SCBIP_V1)
 430:Generated_Source\PSoC4/UART.c ****     else if (UART_SCB_MODE_SPI_RUNTM_CFG)
 431:Generated_Source\PSoC4/UART.c ****     {
 432:Generated_Source\PSoC4/UART.c ****         UART_SpiStop();
 433:Generated_Source\PSoC4/UART.c ****     }
 434:Generated_Source\PSoC4/UART.c ****     else if (UART_SCB_MODE_UART_RUNTM_CFG)
 435:Generated_Source\PSoC4/UART.c ****     {
 436:Generated_Source\PSoC4/UART.c ****         UART_UartStop();
 437:Generated_Source\PSoC4/UART.c ****     }
 438:Generated_Source\PSoC4/UART.c **** #endif /* (!UART_CY_SCBIP_V1) */
 439:Generated_Source\PSoC4/UART.c ****     else
 440:Generated_Source\PSoC4/UART.c ****     {
 441:Generated_Source\PSoC4/UART.c ****         /* Unknown mode: do nothing */
 442:Generated_Source\PSoC4/UART.c ****     }
 443:Generated_Source\PSoC4/UART.c **** #elif (UART_SCB_MODE_I2C_CONST_CFG)
 444:Generated_Source\PSoC4/UART.c ****     UART_I2CStop();
 445:Generated_Source\PSoC4/UART.c **** 
 446:Generated_Source\PSoC4/UART.c **** #elif (UART_SCB_MODE_EZI2C_CONST_CFG)
 447:Generated_Source\PSoC4/UART.c ****     UART_EzI2CStop();
 448:Generated_Source\PSoC4/UART.c **** 
 449:Generated_Source\PSoC4/UART.c **** #elif (UART_SCB_MODE_SPI_CONST_CFG)
 450:Generated_Source\PSoC4/UART.c ****     UART_SpiStop();
 451:Generated_Source\PSoC4/UART.c **** 
 452:Generated_Source\PSoC4/UART.c **** #elif (UART_SCB_MODE_UART_CONST_CFG)
 453:Generated_Source\PSoC4/UART.c ****     UART_UartStop();
 389              		.loc 1 453 0
 390 0004 FFF7FEFF 		bl	UART_UartStop
 454:Generated_Source\PSoC4/UART.c **** 
 455:Generated_Source\PSoC4/UART.c **** #else
 456:Generated_Source\PSoC4/UART.c ****     /* Unknown mode: do nothing */
 457:Generated_Source\PSoC4/UART.c **** #endif /* (UART_SCB_MODE_UNCONFIG_CONST_CFG) */
 458:Generated_Source\PSoC4/UART.c **** }
 391              		.loc 1 458 0
 392 0008 BD46     		mov	sp, r7
 393              		@ sp needed
 394 000a 80BD     		pop	{r7, pc}
 395              		.cfi_endproc
 396              	.LFE11:
 397              		.size	UART_ScbModeStop, .-UART_ScbModeStop
ARM GAS  C:\Users\ANDREW~1\AppData\Local\Temp\ccPPMxZW.s 			page 16


 398              		.text
 399              	.Letext0:
 400              		.file 2 "Generated_Source\\PSoC4/cytypes.h"