ARM GAS  C:\Users\MICHS_~1\AppData\Local\Temp\cc1i05LB.s 			page 1


   1              		.cpu cortex-m0
   2              		.fpu softvfp
   3              		.eabi_attribute 20, 1
   4              		.eabi_attribute 21, 1
   5              		.eabi_attribute 23, 3
   6              		.eabi_attribute 24, 1
   7              		.eabi_attribute 25, 1
   8              		.eabi_attribute 26, 1
   9              		.eabi_attribute 30, 6
  10              		.eabi_attribute 34, 0
  11              		.eabi_attribute 18, 4
  12              		.code	16
  13              		.file	"app_UART.c"
  14              		.text
  15              	.Ltext0:
  16              		.cfi_sections	.debug_frame
  17              		.section	.text.HandleUartTxTraffic,"ax",%progbits
  18              		.align	2
  19              		.global	HandleUartTxTraffic
  20              		.code	16
  21              		.thumb_func
  22              		.type	HandleUartTxTraffic, %function
  23              	HandleUartTxTraffic:
  24              	.LFB37:
  25              		.file 1 "app_UART.c"
   1:app_UART.c    **** /*****************************************************************************************
   2:app_UART.c    **** * File Name: app_UART.c
   3:app_UART.c    **** *
   4:app_UART.c    **** * Description:
   5:app_UART.c    **** *  Common BLE application code for client devices.
   6:app_UART.c    **** *
   7:app_UART.c    **** *****************************************************************************************
   8:app_UART.c    **** * Copyright 2015, Cypress Semiconductor Corporation.  All rights reserved.
   9:app_UART.c    **** * You may use this file only in accordance with the license, terms, conditions,
  10:app_UART.c    **** * disclaimers, and limitations in the end user license agreement accompanying
  11:app_UART.c    **** * the software package with which this file was provided.
  12:app_UART.c    **** *****************************************************************************************/
  13:app_UART.c    **** 
  14:app_UART.c    **** #include "app_UART.h"
  15:app_UART.c    **** #include "app_Ble.h"
  16:app_UART.c    **** 
  17:app_UART.c    **** 
  18:app_UART.c    **** /*****************************************************************************************
  19:app_UART.c    **** * Function Name: HandleUartTxTraffic
  20:app_UART.c    **** ******************************************************************************************
  21:app_UART.c    **** *
  22:app_UART.c    **** * Summary:
  23:app_UART.c    **** *  This function takes data from UART RX buffer and pushes it to the server 
  24:app_UART.c    **** *  as Notifications.
  25:app_UART.c    **** *
  26:app_UART.c    **** * Parameters:
  27:app_UART.c    **** *  uint16 - CCCD for checking if notifications are enabled  
  28:app_UART.c    **** *
  29:app_UART.c    **** * Return:
  30:app_UART.c    **** *   None.
  31:app_UART.c    **** *
  32:app_UART.c    **** *****************************************************************************************/
ARM GAS  C:\Users\MICHS_~1\AppData\Local\Temp\cc1i05LB.s 			page 2


  33:app_UART.c    **** void HandleUartTxTraffic(uint16 txDataClientConfigDesc)
  34:app_UART.c    **** {
  26              		.loc 1 34 0
  27              		.cfi_startproc
  28 0000 F0B5     		push	{r4, r5, r6, r7, lr}
  29              		.cfi_def_cfa_offset 20
  30              		.cfi_offset 4, -20
  31              		.cfi_offset 5, -16
  32              		.cfi_offset 6, -12
  33              		.cfi_offset 7, -8
  34              		.cfi_offset 14, -4
  35 0002 8FB0     		sub	sp, sp, #60
  36              		.cfi_def_cfa_offset 80
  37 0004 00AF     		add	r7, sp, #0
  38              		.cfi_def_cfa_register 7
  39 0006 031C     		mov	r3, r0
  40 0008 1620     		mov	r0, #22
  41 000a 3818     		add	r0, r7, r0
  42 000c 9C46     		mov	ip, r3
  43 000e 6346     		mov	r3, ip
  44 0010 0380     		strh	r3, [r0]
  45 0012 6846     		mov	r0, sp
  46 0014 3861     		str	r0, [r7, #16]
  35:app_UART.c    ****     uint8   index;
  36:app_UART.c    ****     uint8   uartTxData[mtuSize - 3];
  47              		.loc 1 36 0
  48 0016 7648     		ldr	r0, .L8
  49 0018 0088     		ldrh	r0, [r0]
  50 001a 0338     		sub	r0, r0, #3
  51 001c 431E     		sub	r3, r0, #1
  52 001e 9C46     		mov	ip, r3
  53 0020 6346     		mov	r3, ip
  54 0022 3B63     		str	r3, [r7, #48]
  55 0024 031C     		mov	r3, r0
  56 0026 BB60     		str	r3, [r7, #8]
  57 0028 0023     		mov	r3, #0
  58 002a FB60     		str	r3, [r7, #12]
  59 002c BB68     		ldr	r3, [r7, #8]
  60 002e 5B0F     		lsr	r3, r3, #29
  61 0030 9C46     		mov	ip, r3
  62 0032 FB68     		ldr	r3, [r7, #12]
  63 0034 DA00     		lsl	r2, r3, #3
  64 0036 6346     		mov	r3, ip
  65 0038 1A43     		orr	r2, r3
  66 003a BB68     		ldr	r3, [r7, #8]
  67 003c D900     		lsl	r1, r3, #3
  68 003e 021C     		mov	r2, r0
  69 0040 151C     		mov	r5, r2
  70 0042 0022     		mov	r2, #0
  71 0044 161C     		mov	r6, r2
  72 0046 6A0F     		lsr	r2, r5, #29
  73 0048 F300     		lsl	r3, r6, #3
  74 004a 7B60     		str	r3, [r7, #4]
  75 004c 7B68     		ldr	r3, [r7, #4]
  76 004e 1343     		orr	r3, r2
  77 0050 7B60     		str	r3, [r7, #4]
  78 0052 EB00     		lsl	r3, r5, #3
ARM GAS  C:\Users\MICHS_~1\AppData\Local\Temp\cc1i05LB.s 			page 3


  79 0054 3B60     		str	r3, [r7]
  80 0056 031C     		mov	r3, r0
  81 0058 0733     		add	r3, r3, #7
  82 005a DB08     		lsr	r3, r3, #3
  83 005c DB00     		lsl	r3, r3, #3
  84 005e 6A46     		mov	r2, sp
  85 0060 D31A     		sub	r3, r2, r3
  86 0062 9D46     		mov	sp, r3
  87 0064 6B46     		mov	r3, sp
  88 0066 0033     		add	r3, r3, #0
  89 0068 FB62     		str	r3, [r7, #44]
  37:app_UART.c    ****     uint16  uartTxDataLength;
  38:app_UART.c    ****     
  39:app_UART.c    ****     static uint16 uartIdleCount = UART_IDLE_TIMEOUT;
  40:app_UART.c    ****     
  41:app_UART.c    ****     CYBLE_API_RESULT_T                  bleApiResult;
  42:app_UART.c    ****     CYBLE_GATTS_HANDLE_VALUE_NTF_T      uartTxDataNtf;
  43:app_UART.c    ****     
  44:app_UART.c    ****     uartTxDataLength = UART_SpiUartGetRxBufferSize();
  90              		.loc 1 44 0
  91 006a FFF7FEFF 		bl	UART_SpiUartGetRxBufferSize
  92 006e 021C     		mov	r2, r0
  93 0070 2423     		mov	r3, #36
  94 0072 1021     		mov	r1, #16
  95 0074 8C46     		mov	ip, r1
  96 0076 BC44     		add	ip, ip, r7
  97 0078 6344     		add	r3, r3, ip
  98 007a 1A80     		strh	r2, [r3]
  45:app_UART.c    ****     
  46:app_UART.c    ****     #ifdef FLOW_CONTROL
  47:app_UART.c    ****         if(uartTxDataLength >= (UART_UART_RX_BUFFER_SIZE - (UART_UART_RX_BUFFER_SIZE/2)))
  48:app_UART.c    ****         {
  49:app_UART.c    ****             DisableUartRxInt();
  50:app_UART.c    ****         }
  51:app_UART.c    ****         else
  52:app_UART.c    ****         {
  53:app_UART.c    ****             EnableUartRxInt();
  54:app_UART.c    ****         }
  55:app_UART.c    ****     #endif
  56:app_UART.c    ****     
  57:app_UART.c    ****     if((0 != uartTxDataLength) && (NOTIFICATON_ENABLED == txDataClientConfigDesc))
  99              		.loc 1 57 0
 100 007c 2423     		mov	r3, #36
 101 007e 1022     		mov	r2, #16
 102 0080 9446     		mov	ip, r2
 103 0082 BC44     		add	ip, ip, r7
 104 0084 6344     		add	r3, r3, ip
 105 0086 1B88     		ldrh	r3, [r3]
 106 0088 002B     		cmp	r3, #0
 107 008a 00D1     		bne	.LCB87
 108 008c ABE0     		b	.L2	@long jump
 109              	.LCB87:
 110              		.loc 1 57 0 is_stmt 0 discriminator 1
 111 008e 1623     		mov	r3, #22
 112 0090 FB18     		add	r3, r7, r3
 113 0092 1B88     		ldrh	r3, [r3]
 114 0094 012B     		cmp	r3, #1
ARM GAS  C:\Users\MICHS_~1\AppData\Local\Temp\cc1i05LB.s 			page 4


 115 0096 00D0     		beq	.LCB92
 116 0098 A5E0     		b	.L2	@long jump
 117              	.LCB92:
  58:app_UART.c    ****     {
  59:app_UART.c    ****         if(uartTxDataLength >= (mtuSize - 3))
 118              		.loc 1 59 0 is_stmt 1
 119 009a 2423     		mov	r3, #36
 120 009c 1022     		mov	r2, #16
 121 009e 9446     		mov	ip, r2
 122 00a0 BC44     		add	ip, ip, r7
 123 00a2 6344     		add	r3, r3, ip
 124 00a4 1A88     		ldrh	r2, [r3]
 125 00a6 524B     		ldr	r3, .L8
 126 00a8 1B88     		ldrh	r3, [r3]
 127 00aa 033B     		sub	r3, r3, #3
 128 00ac 9A42     		cmp	r2, r3
 129 00ae 0DDB     		blt	.L3
  60:app_UART.c    ****         {
  61:app_UART.c    ****             uartIdleCount       = UART_IDLE_TIMEOUT;
 130              		.loc 1 61 0
 131 00b0 504B     		ldr	r3, .L8+4
 132 00b2 FA22     		mov	r2, #250
 133 00b4 9200     		lsl	r2, r2, #2
 134 00b6 1A80     		strh	r2, [r3]
  62:app_UART.c    ****             uartTxDataLength    = mtuSize - 3;
 135              		.loc 1 62 0
 136 00b8 4D4B     		ldr	r3, .L8
 137 00ba 1A88     		ldrh	r2, [r3]
 138 00bc 2423     		mov	r3, #36
 139 00be 1021     		mov	r1, #16
 140 00c0 8C46     		mov	ip, r1
 141 00c2 BC44     		add	ip, ip, r7
 142 00c4 6344     		add	r3, r3, ip
 143 00c6 033A     		sub	r2, r2, #3
 144 00c8 1A80     		strh	r2, [r3]
 145 00ca 10E0     		b	.L4
 146              	.L3:
  63:app_UART.c    ****         }
  64:app_UART.c    ****         else
  65:app_UART.c    ****         {
  66:app_UART.c    ****             if(--uartIdleCount == 0)
 147              		.loc 1 66 0
 148 00cc 494B     		ldr	r3, .L8+4
 149 00ce 1B88     		ldrh	r3, [r3]
 150 00d0 013B     		sub	r3, r3, #1
 151 00d2 9AB2     		uxth	r2, r3
 152 00d4 474B     		ldr	r3, .L8+4
 153 00d6 1A80     		strh	r2, [r3]
 154 00d8 464B     		ldr	r3, .L8+4
 155 00da 1B88     		ldrh	r3, [r3]
 156 00dc 002B     		cmp	r3, #0
 157 00de 06D0     		beq	.L4
  67:app_UART.c    ****             {
  68:app_UART.c    ****                 /*uartTxDataLength remains unchanged */;
  69:app_UART.c    ****             }
  70:app_UART.c    ****             else
  71:app_UART.c    ****             {
ARM GAS  C:\Users\MICHS_~1\AppData\Local\Temp\cc1i05LB.s 			page 5


  72:app_UART.c    ****                 uartTxDataLength = 0;
 158              		.loc 1 72 0
 159 00e0 2423     		mov	r3, #36
 160 00e2 1022     		mov	r2, #16
 161 00e4 9446     		mov	ip, r2
 162 00e6 BC44     		add	ip, ip, r7
 163 00e8 6344     		add	r3, r3, ip
 164 00ea 0022     		mov	r2, #0
 165 00ec 1A80     		strh	r2, [r3]
 166              	.L4:
  73:app_UART.c    ****             }
  74:app_UART.c    ****         }
  75:app_UART.c    ****         
  76:app_UART.c    ****         if(0 != uartTxDataLength)
 167              		.loc 1 76 0
 168 00ee 2423     		mov	r3, #36
 169 00f0 1022     		mov	r2, #16
 170 00f2 9446     		mov	ip, r2
 171 00f4 BC44     		add	ip, ip, r7
 172 00f6 6344     		add	r3, r3, ip
 173 00f8 1B88     		ldrh	r3, [r3]
 174 00fa 002B     		cmp	r3, #0
 175 00fc 73D0     		beq	.L2
  77:app_UART.c    ****         {
  78:app_UART.c    ****             uartIdleCount       = UART_IDLE_TIMEOUT;
 176              		.loc 1 78 0
 177 00fe 3D4B     		ldr	r3, .L8+4
 178 0100 FA22     		mov	r2, #250
 179 0102 9200     		lsl	r2, r2, #2
 180 0104 1A80     		strh	r2, [r3]
  79:app_UART.c    ****             
  80:app_UART.c    ****             for(index = 0; index < uartTxDataLength; index++)
 181              		.loc 1 80 0
 182 0106 2723     		mov	r3, #39
 183 0108 1022     		mov	r2, #16
 184 010a 9446     		mov	ip, r2
 185 010c BC44     		add	ip, ip, r7
 186 010e 6344     		add	r3, r3, ip
 187 0110 0022     		mov	r2, #0
 188 0112 1A70     		strb	r2, [r3]
 189 0114 18E0     		b	.L5
 190              	.L6:
  81:app_UART.c    ****             {
  82:app_UART.c    ****                 uartTxData[index] = (uint8) UART_UartGetByte();
 191              		.loc 1 82 0 discriminator 3
 192 0116 2723     		mov	r3, #39
 193 0118 1022     		mov	r2, #16
 194 011a 9446     		mov	ip, r2
 195 011c BC44     		add	ip, ip, r7
 196 011e 6344     		add	r3, r3, ip
 197 0120 1C78     		ldrb	r4, [r3]
 198 0122 FFF7FEFF 		bl	UART_UartGetByte
 199 0126 031C     		mov	r3, r0
 200 0128 DAB2     		uxtb	r2, r3
 201 012a FB6A     		ldr	r3, [r7, #44]
 202 012c 1A55     		strb	r2, [r3, r4]
  80:app_UART.c    ****             {
ARM GAS  C:\Users\MICHS_~1\AppData\Local\Temp\cc1i05LB.s 			page 6


 203              		.loc 1 80 0 discriminator 3
 204 012e 2723     		mov	r3, #39
 205 0130 1022     		mov	r2, #16
 206 0132 9446     		mov	ip, r2
 207 0134 BC44     		add	ip, ip, r7
 208 0136 6344     		add	r3, r3, ip
 209 0138 1A78     		ldrb	r2, [r3]
 210 013a 2723     		mov	r3, #39
 211 013c 1021     		mov	r1, #16
 212 013e 8C46     		mov	ip, r1
 213 0140 BC44     		add	ip, ip, r7
 214 0142 6344     		add	r3, r3, ip
 215 0144 0132     		add	r2, r2, #1
 216 0146 1A70     		strb	r2, [r3]
 217              	.L5:
  80:app_UART.c    ****             {
 218              		.loc 1 80 0 is_stmt 0 discriminator 1
 219 0148 2723     		mov	r3, #39
 220 014a 1022     		mov	r2, #16
 221 014c 9446     		mov	ip, r2
 222 014e BC44     		add	ip, ip, r7
 223 0150 6344     		add	r3, r3, ip
 224 0152 1B78     		ldrb	r3, [r3]
 225 0154 9BB2     		uxth	r3, r3
 226 0156 2422     		mov	r2, #36
 227 0158 1021     		mov	r1, #16
 228 015a 8C46     		mov	ip, r1
 229 015c BC44     		add	ip, ip, r7
 230 015e 6244     		add	r2, r2, ip
 231 0160 1288     		ldrh	r2, [r2]
 232 0162 9A42     		cmp	r2, r3
 233 0164 D7D8     		bhi	.L6
  83:app_UART.c    ****             }
  84:app_UART.c    ****             
  85:app_UART.c    ****             uartTxDataNtf.value.val  = uartTxData;
 234              		.loc 1 85 0 is_stmt 1
 235 0166 FA6A     		ldr	r2, [r7, #44]
 236 0168 0C23     		mov	r3, #12
 237 016a 1021     		mov	r1, #16
 238 016c 8C46     		mov	ip, r1
 239 016e BC44     		add	ip, ip, r7
 240 0170 6344     		add	r3, r3, ip
 241 0172 1A60     		str	r2, [r3]
  86:app_UART.c    ****             uartTxDataNtf.value.len  = uartTxDataLength;
 242              		.loc 1 86 0
 243 0174 0C23     		mov	r3, #12
 244 0176 1022     		mov	r2, #16
 245 0178 9446     		mov	ip, r2
 246 017a BC44     		add	ip, ip, r7
 247 017c 6344     		add	r3, r3, ip
 248 017e 2422     		mov	r2, #36
 249 0180 1021     		mov	r1, #16
 250 0182 8C46     		mov	ip, r1
 251 0184 BC44     		add	ip, ip, r7
 252 0186 6244     		add	r2, r2, ip
 253 0188 1288     		ldrh	r2, [r2]
 254 018a 9A80     		strh	r2, [r3, #4]
ARM GAS  C:\Users\MICHS_~1\AppData\Local\Temp\cc1i05LB.s 			page 7


  87:app_UART.c    ****             uartTxDataNtf.attrHandle = CYBLE_SERVER_UART_SERVER_UART_TX_DATA_CHAR_HANDLE;
 255              		.loc 1 87 0
 256 018c 0C23     		mov	r3, #12
 257 018e 1022     		mov	r2, #16
 258 0190 9446     		mov	ip, r2
 259 0192 BC44     		add	ip, ip, r7
 260 0194 6344     		add	r3, r3, ip
 261 0196 0E22     		mov	r2, #14
 262 0198 1A81     		strh	r2, [r3, #8]
 263              	.L7:
  88:app_UART.c    ****             
  89:app_UART.c    ****             #ifdef FLOW_CONTROL
  90:app_UART.c    ****                 DisableUartRxInt();
  91:app_UART.c    ****             #endif
  92:app_UART.c    ****             
  93:app_UART.c    ****             do
  94:app_UART.c    ****             {
  95:app_UART.c    ****                 bleApiResult = CyBle_GattsNotification(cyBle_connHandle, &uartTxDataNtf);
 264              		.loc 1 95 0 discriminator 2
 265 019a 1A23     		mov	r3, #26
 266 019c 1022     		mov	r2, #16
 267 019e BA18     		add	r2, r7, r2
 268 01a0 D418     		add	r4, r2, r3
 269 01a2 154B     		ldr	r3, .L8+8
 270 01a4 0C22     		mov	r2, #12
 271 01a6 1021     		mov	r1, #16
 272 01a8 7918     		add	r1, r7, r1
 273 01aa 8918     		add	r1, r1, r2
 274 01ac 1A78     		ldrb	r2, [r3]
 275 01ae 5B78     		ldrb	r3, [r3, #1]
 276 01b0 1B02     		lsl	r3, r3, #8
 277 01b2 1A43     		orr	r2, r3
 278 01b4 0023     		mov	r3, #0
 279 01b6 1204     		lsl	r2, r2, #16
 280 01b8 120C     		lsr	r2, r2, #16
 281 01ba 1B0C     		lsr	r3, r3, #16
 282 01bc 1B04     		lsl	r3, r3, #16
 283 01be 1343     		orr	r3, r2
 284 01c0 181C     		mov	r0, r3
 285 01c2 FFF7FEFF 		bl	CyBle_GattsNotification
 286 01c6 031C     		mov	r3, r0
 287 01c8 2380     		strh	r3, [r4]
  96:app_UART.c    ****                 CyBle_ProcessEvents();
 288              		.loc 1 96 0 discriminator 2
 289 01ca FFF7FEFF 		bl	CyBle_ProcessEvents
  97:app_UART.c    ****             }
  98:app_UART.c    ****             while((CYBLE_ERROR_OK != bleApiResult)  && (CYBLE_STATE_CONNECTED == cyBle_state));
 290              		.loc 1 98 0 discriminator 2
 291 01ce 1A23     		mov	r3, #26
 292 01d0 1022     		mov	r2, #16
 293 01d2 9446     		mov	ip, r2
 294 01d4 BC44     		add	ip, ip, r7
 295 01d6 6344     		add	r3, r3, ip
 296 01d8 1B88     		ldrh	r3, [r3]
 297 01da 002B     		cmp	r3, #0
 298 01dc 03D0     		beq	.L2
 299              		.loc 1 98 0 is_stmt 0 discriminator 1
ARM GAS  C:\Users\MICHS_~1\AppData\Local\Temp\cc1i05LB.s 			page 8


 300 01de 074B     		ldr	r3, .L8+12
 301 01e0 1B78     		ldrb	r3, [r3]
 302 01e2 022B     		cmp	r3, #2
 303 01e4 D9D0     		beq	.L7
 304              	.L2:
 305 01e6 3B69     		ldr	r3, [r7, #16]
 306 01e8 9D46     		mov	sp, r3
  99:app_UART.c    ****         }
 100:app_UART.c    ****     }
 101:app_UART.c    **** }
 307              		.loc 1 101 0 is_stmt 1
 308 01ea BD46     		mov	sp, r7
 309 01ec 0FB0     		add	sp, sp, #60
 310              		@ sp needed
 311 01ee F0BD     		pop	{r4, r5, r6, r7, pc}
 312              	.L9:
 313              		.align	2
 314              	.L8:
 315 01f0 00000000 		.word	mtuSize
 316 01f4 00000000 		.word	uartIdleCount.7007
 317 01f8 00000000 		.word	cyBle_connHandle
 318 01fc 00000000 		.word	cyBle_state
 319              		.cfi_endproc
 320              	.LFE37:
 321              		.size	HandleUartTxTraffic, .-HandleUartTxTraffic
 322              		.section	.text.HandleUartRxTraffic,"ax",%progbits
 323              		.align	2
 324              		.global	HandleUartRxTraffic
 325              		.code	16
 326              		.thumb_func
 327              		.type	HandleUartRxTraffic, %function
 328              	HandleUartRxTraffic:
 329              	.LFB38:
 102:app_UART.c    **** 
 103:app_UART.c    **** /*****************************************************************************************
 104:app_UART.c    **** * Function Name: HandleUartRxTraffic
 105:app_UART.c    **** ******************************************************************************************
 106:app_UART.c    **** *
 107:app_UART.c    **** * Summary:
 108:app_UART.c    **** *  This function takes data from received "write without response" command from
 109:app_UART.c    **** *  server and, pushes it to the UART TX buffer. 
 110:app_UART.c    **** *
 111:app_UART.c    **** * Parameters:
 112:app_UART.c    **** *  CYBLE_GATTS_WRITE_REQ_PARAM_T * - the "write without response" param as
 113:app_UART.c    **** *                                    recieved by the BLE stack
 114:app_UART.c    **** *
 115:app_UART.c    **** * Return:
 116:app_UART.c    **** *   None.
 117:app_UART.c    **** *
 118:app_UART.c    **** *****************************************************************************************/
 119:app_UART.c    **** void HandleUartRxTraffic(CYBLE_GATTS_WRITE_REQ_PARAM_T * uartRxDataWrReq)
 120:app_UART.c    **** {
 330              		.loc 1 120 0
 331              		.cfi_startproc
 332 0000 80B5     		push	{r7, lr}
 333              		.cfi_def_cfa_offset 8
 334              		.cfi_offset 7, -8
ARM GAS  C:\Users\MICHS_~1\AppData\Local\Temp\cc1i05LB.s 			page 9


 335              		.cfi_offset 14, -4
 336 0002 82B0     		sub	sp, sp, #8
 337              		.cfi_def_cfa_offset 16
 338 0004 00AF     		add	r7, sp, #0
 339              		.cfi_def_cfa_register 7
 340 0006 7860     		str	r0, [r7, #4]
 121:app_UART.c    ****     if(uartRxDataWrReq->handleValPair.attrHandle == CYBLE_SERVER_UART_SERVER_UART_RX_DATA_CHAR_HAND
 341              		.loc 1 121 0
 342 0008 7B68     		ldr	r3, [r7, #4]
 343 000a 9B89     		ldrh	r3, [r3, #12]
 344 000c 112B     		cmp	r3, #17
 345 000e 07D1     		bne	.L10
 122:app_UART.c    ****     {
 123:app_UART.c    ****         UART_SpiUartPutArray(uartRxDataWrReq->handleValPair.value.val, \
 346              		.loc 1 123 0
 347 0010 7B68     		ldr	r3, [r7, #4]
 348 0012 5A68     		ldr	r2, [r3, #4]
 124:app_UART.c    ****                                     (uint32) uartRxDataWrReq->handleValPair.value.len);
 349              		.loc 1 124 0
 350 0014 7B68     		ldr	r3, [r7, #4]
 351 0016 1B89     		ldrh	r3, [r3, #8]
 123:app_UART.c    ****                                     (uint32) uartRxDataWrReq->handleValPair.value.len);
 352              		.loc 1 123 0
 353 0018 101C     		mov	r0, r2
 354 001a 191C     		mov	r1, r3
 355 001c FFF7FEFF 		bl	UART_SpiUartPutArray
 356              	.L10:
 125:app_UART.c    ****     }
 126:app_UART.c    **** }
 357              		.loc 1 126 0
 358 0020 BD46     		mov	sp, r7
 359 0022 02B0     		add	sp, sp, #8
 360              		@ sp needed
 361 0024 80BD     		pop	{r7, pc}
 362              		.cfi_endproc
 363              	.LFE38:
 364              		.size	HandleUartRxTraffic, .-HandleUartRxTraffic
 365 0026 C046     		.section	.text.DisableUartRxInt,"ax",%progbits
 366              		.align	2
 367              		.global	DisableUartRxInt
 368              		.code	16
 369              		.thumb_func
 370              		.type	DisableUartRxInt, %function
 371              	DisableUartRxInt:
 372              	.LFB39:
 127:app_UART.c    **** 
 128:app_UART.c    **** /*****************************************************************************************
 129:app_UART.c    **** * Function Name: DisableUartRxInt
 130:app_UART.c    **** ******************************************************************************************
 131:app_UART.c    **** *
 132:app_UART.c    **** * Summary:
 133:app_UART.c    **** *  This function disables the UART RX interrupt.
 134:app_UART.c    **** *
 135:app_UART.c    **** * Parameters:
 136:app_UART.c    **** *   None.
 137:app_UART.c    **** *
 138:app_UART.c    **** * Return:
ARM GAS  C:\Users\MICHS_~1\AppData\Local\Temp\cc1i05LB.s 			page 10


 139:app_UART.c    **** *   None.
 140:app_UART.c    **** *
 141:app_UART.c    **** *****************************************************************************************/
 142:app_UART.c    **** void DisableUartRxInt(void)
 143:app_UART.c    **** {
 373              		.loc 1 143 0
 374              		.cfi_startproc
 375 0000 80B5     		push	{r7, lr}
 376              		.cfi_def_cfa_offset 8
 377              		.cfi_offset 7, -8
 378              		.cfi_offset 14, -4
 379 0002 00AF     		add	r7, sp, #0
 380              		.cfi_def_cfa_register 7
 144:app_UART.c    ****     UART_INTR_RX_MASK_REG &= ~UART_RX_INTR_MASK;  
 381              		.loc 1 144 0
 382 0004 034B     		ldr	r3, .L13
 383 0006 034A     		ldr	r2, .L13
 384 0008 1268     		ldr	r2, [r2]
 385 000a 0421     		mov	r1, #4
 386 000c 8A43     		bic	r2, r1
 387 000e 1A60     		str	r2, [r3]
 145:app_UART.c    **** }
 388              		.loc 1 145 0
 389 0010 BD46     		mov	sp, r7
 390              		@ sp needed
 391 0012 80BD     		pop	{r7, pc}
 392              	.L14:
 393              		.align	2
 394              	.L13:
 395 0014 C80F2440 		.word	1076105160
 396              		.cfi_endproc
 397              	.LFE39:
 398              		.size	DisableUartRxInt, .-DisableUartRxInt
 399              		.section	.text.EnableUartRxInt,"ax",%progbits
 400              		.align	2
 401              		.global	EnableUartRxInt
 402              		.code	16
 403              		.thumb_func
 404              		.type	EnableUartRxInt, %function
 405              	EnableUartRxInt:
 406              	.LFB40:
 146:app_UART.c    **** 
 147:app_UART.c    **** /*****************************************************************************************
 148:app_UART.c    **** * Function Name: EnableUartRxInt
 149:app_UART.c    **** ******************************************************************************************
 150:app_UART.c    **** *
 151:app_UART.c    **** * Summary:
 152:app_UART.c    **** *  This function enables the UART RX interrupt.
 153:app_UART.c    **** *
 154:app_UART.c    **** * Parameters:
 155:app_UART.c    **** *   None.
 156:app_UART.c    **** *
 157:app_UART.c    **** * Return:
 158:app_UART.c    **** *   None.
 159:app_UART.c    **** *
 160:app_UART.c    **** *****************************************************************************************/
 161:app_UART.c    **** void EnableUartRxInt(void)
ARM GAS  C:\Users\MICHS_~1\AppData\Local\Temp\cc1i05LB.s 			page 11


 162:app_UART.c    **** {
 407              		.loc 1 162 0
 408              		.cfi_startproc
 409 0000 80B5     		push	{r7, lr}
 410              		.cfi_def_cfa_offset 8
 411              		.cfi_offset 7, -8
 412              		.cfi_offset 14, -4
 413 0002 00AF     		add	r7, sp, #0
 414              		.cfi_def_cfa_register 7
 163:app_UART.c    ****     UART_INTR_RX_MASK_REG |= UART_RX_INTR_MASK;  
 415              		.loc 1 163 0
 416 0004 034B     		ldr	r3, .L16
 417 0006 034A     		ldr	r2, .L16
 418 0008 1268     		ldr	r2, [r2]
 419 000a 0421     		mov	r1, #4
 420 000c 0A43     		orr	r2, r1
 421 000e 1A60     		str	r2, [r3]
 164:app_UART.c    **** }
 422              		.loc 1 164 0
 423 0010 BD46     		mov	sp, r7
 424              		@ sp needed
 425 0012 80BD     		pop	{r7, pc}
 426              	.L17:
 427              		.align	2
 428              	.L16:
 429 0014 C80F2440 		.word	1076105160
 430              		.cfi_endproc
 431              	.LFE40:
 432              		.size	EnableUartRxInt, .-EnableUartRxInt
 433              		.data
 434              		.align	1
 435              		.type	uartIdleCount.7007, %object
 436              		.size	uartIdleCount.7007, 2
 437              	uartIdleCount.7007:
 438 0000 E803     		.short	1000
 439              		.text
 440              	.Letext0:
 441              		.file 2 "Generated_Source\\PSoC4/cytypes.h"
 442              		.file 3 "Generated_Source\\PSoC4/BLE_Stack.h"
 443              		.file 4 "Generated_Source\\PSoC4/BLE_StackGatt.h"
 444              		.file 5 "Generated_Source\\PSoC4/BLE_StackGattServer.h"
 445              		.file 6 "Generated_Source\\PSoC4/BLE_eventHandler.h"
 446              		.file 7 "app_UART.h"